
F411RE_Car_FW.elf:     file format elf32-littlearm

Sections:
Idx Name          Size      VMA       LMA       File off  Algn
  0 .isr_vector   00000198  08000000  08000000  00010000  2**0
                  CONTENTS, ALLOC, LOAD, READONLY, DATA
  1 .text         00009218  080001a0  080001a0  000101a0  2**4
                  CONTENTS, ALLOC, LOAD, READONLY, CODE
  2 .rodata       0000069c  080093b8  080093b8  000193b8  2**2
                  CONTENTS, ALLOC, LOAD, READONLY, DATA
  3 .ARM.extab    00000000  08009a54  08009a54  00020070  2**0
                  CONTENTS
  4 .ARM          00000008  08009a54  08009a54  00019a54  2**2
                  CONTENTS, ALLOC, LOAD, READONLY, DATA
  5 .preinit_array 00000000  08009a5c  08009a5c  00020070  2**0
                  CONTENTS, ALLOC, LOAD, DATA
  6 .init_array   00000004  08009a5c  08009a5c  00019a5c  2**2
                  CONTENTS, ALLOC, LOAD, DATA
  7 .fini_array   00000004  08009a60  08009a60  00019a60  2**2
                  CONTENTS, ALLOC, LOAD, DATA
  8 .data         00000070  20000000  08009a64  00020000  2**2
                  CONTENTS, ALLOC, LOAD, DATA
  9 .bss          00009b4c  20000070  08009ad4  00020070  2**2
                  ALLOC
 10 ._user_heap_stack 00000a04  20009bbc  08009ad4  00029bbc  2**0
                  ALLOC
 11 .ARM.attributes 00000030  00000000  00000000  00020070  2**0
                  CONTENTS, READONLY
 12 .debug_info   0005a2c2  00000000  00000000  000200a0  2**0
                  CONTENTS, READONLY, DEBUGGING, OCTETS
 13 .debug_abbrev 00008579  00000000  00000000  0007a362  2**0
                  CONTENTS, READONLY, DEBUGGING, OCTETS
 14 .debug_loc    00031f15  00000000  00000000  000828db  2**0
                  CONTENTS, READONLY, DEBUGGING, OCTETS
 15 .debug_aranges 00002040  00000000  00000000  000b47f0  2**3
                  CONTENTS, READONLY, DEBUGGING, OCTETS
 16 .debug_ranges 00005920  00000000  00000000  000b6830  2**3
                  CONTENTS, READONLY, DEBUGGING, OCTETS
 17 .debug_macro  00020fea  00000000  00000000  000bc150  2**0
                  CONTENTS, READONLY, DEBUGGING, OCTETS
 18 .debug_line   00043ae2  00000000  00000000  000dd13a  2**0
                  CONTENTS, READONLY, DEBUGGING, OCTETS
 19 .debug_str    000b3e8c  00000000  00000000  00120c1c  2**0
                  CONTENTS, READONLY, DEBUGGING, OCTETS
 20 .comment      00000053  00000000  00000000  001d4aa8  2**0
                  CONTENTS, READONLY
 21 .debug_frame  00007b6c  00000000  00000000  001d4afc  2**2
                  CONTENTS, READONLY, DEBUGGING, OCTETS

Disassembly of section .text:

080001a0 <__do_global_dtors_aux>:
 80001a0:	b510      	push	{r4, lr}
 80001a2:	4c05      	ldr	r4, [pc, #20]	; (80001b8 <__do_global_dtors_aux+0x18>)
 80001a4:	7823      	ldrb	r3, [r4, #0]
 80001a6:	b933      	cbnz	r3, 80001b6 <__do_global_dtors_aux+0x16>
 80001a8:	4b04      	ldr	r3, [pc, #16]	; (80001bc <__do_global_dtors_aux+0x1c>)
 80001aa:	b113      	cbz	r3, 80001b2 <__do_global_dtors_aux+0x12>
 80001ac:	4804      	ldr	r0, [pc, #16]	; (80001c0 <__do_global_dtors_aux+0x20>)
 80001ae:	f3af 8000 	nop.w
 80001b2:	2301      	movs	r3, #1
 80001b4:	7023      	strb	r3, [r4, #0]
 80001b6:	bd10      	pop	{r4, pc}
 80001b8:	20000070 	.word	0x20000070
 80001bc:	00000000 	.word	0x00000000
 80001c0:	080093a0 	.word	0x080093a0

080001c4 <frame_dummy>:
 80001c4:	b508      	push	{r3, lr}
 80001c6:	4b03      	ldr	r3, [pc, #12]	; (80001d4 <frame_dummy+0x10>)
 80001c8:	b11b      	cbz	r3, 80001d2 <frame_dummy+0xe>
 80001ca:	4903      	ldr	r1, [pc, #12]	; (80001d8 <frame_dummy+0x14>)
 80001cc:	4803      	ldr	r0, [pc, #12]	; (80001dc <frame_dummy+0x18>)
 80001ce:	f3af 8000 	nop.w
 80001d2:	bd08      	pop	{r3, pc}
 80001d4:	00000000 	.word	0x00000000
 80001d8:	20000074 	.word	0x20000074
 80001dc:	080093a0 	.word	0x080093a0

080001e0 <memchr>:
 80001e0:	f001 01ff 	and.w	r1, r1, #255	; 0xff
 80001e4:	2a10      	cmp	r2, #16
 80001e6:	db2b      	blt.n	8000240 <memchr+0x60>
 80001e8:	f010 0f07 	tst.w	r0, #7
 80001ec:	d008      	beq.n	8000200 <memchr+0x20>
 80001ee:	f810 3b01 	ldrb.w	r3, [r0], #1
 80001f2:	3a01      	subs	r2, #1
 80001f4:	428b      	cmp	r3, r1
 80001f6:	d02d      	beq.n	8000254 <memchr+0x74>
 80001f8:	f010 0f07 	tst.w	r0, #7
 80001fc:	b342      	cbz	r2, 8000250 <memchr+0x70>
 80001fe:	d1f6      	bne.n	80001ee <memchr+0xe>
 8000200:	b4f0      	push	{r4, r5, r6, r7}
 8000202:	ea41 2101 	orr.w	r1, r1, r1, lsl #8
 8000206:	ea41 4101 	orr.w	r1, r1, r1, lsl #16
 800020a:	f022 0407 	bic.w	r4, r2, #7
 800020e:	f07f 0700 	mvns.w	r7, #0
 8000212:	2300      	movs	r3, #0
 8000214:	e8f0 5602 	ldrd	r5, r6, [r0], #8
 8000218:	3c08      	subs	r4, #8
 800021a:	ea85 0501 	eor.w	r5, r5, r1
 800021e:	ea86 0601 	eor.w	r6, r6, r1
 8000222:	fa85 f547 	uadd8	r5, r5, r7
 8000226:	faa3 f587 	sel	r5, r3, r7
 800022a:	fa86 f647 	uadd8	r6, r6, r7
 800022e:	faa5 f687 	sel	r6, r5, r7
 8000232:	b98e      	cbnz	r6, 8000258 <memchr+0x78>
 8000234:	d1ee      	bne.n	8000214 <memchr+0x34>
 8000236:	bcf0      	pop	{r4, r5, r6, r7}
 8000238:	f001 01ff 	and.w	r1, r1, #255	; 0xff
 800023c:	f002 0207 	and.w	r2, r2, #7
 8000240:	b132      	cbz	r2, 8000250 <memchr+0x70>
 8000242:	f810 3b01 	ldrb.w	r3, [r0], #1
 8000246:	3a01      	subs	r2, #1
 8000248:	ea83 0301 	eor.w	r3, r3, r1
 800024c:	b113      	cbz	r3, 8000254 <memchr+0x74>
 800024e:	d1f8      	bne.n	8000242 <memchr+0x62>
 8000250:	2000      	movs	r0, #0
 8000252:	4770      	bx	lr
 8000254:	3801      	subs	r0, #1
 8000256:	4770      	bx	lr
 8000258:	2d00      	cmp	r5, #0
 800025a:	bf06      	itte	eq
 800025c:	4635      	moveq	r5, r6
 800025e:	3803      	subeq	r0, #3
 8000260:	3807      	subne	r0, #7
 8000262:	f015 0f01 	tst.w	r5, #1
 8000266:	d107      	bne.n	8000278 <memchr+0x98>
 8000268:	3001      	adds	r0, #1
 800026a:	f415 7f80 	tst.w	r5, #256	; 0x100
 800026e:	bf02      	ittt	eq
 8000270:	3001      	addeq	r0, #1
 8000272:	f415 3fc0 	tsteq.w	r5, #98304	; 0x18000
 8000276:	3001      	addeq	r0, #1
 8000278:	bcf0      	pop	{r4, r5, r6, r7}
 800027a:	3801      	subs	r0, #1
 800027c:	4770      	bx	lr
 800027e:	bf00      	nop

08000280 <__aeabi_uldivmod>:
 8000280:	b953      	cbnz	r3, 8000298 <__aeabi_uldivmod+0x18>
 8000282:	b94a      	cbnz	r2, 8000298 <__aeabi_uldivmod+0x18>
 8000284:	2900      	cmp	r1, #0
 8000286:	bf08      	it	eq
 8000288:	2800      	cmpeq	r0, #0
 800028a:	bf1c      	itt	ne
 800028c:	f04f 31ff 	movne.w	r1, #4294967295
 8000290:	f04f 30ff 	movne.w	r0, #4294967295
 8000294:	f000 b96e 	b.w	8000574 <__aeabi_idiv0>
 8000298:	f1ad 0c08 	sub.w	ip, sp, #8
 800029c:	e96d ce04 	strd	ip, lr, [sp, #-16]!
 80002a0:	f000 f806 	bl	80002b0 <__udivmoddi4>
 80002a4:	f8dd e004 	ldr.w	lr, [sp, #4]
 80002a8:	e9dd 2302 	ldrd	r2, r3, [sp, #8]
 80002ac:	b004      	add	sp, #16
 80002ae:	4770      	bx	lr

080002b0 <__udivmoddi4>:
 80002b0:	e92d 47f0 	stmdb	sp!, {r4, r5, r6, r7, r8, r9, sl, lr}
 80002b4:	9d08      	ldr	r5, [sp, #32]
 80002b6:	4604      	mov	r4, r0
 80002b8:	468c      	mov	ip, r1
 80002ba:	2b00      	cmp	r3, #0
 80002bc:	f040 8083 	bne.w	80003c6 <__udivmoddi4+0x116>
 80002c0:	428a      	cmp	r2, r1
 80002c2:	4617      	mov	r7, r2
 80002c4:	d947      	bls.n	8000356 <__udivmoddi4+0xa6>
 80002c6:	fab2 f282 	clz	r2, r2
 80002ca:	b142      	cbz	r2, 80002de <__udivmoddi4+0x2e>
 80002cc:	f1c2 0020 	rsb	r0, r2, #32
 80002d0:	fa24 f000 	lsr.w	r0, r4, r0
 80002d4:	4091      	lsls	r1, r2
 80002d6:	4097      	lsls	r7, r2
 80002d8:	ea40 0c01 	orr.w	ip, r0, r1
 80002dc:	4094      	lsls	r4, r2
 80002de:	ea4f 4817 	mov.w	r8, r7, lsr #16
 80002e2:	0c23      	lsrs	r3, r4, #16
 80002e4:	fbbc f6f8 	udiv	r6, ip, r8
 80002e8:	fa1f fe87 	uxth.w	lr, r7
 80002ec:	fb08 c116 	mls	r1, r8, r6, ip
 80002f0:	ea43 4301 	orr.w	r3, r3, r1, lsl #16
 80002f4:	fb06 f10e 	mul.w	r1, r6, lr
 80002f8:	4299      	cmp	r1, r3
 80002fa:	d909      	bls.n	8000310 <__udivmoddi4+0x60>
 80002fc:	18fb      	adds	r3, r7, r3
 80002fe:	f106 30ff 	add.w	r0, r6, #4294967295
 8000302:	f080 8119 	bcs.w	8000538 <__udivmoddi4+0x288>
 8000306:	4299      	cmp	r1, r3
 8000308:	f240 8116 	bls.w	8000538 <__udivmoddi4+0x288>
 800030c:	3e02      	subs	r6, #2
 800030e:	443b      	add	r3, r7
 8000310:	1a5b      	subs	r3, r3, r1
 8000312:	b2a4      	uxth	r4, r4
 8000314:	fbb3 f0f8 	udiv	r0, r3, r8
 8000318:	fb08 3310 	mls	r3, r8, r0, r3
 800031c:	ea44 4403 	orr.w	r4, r4, r3, lsl #16
 8000320:	fb00 fe0e 	mul.w	lr, r0, lr
 8000324:	45a6      	cmp	lr, r4
 8000326:	d909      	bls.n	800033c <__udivmoddi4+0x8c>
 8000328:	193c      	adds	r4, r7, r4
 800032a:	f100 33ff 	add.w	r3, r0, #4294967295
 800032e:	f080 8105 	bcs.w	800053c <__udivmoddi4+0x28c>
 8000332:	45a6      	cmp	lr, r4
 8000334:	f240 8102 	bls.w	800053c <__udivmoddi4+0x28c>
 8000338:	3802      	subs	r0, #2
 800033a:	443c      	add	r4, r7
 800033c:	ea40 4006 	orr.w	r0, r0, r6, lsl #16
 8000340:	eba4 040e 	sub.w	r4, r4, lr
 8000344:	2600      	movs	r6, #0
 8000346:	b11d      	cbz	r5, 8000350 <__udivmoddi4+0xa0>
 8000348:	40d4      	lsrs	r4, r2
 800034a:	2300      	movs	r3, #0
 800034c:	e9c5 4300 	strd	r4, r3, [r5]
 8000350:	4631      	mov	r1, r6
 8000352:	e8bd 87f0 	ldmia.w	sp!, {r4, r5, r6, r7, r8, r9, sl, pc}
 8000356:	b902      	cbnz	r2, 800035a <__udivmoddi4+0xaa>
 8000358:	deff      	udf	#255	; 0xff
 800035a:	fab2 f282 	clz	r2, r2
 800035e:	2a00      	cmp	r2, #0
 8000360:	d150      	bne.n	8000404 <__udivmoddi4+0x154>
 8000362:	1bcb      	subs	r3, r1, r7
 8000364:	ea4f 4e17 	mov.w	lr, r7, lsr #16
 8000368:	fa1f f887 	uxth.w	r8, r7
 800036c:	2601      	movs	r6, #1
 800036e:	fbb3 fcfe 	udiv	ip, r3, lr
 8000372:	0c21      	lsrs	r1, r4, #16
 8000374:	fb0e 331c 	mls	r3, lr, ip, r3
 8000378:	ea41 4103 	orr.w	r1, r1, r3, lsl #16
 800037c:	fb08 f30c 	mul.w	r3, r8, ip
 8000380:	428b      	cmp	r3, r1
 8000382:	d907      	bls.n	8000394 <__udivmoddi4+0xe4>
 8000384:	1879      	adds	r1, r7, r1
 8000386:	f10c 30ff 	add.w	r0, ip, #4294967295
 800038a:	d202      	bcs.n	8000392 <__udivmoddi4+0xe2>
 800038c:	428b      	cmp	r3, r1
 800038e:	f200 80e9 	bhi.w	8000564 <__udivmoddi4+0x2b4>
 8000392:	4684      	mov	ip, r0
 8000394:	1ac9      	subs	r1, r1, r3
 8000396:	b2a3      	uxth	r3, r4
 8000398:	fbb1 f0fe 	udiv	r0, r1, lr
 800039c:	fb0e 1110 	mls	r1, lr, r0, r1
 80003a0:	ea43 4401 	orr.w	r4, r3, r1, lsl #16
 80003a4:	fb08 f800 	mul.w	r8, r8, r0
 80003a8:	45a0      	cmp	r8, r4
 80003aa:	d907      	bls.n	80003bc <__udivmoddi4+0x10c>
 80003ac:	193c      	adds	r4, r7, r4
 80003ae:	f100 33ff 	add.w	r3, r0, #4294967295
 80003b2:	d202      	bcs.n	80003ba <__udivmoddi4+0x10a>
 80003b4:	45a0      	cmp	r8, r4
 80003b6:	f200 80d9 	bhi.w	800056c <__udivmoddi4+0x2bc>
 80003ba:	4618      	mov	r0, r3
 80003bc:	eba4 0408 	sub.w	r4, r4, r8
 80003c0:	ea40 400c 	orr.w	r0, r0, ip, lsl #16
 80003c4:	e7bf      	b.n	8000346 <__udivmoddi4+0x96>
 80003c6:	428b      	cmp	r3, r1
 80003c8:	d909      	bls.n	80003de <__udivmoddi4+0x12e>
 80003ca:	2d00      	cmp	r5, #0
 80003cc:	f000 80b1 	beq.w	8000532 <__udivmoddi4+0x282>
 80003d0:	2600      	movs	r6, #0
 80003d2:	e9c5 0100 	strd	r0, r1, [r5]
 80003d6:	4630      	mov	r0, r6
 80003d8:	4631      	mov	r1, r6
 80003da:	e8bd 87f0 	ldmia.w	sp!, {r4, r5, r6, r7, r8, r9, sl, pc}
 80003de:	fab3 f683 	clz	r6, r3
 80003e2:	2e00      	cmp	r6, #0
 80003e4:	d14a      	bne.n	800047c <__udivmoddi4+0x1cc>
 80003e6:	428b      	cmp	r3, r1
 80003e8:	d302      	bcc.n	80003f0 <__udivmoddi4+0x140>
 80003ea:	4282      	cmp	r2, r0
 80003ec:	f200 80b8 	bhi.w	8000560 <__udivmoddi4+0x2b0>
 80003f0:	1a84      	subs	r4, r0, r2
 80003f2:	eb61 0103 	sbc.w	r1, r1, r3
 80003f6:	2001      	movs	r0, #1
 80003f8:	468c      	mov	ip, r1
 80003fa:	2d00      	cmp	r5, #0
 80003fc:	d0a8      	beq.n	8000350 <__udivmoddi4+0xa0>
 80003fe:	e9c5 4c00 	strd	r4, ip, [r5]
 8000402:	e7a5      	b.n	8000350 <__udivmoddi4+0xa0>
 8000404:	f1c2 0320 	rsb	r3, r2, #32
 8000408:	fa20 f603 	lsr.w	r6, r0, r3
 800040c:	4097      	lsls	r7, r2
 800040e:	fa01 f002 	lsl.w	r0, r1, r2
 8000412:	ea4f 4e17 	mov.w	lr, r7, lsr #16
 8000416:	40d9      	lsrs	r1, r3
 8000418:	4330      	orrs	r0, r6
 800041a:	0c03      	lsrs	r3, r0, #16
 800041c:	fbb1 f6fe 	udiv	r6, r1, lr
 8000420:	fa1f f887 	uxth.w	r8, r7
 8000424:	fb0e 1116 	mls	r1, lr, r6, r1
 8000428:	ea43 4301 	orr.w	r3, r3, r1, lsl #16
 800042c:	fb06 f108 	mul.w	r1, r6, r8
 8000430:	4299      	cmp	r1, r3
 8000432:	fa04 f402 	lsl.w	r4, r4, r2
 8000436:	d909      	bls.n	800044c <__udivmoddi4+0x19c>
 8000438:	18fb      	adds	r3, r7, r3
 800043a:	f106 3cff 	add.w	ip, r6, #4294967295
 800043e:	f080 808d 	bcs.w	800055c <__udivmoddi4+0x2ac>
 8000442:	4299      	cmp	r1, r3
 8000444:	f240 808a 	bls.w	800055c <__udivmoddi4+0x2ac>
 8000448:	3e02      	subs	r6, #2
 800044a:	443b      	add	r3, r7
 800044c:	1a5b      	subs	r3, r3, r1
 800044e:	b281      	uxth	r1, r0
 8000450:	fbb3 f0fe 	udiv	r0, r3, lr
 8000454:	fb0e 3310 	mls	r3, lr, r0, r3
 8000458:	ea41 4103 	orr.w	r1, r1, r3, lsl #16
 800045c:	fb00 f308 	mul.w	r3, r0, r8
 8000460:	428b      	cmp	r3, r1
 8000462:	d907      	bls.n	8000474 <__udivmoddi4+0x1c4>
 8000464:	1879      	adds	r1, r7, r1
 8000466:	f100 3cff 	add.w	ip, r0, #4294967295
 800046a:	d273      	bcs.n	8000554 <__udivmoddi4+0x2a4>
 800046c:	428b      	cmp	r3, r1
 800046e:	d971      	bls.n	8000554 <__udivmoddi4+0x2a4>
 8000470:	3802      	subs	r0, #2
 8000472:	4439      	add	r1, r7
 8000474:	1acb      	subs	r3, r1, r3
 8000476:	ea40 4606 	orr.w	r6, r0, r6, lsl #16
 800047a:	e778      	b.n	800036e <__udivmoddi4+0xbe>
 800047c:	f1c6 0c20 	rsb	ip, r6, #32
 8000480:	fa03 f406 	lsl.w	r4, r3, r6
 8000484:	fa22 f30c 	lsr.w	r3, r2, ip
 8000488:	431c      	orrs	r4, r3
 800048a:	fa20 f70c 	lsr.w	r7, r0, ip
 800048e:	fa01 f306 	lsl.w	r3, r1, r6
 8000492:	ea4f 4e14 	mov.w	lr, r4, lsr #16
 8000496:	fa21 f10c 	lsr.w	r1, r1, ip
 800049a:	431f      	orrs	r7, r3
 800049c:	0c3b      	lsrs	r3, r7, #16
 800049e:	fbb1 f9fe 	udiv	r9, r1, lr
 80004a2:	fa1f f884 	uxth.w	r8, r4
 80004a6:	fb0e 1119 	mls	r1, lr, r9, r1
 80004aa:	ea43 4101 	orr.w	r1, r3, r1, lsl #16
 80004ae:	fb09 fa08 	mul.w	sl, r9, r8
 80004b2:	458a      	cmp	sl, r1
 80004b4:	fa02 f206 	lsl.w	r2, r2, r6
 80004b8:	fa00 f306 	lsl.w	r3, r0, r6
 80004bc:	d908      	bls.n	80004d0 <__udivmoddi4+0x220>
 80004be:	1861      	adds	r1, r4, r1
 80004c0:	f109 30ff 	add.w	r0, r9, #4294967295
 80004c4:	d248      	bcs.n	8000558 <__udivmoddi4+0x2a8>
 80004c6:	458a      	cmp	sl, r1
 80004c8:	d946      	bls.n	8000558 <__udivmoddi4+0x2a8>
 80004ca:	f1a9 0902 	sub.w	r9, r9, #2
 80004ce:	4421      	add	r1, r4
 80004d0:	eba1 010a 	sub.w	r1, r1, sl
 80004d4:	b2bf      	uxth	r7, r7
 80004d6:	fbb1 f0fe 	udiv	r0, r1, lr
 80004da:	fb0e 1110 	mls	r1, lr, r0, r1
 80004de:	ea47 4701 	orr.w	r7, r7, r1, lsl #16
 80004e2:	fb00 f808 	mul.w	r8, r0, r8
 80004e6:	45b8      	cmp	r8, r7
 80004e8:	d907      	bls.n	80004fa <__udivmoddi4+0x24a>
 80004ea:	19e7      	adds	r7, r4, r7
 80004ec:	f100 31ff 	add.w	r1, r0, #4294967295
 80004f0:	d22e      	bcs.n	8000550 <__udivmoddi4+0x2a0>
 80004f2:	45b8      	cmp	r8, r7
 80004f4:	d92c      	bls.n	8000550 <__udivmoddi4+0x2a0>
 80004f6:	3802      	subs	r0, #2
 80004f8:	4427      	add	r7, r4
 80004fa:	ea40 4009 	orr.w	r0, r0, r9, lsl #16
 80004fe:	eba7 0708 	sub.w	r7, r7, r8
 8000502:	fba0 8902 	umull	r8, r9, r0, r2
 8000506:	454f      	cmp	r7, r9
 8000508:	46c6      	mov	lr, r8
 800050a:	4649      	mov	r1, r9
 800050c:	d31a      	bcc.n	8000544 <__udivmoddi4+0x294>
 800050e:	d017      	beq.n	8000540 <__udivmoddi4+0x290>
 8000510:	b15d      	cbz	r5, 800052a <__udivmoddi4+0x27a>
 8000512:	ebb3 020e 	subs.w	r2, r3, lr
 8000516:	eb67 0701 	sbc.w	r7, r7, r1
 800051a:	fa07 fc0c 	lsl.w	ip, r7, ip
 800051e:	40f2      	lsrs	r2, r6
 8000520:	ea4c 0202 	orr.w	r2, ip, r2
 8000524:	40f7      	lsrs	r7, r6
 8000526:	e9c5 2700 	strd	r2, r7, [r5]
 800052a:	2600      	movs	r6, #0
 800052c:	4631      	mov	r1, r6
 800052e:	e8bd 87f0 	ldmia.w	sp!, {r4, r5, r6, r7, r8, r9, sl, pc}
 8000532:	462e      	mov	r6, r5
 8000534:	4628      	mov	r0, r5
 8000536:	e70b      	b.n	8000350 <__udivmoddi4+0xa0>
 8000538:	4606      	mov	r6, r0
 800053a:	e6e9      	b.n	8000310 <__udivmoddi4+0x60>
 800053c:	4618      	mov	r0, r3
 800053e:	e6fd      	b.n	800033c <__udivmoddi4+0x8c>
 8000540:	4543      	cmp	r3, r8
 8000542:	d2e5      	bcs.n	8000510 <__udivmoddi4+0x260>
 8000544:	ebb8 0e02 	subs.w	lr, r8, r2
 8000548:	eb69 0104 	sbc.w	r1, r9, r4
 800054c:	3801      	subs	r0, #1
 800054e:	e7df      	b.n	8000510 <__udivmoddi4+0x260>
 8000550:	4608      	mov	r0, r1
 8000552:	e7d2      	b.n	80004fa <__udivmoddi4+0x24a>
 8000554:	4660      	mov	r0, ip
 8000556:	e78d      	b.n	8000474 <__udivmoddi4+0x1c4>
 8000558:	4681      	mov	r9, r0
 800055a:	e7b9      	b.n	80004d0 <__udivmoddi4+0x220>
 800055c:	4666      	mov	r6, ip
 800055e:	e775      	b.n	800044c <__udivmoddi4+0x19c>
 8000560:	4630      	mov	r0, r6
 8000562:	e74a      	b.n	80003fa <__udivmoddi4+0x14a>
 8000564:	f1ac 0c02 	sub.w	ip, ip, #2
 8000568:	4439      	add	r1, r7
 800056a:	e713      	b.n	8000394 <__udivmoddi4+0xe4>
 800056c:	3802      	subs	r0, #2
 800056e:	443c      	add	r4, r7
 8000570:	e724      	b.n	80003bc <__udivmoddi4+0x10c>
 8000572:	bf00      	nop

08000574 <__aeabi_idiv0>:
 8000574:	4770      	bx	lr
 8000576:	bf00      	nop

08000578 <HCI_TL_SPI_Init>:
 *
 * @param  void* Pointer to configuration struct
 * @retval int32_t Status
 */
int32_t HCI_TL_SPI_Init(void* pConf)
{
 8000578:	b530      	push	{r4, r5, lr}
 800057a:	b089      	sub	sp, #36	; 0x24
  GPIO_InitTypeDef GPIO_InitStruct;

  __HAL_RCC_GPIOA_CLK_ENABLE();
 800057c:	4b1a      	ldr	r3, [pc, #104]	; (80005e8 <HCI_TL_SPI_Init+0x70>)

  /* Configure EXTI Line */
  GPIO_InitStruct.Pin = HCI_TL_SPI_EXTI_PIN;
  GPIO_InitStruct.Mode = GPIO_MODE_IT_RISING;
  GPIO_InitStruct.Pull = GPIO_NOPULL;
  HAL_GPIO_Init(HCI_TL_SPI_EXTI_PORT, &GPIO_InitStruct);
 800057e:	481b      	ldr	r0, [pc, #108]	; (80005ec <HCI_TL_SPI_Init+0x74>)
  __HAL_RCC_GPIOA_CLK_ENABLE();
 8000580:	2100      	movs	r1, #0
 8000582:	9101      	str	r1, [sp, #4]
 8000584:	6b1a      	ldr	r2, [r3, #48]	; 0x30
 8000586:	f042 0201 	orr.w	r2, r2, #1
 800058a:	631a      	str	r2, [r3, #48]	; 0x30
 800058c:	6b1b      	ldr	r3, [r3, #48]	; 0x30
  GPIO_InitStruct.Pull = GPIO_NOPULL;
 800058e:	9104      	str	r1, [sp, #16]
  __HAL_RCC_GPIOA_CLK_ENABLE();
 8000590:	f003 0301 	and.w	r3, r3, #1
 8000594:	9301      	str	r3, [sp, #4]
  GPIO_InitStruct.Pin = HCI_TL_SPI_EXTI_PIN;
 8000596:	4b16      	ldr	r3, [pc, #88]	; (80005f0 <HCI_TL_SPI_Init+0x78>)
  __HAL_RCC_GPIOA_CLK_ENABLE();
 8000598:	9c01      	ldr	r4, [sp, #4]
  HAL_GPIO_Init(HCI_TL_SPI_EXTI_PORT, &GPIO_InitStruct);
 800059a:	a902      	add	r1, sp, #8
  GPIO_InitStruct.Pin = HCI_TL_SPI_EXTI_PIN;
 800059c:	2201      	movs	r2, #1
 800059e:	e9cd 2302 	strd	r2, r3, [sp, #8]

  /* Configure RESET Line */
  GPIO_InitStruct.Pin =  HCI_TL_RST_PIN ;
 80005a2:	2400      	movs	r4, #0
  HAL_GPIO_Init(HCI_TL_SPI_EXTI_PORT, &GPIO_InitStruct);
 80005a4:	f002 f806 	bl	80025b4 <HAL_GPIO_Init>
  GPIO_InitStruct.Pin =  HCI_TL_RST_PIN ;
 80005a8:	2500      	movs	r5, #0
  GPIO_InitStruct.Mode = GPIO_MODE_OUTPUT_PP;
  GPIO_InitStruct.Pull = GPIO_NOPULL;
  GPIO_InitStruct.Speed = GPIO_SPEED_FREQ_LOW;
  HAL_GPIO_Init(HCI_TL_RST_PORT, &GPIO_InitStruct);
 80005aa:	a902      	add	r1, sp, #8
  GPIO_InitStruct.Pin =  HCI_TL_RST_PIN ;
 80005ac:	f44f 7280 	mov.w	r2, #256	; 0x100
 80005b0:	2301      	movs	r3, #1
  HAL_GPIO_Init(HCI_TL_RST_PORT, &GPIO_InitStruct);
 80005b2:	480e      	ldr	r0, [pc, #56]	; (80005ec <HCI_TL_SPI_Init+0x74>)
  GPIO_InitStruct.Pin =  HCI_TL_RST_PIN ;
 80005b4:	e9cd 2302 	strd	r2, r3, [sp, #8]
 80005b8:	e9cd 4504 	strd	r4, r5, [sp, #16]
  HAL_GPIO_Init(HCI_TL_RST_PORT, &GPIO_InitStruct);
 80005bc:	f001 fffa 	bl	80025b4 <HAL_GPIO_Init>

  /* Configure CS */
  GPIO_InitStruct.Pin = HCI_TL_SPI_CS_PIN ;
 80005c0:	2301      	movs	r3, #1
  GPIO_InitStruct.Mode = GPIO_MODE_OUTPUT_PP;
  GPIO_InitStruct.Pull = GPIO_NOPULL;
  GPIO_InitStruct.Speed = GPIO_SPEED_FREQ_LOW;
  HAL_GPIO_Init(HCI_TL_SPI_CS_PORT, &GPIO_InitStruct);
 80005c2:	a902      	add	r1, sp, #8
  GPIO_InitStruct.Pin = HCI_TL_SPI_CS_PIN ;
 80005c4:	2202      	movs	r2, #2
  HAL_GPIO_Init(HCI_TL_SPI_CS_PORT, &GPIO_InitStruct);
 80005c6:	4809      	ldr	r0, [pc, #36]	; (80005ec <HCI_TL_SPI_Init+0x74>)
  GPIO_InitStruct.Pin = HCI_TL_SPI_CS_PIN ;
 80005c8:	e9cd 2302 	strd	r2, r3, [sp, #8]
 80005cc:	e9cd 4504 	strd	r4, r5, [sp, #16]
  HAL_GPIO_Init(HCI_TL_SPI_CS_PORT, &GPIO_InitStruct);
 80005d0:	f001 fff0 	bl	80025b4 <HAL_GPIO_Init>
  /* Deselect CS PIN for BlueNRG at startup to avoid spurious commands */
  HAL_GPIO_WritePin(HCI_TL_SPI_CS_PORT, HCI_TL_SPI_CS_PIN, GPIO_PIN_SET);
 80005d4:	2201      	movs	r2, #1
 80005d6:	2102      	movs	r1, #2
 80005d8:	4804      	ldr	r0, [pc, #16]	; (80005ec <HCI_TL_SPI_Init+0x74>)
 80005da:	f002 fa03 	bl	80029e4 <HAL_GPIO_WritePin>

  return BSP_SPI1_Init();
 80005de:	f000 fe3f 	bl	8001260 <BSP_SPI1_Init>
}
 80005e2:	b009      	add	sp, #36	; 0x24
 80005e4:	bd30      	pop	{r4, r5, pc}
 80005e6:	bf00      	nop
 80005e8:	40023800 	.word	0x40023800
 80005ec:	40020000 	.word	0x40020000
 80005f0:	10110000 	.word	0x10110000

080005f4 <HCI_TL_SPI_DeInit>:
 *
 * @param  None
 * @retval int32_t 0
 */
int32_t HCI_TL_SPI_DeInit(void)
{
 80005f4:	b508      	push	{r3, lr}
  HAL_GPIO_DeInit(HCI_TL_SPI_EXTI_PORT, HCI_TL_SPI_EXTI_PIN);
 80005f6:	4807      	ldr	r0, [pc, #28]	; (8000614 <HCI_TL_SPI_DeInit+0x20>)
 80005f8:	2101      	movs	r1, #1
 80005fa:	f002 f92b 	bl	8002854 <HAL_GPIO_DeInit>
  HAL_GPIO_DeInit(HCI_TL_SPI_CS_PORT, HCI_TL_SPI_CS_PIN);
 80005fe:	4805      	ldr	r0, [pc, #20]	; (8000614 <HCI_TL_SPI_DeInit+0x20>)
 8000600:	2102      	movs	r1, #2
 8000602:	f002 f927 	bl	8002854 <HAL_GPIO_DeInit>
  HAL_GPIO_DeInit(HCI_TL_RST_PORT, HCI_TL_RST_PIN);
 8000606:	4803      	ldr	r0, [pc, #12]	; (8000614 <HCI_TL_SPI_DeInit+0x20>)
 8000608:	f44f 7180 	mov.w	r1, #256	; 0x100
 800060c:	f002 f922 	bl	8002854 <HAL_GPIO_DeInit>
  return 0;
}
 8000610:	2000      	movs	r0, #0
 8000612:	bd08      	pop	{r3, pc}
 8000614:	40020000 	.word	0x40020000

08000618 <HCI_TL_SPI_Reset>:
 *
 * @param  None
 * @retval int32_t 0
 */
int32_t HCI_TL_SPI_Reset(void)
{
 8000618:	b510      	push	{r4, lr}
  // Deselect CS PIN for BlueNRG to avoid spurious commands
  HAL_GPIO_WritePin(HCI_TL_SPI_CS_PORT, HCI_TL_SPI_CS_PIN, GPIO_PIN_SET);
 800061a:	4c0d      	ldr	r4, [pc, #52]	; (8000650 <HCI_TL_SPI_Reset+0x38>)
 800061c:	2201      	movs	r2, #1
 800061e:	4620      	mov	r0, r4
 8000620:	2102      	movs	r1, #2
 8000622:	f002 f9df 	bl	80029e4 <HAL_GPIO_WritePin>

  HAL_GPIO_WritePin(HCI_TL_RST_PORT, HCI_TL_RST_PIN, GPIO_PIN_RESET);
 8000626:	4620      	mov	r0, r4
 8000628:	2200      	movs	r2, #0
 800062a:	f44f 7180 	mov.w	r1, #256	; 0x100
 800062e:	f002 f9d9 	bl	80029e4 <HAL_GPIO_WritePin>
  HAL_Delay(5);
 8000632:	2005      	movs	r0, #5
 8000634:	f001 fa28 	bl	8001a88 <HAL_Delay>
  HAL_GPIO_WritePin(HCI_TL_RST_PORT, HCI_TL_RST_PIN, GPIO_PIN_SET);
 8000638:	4620      	mov	r0, r4
 800063a:	2201      	movs	r2, #1
 800063c:	f44f 7180 	mov.w	r1, #256	; 0x100
 8000640:	f002 f9d0 	bl	80029e4 <HAL_GPIO_WritePin>
  HAL_Delay(5);
 8000644:	2005      	movs	r0, #5
 8000646:	f001 fa1f 	bl	8001a88 <HAL_Delay>
  return 0;
}
 800064a:	2000      	movs	r0, #0
 800064c:	bd10      	pop	{r4, pc}
 800064e:	bf00      	nop
 8000650:	40020000 	.word	0x40020000

08000654 <HCI_TL_SPI_Receive>:
 * @param  buffer : Buffer where data from SPI are stored
 * @param  size   : Buffer size
 * @retval int32_t: Number of read bytes
 */
int32_t HCI_TL_SPI_Receive(uint8_t* buffer, uint16_t size)
{
 8000654:	b5f0      	push	{r4, r5, r6, r7, lr}
  uint16_t byte_count;
  uint8_t len = 0;
  uint8_t char_00 = 0x00;
  volatile uint8_t read_char;

  uint8_t header_master[HEADER_SIZE] = {0x0b, 0x00, 0x00, 0x00, 0x00};
 8000656:	4b1f      	ldr	r3, [pc, #124]	; (80006d4 <HCI_TL_SPI_Receive+0x80>)
{
 8000658:	4606      	mov	r6, r0
 800065a:	460f      	mov	r7, r1
  uint8_t header_master[HEADER_SIZE] = {0x0b, 0x00, 0x00, 0x00, 0x00};
 800065c:	e893 0003 	ldmia.w	r3, {r0, r1}
{
 8000660:	b087      	sub	sp, #28
  uint8_t char_00 = 0x00;
 8000662:	2400      	movs	r4, #0
  uint8_t header_master[HEADER_SIZE] = {0x0b, 0x00, 0x00, 0x00, 0x00};
 8000664:	9002      	str	r0, [sp, #8]
  HAL_NVIC_DisableIRQ(HCI_TL_SPI_EXTI_IRQn);
 8000666:	2006      	movs	r0, #6
  uint8_t header_master[HEADER_SIZE] = {0x0b, 0x00, 0x00, 0x00, 0x00};
 8000668:	f88d 100c 	strb.w	r1, [sp, #12]
  uint8_t char_00 = 0x00;
 800066c:	f88d 4006 	strb.w	r4, [sp, #6]
  HAL_NVIC_DisableIRQ(HCI_TL_SPI_EXTI_IRQn);
 8000670:	f001 fcde 	bl	8002030 <HAL_NVIC_DisableIRQ>
  uint8_t header_slave[HEADER_SIZE];

  HCI_TL_SPI_Disable_IRQ();

  /* CS reset */
  HAL_GPIO_WritePin(HCI_TL_SPI_CS_PORT, HCI_TL_SPI_CS_PIN, GPIO_PIN_RESET);
 8000674:	4818      	ldr	r0, [pc, #96]	; (80006d8 <HCI_TL_SPI_Receive+0x84>)
 8000676:	4622      	mov	r2, r4
 8000678:	2102      	movs	r1, #2
 800067a:	f002 f9b3 	bl	80029e4 <HAL_GPIO_WritePin>

  /* Read the header */
  BSP_SPI1_SendRecv(header_master, header_slave, HEADER_SIZE);
 800067e:	2205      	movs	r2, #5
 8000680:	a904      	add	r1, sp, #16
 8000682:	a802      	add	r0, sp, #8
 8000684:	f000 fdb6 	bl	80011f4 <BSP_SPI1_SendRecv>

  /* device is ready */
  byte_count = (header_slave[4] << 8)| header_slave[3];
 8000688:	f89d 5014 	ldrb.w	r5, [sp, #20]
 800068c:	f89d 3013 	ldrb.w	r3, [sp, #19]

  if(byte_count > 0)
 8000690:	ea53 2505 	orrs.w	r5, r3, r5, lsl #8
 8000694:	d013      	beq.n	80006be <HCI_TL_SPI_Receive+0x6a>
  {

    /* avoid to read more data than the size of the buffer */
    if (byte_count > size)
 8000696:	42bd      	cmp	r5, r7
 8000698:	bf28      	it	cs
 800069a:	463d      	movcs	r5, r7
    {
      byte_count = size;
    }

    for(len = 0; len < byte_count; len++)
 800069c:	b17d      	cbz	r5, 80006be <HCI_TL_SPI_Receive+0x6a>
    {
      BSP_SPI1_SendRecv(&char_00, (uint8_t*)&read_char, 1);
 800069e:	2201      	movs	r2, #1
 80006a0:	f10d 0107 	add.w	r1, sp, #7
 80006a4:	f10d 0006 	add.w	r0, sp, #6
 80006a8:	f000 fda4 	bl	80011f4 <BSP_SPI1_SendRecv>
      buffer[len] = read_char;
 80006ac:	f89d 2007 	ldrb.w	r2, [sp, #7]
 80006b0:	5532      	strb	r2, [r6, r4]
    for(len = 0; len < byte_count; len++)
 80006b2:	1c63      	adds	r3, r4, #1
 80006b4:	b2da      	uxtb	r2, r3
 80006b6:	4295      	cmp	r5, r2
 80006b8:	4614      	mov	r4, r2
 80006ba:	d8f0      	bhi.n	800069e <HCI_TL_SPI_Receive+0x4a>
 80006bc:	4615      	mov	r5, r2
    }
  }

  /* Release CS line */
  HAL_GPIO_WritePin(HCI_TL_SPI_CS_PORT, HCI_TL_SPI_CS_PIN, GPIO_PIN_SET);
 80006be:	2201      	movs	r2, #1
 80006c0:	2102      	movs	r1, #2
 80006c2:	4805      	ldr	r0, [pc, #20]	; (80006d8 <HCI_TL_SPI_Receive+0x84>)
 80006c4:	f002 f98e 	bl	80029e4 <HAL_GPIO_WritePin>
  HAL_NVIC_EnableIRQ(HCI_TL_SPI_EXTI_IRQn);
 80006c8:	2006      	movs	r0, #6
 80006ca:	f001 fc9d 	bl	8002008 <HAL_NVIC_EnableIRQ>

  HCI_TL_SPI_Enable_IRQ();

  return len;
}
 80006ce:	4628      	mov	r0, r5
 80006d0:	b007      	add	sp, #28
 80006d2:	bdf0      	pop	{r4, r5, r6, r7, pc}
 80006d4:	080093b8 	.word	0x080093b8
 80006d8:	40020000 	.word	0x40020000

080006dc <HCI_TL_SPI_Send>:
 * @param  buffer : data buffer to be written
 * @param  size   : size of first data buffer to be written
 * @retval int32_t: Number of read bytes
 */
int32_t HCI_TL_SPI_Send(uint8_t* buffer, uint16_t size)
{
 80006dc:	e92d 43f0 	stmdb	sp!, {r4, r5, r6, r7, r8, r9, lr}
  int32_t result;
  uint16_t rx_bytes;

  uint8_t header_master[HEADER_SIZE] = {0x0a, 0x00, 0x00, 0x00, 0x00};
 80006e0:	4b2f      	ldr	r3, [pc, #188]	; (80007a0 <HCI_TL_SPI_Send+0xc4>)
    uint32_t tickstart_data_available = HAL_GetTick();

    result = 0;

    /* CS reset */
    HAL_GPIO_WritePin(HCI_TL_SPI_CS_PORT, HCI_TL_SPI_CS_PIN, GPIO_PIN_RESET);
 80006e2:	4e30      	ldr	r6, [pc, #192]	; (80007a4 <HCI_TL_SPI_Send+0xc8>)
{
 80006e4:	4681      	mov	r9, r0
 80006e6:	460f      	mov	r7, r1
  uint8_t header_master[HEADER_SIZE] = {0x0a, 0x00, 0x00, 0x00, 0x00};
 80006e8:	e893 0003 	ldmia.w	r3, {r0, r1}
{
 80006ec:	b085      	sub	sp, #20
  uint8_t header_master[HEADER_SIZE] = {0x0a, 0x00, 0x00, 0x00, 0x00};
 80006ee:	9000      	str	r0, [sp, #0]
 80006f0:	f88d 1004 	strb.w	r1, [sp, #4]
  uint32_t tickstart = HAL_GetTick();
 80006f4:	f001 f9c2 	bl	8001a7c <HAL_GetTick>
 80006f8:	4680      	mov	r8, r0
  HAL_NVIC_DisableIRQ(HCI_TL_SPI_EXTI_IRQn);
 80006fa:	2006      	movs	r0, #6
 80006fc:	f001 fc98 	bl	8002030 <HAL_NVIC_DisableIRQ>
    uint32_t tickstart_data_available = HAL_GetTick();
 8000700:	f001 f9bc 	bl	8001a7c <HAL_GetTick>
    HAL_GPIO_WritePin(HCI_TL_SPI_CS_PORT, HCI_TL_SPI_CS_PIN, GPIO_PIN_RESET);
 8000704:	2200      	movs	r2, #0
    uint32_t tickstart_data_available = HAL_GetTick();
 8000706:	4605      	mov	r5, r0
    HAL_GPIO_WritePin(HCI_TL_SPI_CS_PORT, HCI_TL_SPI_CS_PIN, GPIO_PIN_RESET);
 8000708:	2102      	movs	r1, #2
 800070a:	4630      	mov	r0, r6
 800070c:	f002 f96a 	bl	80029e4 <HAL_GPIO_WritePin>

    /*
     * Wait until BlueNRG-2 is ready.
     * When ready it will raise the IRQ pin.
     */
    while(!IsDataAvailable())
 8000710:	e004      	b.n	800071c <HCI_TL_SPI_Send+0x40>
    {
      if((HAL_GetTick() - tickstart_data_available) > TIMEOUT_DURATION)
 8000712:	f001 f9b3 	bl	8001a7c <HAL_GetTick>
 8000716:	1b40      	subs	r0, r0, r5
 8000718:	280f      	cmp	r0, #15
 800071a:	d83a      	bhi.n	8000792 <HCI_TL_SPI_Send+0xb6>
 * @param  None
 * @retval int32_t: 1 if data are present, 0 otherwise
 */
static int32_t IsDataAvailable(void)
{
  return (HAL_GPIO_ReadPin(HCI_TL_SPI_EXTI_PORT, HCI_TL_SPI_EXTI_PIN) == GPIO_PIN_SET);
 800071c:	4821      	ldr	r0, [pc, #132]	; (80007a4 <HCI_TL_SPI_Send+0xc8>)
 800071e:	2101      	movs	r1, #1
 8000720:	f002 f94e 	bl	80029c0 <HAL_GPIO_ReadPin>
    while(!IsDataAvailable())
 8000724:	2801      	cmp	r0, #1
  return (HAL_GPIO_ReadPin(HCI_TL_SPI_EXTI_PORT, HCI_TL_SPI_EXTI_PIN) == GPIO_PIN_SET);
 8000726:	4604      	mov	r4, r0
    while(!IsDataAvailable())
 8000728:	d1f3      	bne.n	8000712 <HCI_TL_SPI_Send+0x36>
    BSP_SPI1_SendRecv(header_master, header_slave, HEADER_SIZE);
 800072a:	2205      	movs	r2, #5
 800072c:	a902      	add	r1, sp, #8
 800072e:	4668      	mov	r0, sp
 8000730:	f000 fd60 	bl	80011f4 <BSP_SPI1_SendRecv>
    rx_bytes = (((uint16_t)header_slave[2])<<8) | ((uint16_t)header_slave[1]);
 8000734:	f89d 200a 	ldrb.w	r2, [sp, #10]
 8000738:	f89d 3009 	ldrb.w	r3, [sp, #9]
    if(rx_bytes >= size)
 800073c:	ea43 2302 	orr.w	r3, r3, r2, lsl #8
 8000740:	42bb      	cmp	r3, r7
 8000742:	d213      	bcs.n	800076c <HCI_TL_SPI_Send+0x90>
    HAL_GPIO_WritePin(HCI_TL_SPI_CS_PORT, HCI_TL_SPI_CS_PIN, GPIO_PIN_SET);
 8000744:	4622      	mov	r2, r4
 8000746:	2102      	movs	r1, #2
 8000748:	4630      	mov	r0, r6
 800074a:	f002 f94b 	bl	80029e4 <HAL_GPIO_WritePin>
    if((HAL_GetTick() - tickstart) > TIMEOUT_DURATION)
 800074e:	f001 f995 	bl	8001a7c <HAL_GetTick>
 8000752:	eba0 0008 	sub.w	r0, r0, r8
 8000756:	280f      	cmp	r0, #15
 8000758:	d9d2      	bls.n	8000700 <HCI_TL_SPI_Send+0x24>
      break;
 800075a:	f06f 0402 	mvn.w	r4, #2
  HAL_NVIC_EnableIRQ(HCI_TL_SPI_EXTI_IRQn);
 800075e:	2006      	movs	r0, #6
 8000760:	f001 fc52 	bl	8002008 <HAL_NVIC_EnableIRQ>
}
 8000764:	4620      	mov	r0, r4
 8000766:	b005      	add	sp, #20
 8000768:	e8bd 83f0 	ldmia.w	sp!, {r4, r5, r6, r7, r8, r9, pc}
      BSP_SPI1_SendRecv(buffer, read_char_buf, size);
 800076c:	490e      	ldr	r1, [pc, #56]	; (80007a8 <HCI_TL_SPI_Send+0xcc>)
 800076e:	463a      	mov	r2, r7
 8000770:	4648      	mov	r0, r9
 8000772:	f000 fd3f 	bl	80011f4 <BSP_SPI1_SendRecv>
    HAL_GPIO_WritePin(HCI_TL_SPI_CS_PORT, HCI_TL_SPI_CS_PIN, GPIO_PIN_SET);
 8000776:	4622      	mov	r2, r4
 8000778:	480a      	ldr	r0, [pc, #40]	; (80007a4 <HCI_TL_SPI_Send+0xc8>)
 800077a:	2102      	movs	r1, #2
 800077c:	f002 f932 	bl	80029e4 <HAL_GPIO_WritePin>
    if((HAL_GetTick() - tickstart) > TIMEOUT_DURATION)
 8000780:	f001 f97c 	bl	8001a7c <HAL_GetTick>
 8000784:	eba0 0008 	sub.w	r0, r0, r8
 8000788:	280f      	cmp	r0, #15
 800078a:	bf98      	it	ls
 800078c:	2400      	movls	r4, #0
 800078e:	d9e6      	bls.n	800075e <HCI_TL_SPI_Send+0x82>
 8000790:	e7e3      	b.n	800075a <HCI_TL_SPI_Send+0x7e>
      HAL_GPIO_WritePin(HCI_TL_SPI_CS_PORT, HCI_TL_SPI_CS_PIN, GPIO_PIN_SET);
 8000792:	4804      	ldr	r0, [pc, #16]	; (80007a4 <HCI_TL_SPI_Send+0xc8>)
 8000794:	2201      	movs	r2, #1
 8000796:	2102      	movs	r1, #2
 8000798:	f002 f924 	bl	80029e4 <HAL_GPIO_WritePin>
 800079c:	e7dd      	b.n	800075a <HCI_TL_SPI_Send+0x7e>
 800079e:	bf00      	nop
 80007a0:	080093c0 	.word	0x080093c0
 80007a4:	40020000 	.word	0x40020000
 80007a8:	2000008c 	.word	0x2000008c

080007ac <hci_tl_lowlevel_isr>:
  *
  * @param  None
  * @retval None
  */
void hci_tl_lowlevel_isr(void)
{
 80007ac:	b510      	push	{r4, lr}
  return (HAL_GPIO_ReadPin(HCI_TL_SPI_EXTI_PORT, HCI_TL_SPI_EXTI_PIN) == GPIO_PIN_SET);
 80007ae:	4c07      	ldr	r4, [pc, #28]	; (80007cc <hci_tl_lowlevel_isr+0x20>)
  /* Call hci_notify_asynch_evt() */
  while(IsDataAvailable())
 80007b0:	e002      	b.n	80007b8 <hci_tl_lowlevel_isr+0xc>
  {
    if (hci_notify_asynch_evt(NULL))
 80007b2:	f005 fbfd 	bl	8005fb0 <hci_notify_asynch_evt>
 80007b6:	b940      	cbnz	r0, 80007ca <hci_tl_lowlevel_isr+0x1e>
  return (HAL_GPIO_ReadPin(HCI_TL_SPI_EXTI_PORT, HCI_TL_SPI_EXTI_PIN) == GPIO_PIN_SET);
 80007b8:	2101      	movs	r1, #1
 80007ba:	4620      	mov	r0, r4
 80007bc:	f002 f900 	bl	80029c0 <HAL_GPIO_ReadPin>
 80007c0:	4603      	mov	r3, r0
  while(IsDataAvailable())
 80007c2:	2b01      	cmp	r3, #1
    if (hci_notify_asynch_evt(NULL))
 80007c4:	f04f 0000 	mov.w	r0, #0
  while(IsDataAvailable())
 80007c8:	d0f3      	beq.n	80007b2 <hci_tl_lowlevel_isr+0x6>
  }

  /* USER CODE BEGIN hci_tl_lowlevel_isr */

  /* USER CODE END hci_tl_lowlevel_isr */
}
 80007ca:	bd10      	pop	{r4, pc}
 80007cc:	40020000 	.word	0x40020000

080007d0 <hci_tl_lowlevel_init>:
{
 80007d0:	b530      	push	{r4, r5, lr}
 80007d2:	b089      	sub	sp, #36	; 0x24
  HAL_EXTI_GetHandle(&hexti0, EXTI_LINE_0);
 80007d4:	4c11      	ldr	r4, [pc, #68]	; (800081c <hci_tl_lowlevel_init+0x4c>)
  fops.Receive = HCI_TL_SPI_Receive;
 80007d6:	4912      	ldr	r1, [pc, #72]	; (8000820 <hci_tl_lowlevel_init+0x50>)
  fops.Init    = HCI_TL_SPI_Init;
 80007d8:	4b12      	ldr	r3, [pc, #72]	; (8000824 <hci_tl_lowlevel_init+0x54>)
  fops.DeInit  = HCI_TL_SPI_DeInit;
 80007da:	4813      	ldr	r0, [pc, #76]	; (8000828 <hci_tl_lowlevel_init+0x58>)
  fops.Send    = HCI_TL_SPI_Send;
 80007dc:	4d13      	ldr	r5, [pc, #76]	; (800082c <hci_tl_lowlevel_init+0x5c>)
  fops.Reset   = HCI_TL_SPI_Reset;
 80007de:	4a14      	ldr	r2, [pc, #80]	; (8000830 <hci_tl_lowlevel_init+0x60>)
  fops.Init    = HCI_TL_SPI_Init;
 80007e0:	9301      	str	r3, [sp, #4]
  fops.DeInit  = HCI_TL_SPI_DeInit;
 80007e2:	9002      	str	r0, [sp, #8]
  fops.GetTick = BSP_GetTick;
 80007e4:	4b13      	ldr	r3, [pc, #76]	; (8000834 <hci_tl_lowlevel_init+0x64>)
 80007e6:	9307      	str	r3, [sp, #28]
  hci_register_io_bus (&fops);
 80007e8:	a801      	add	r0, sp, #4
  fops.Reset   = HCI_TL_SPI_Reset;
 80007ea:	9203      	str	r2, [sp, #12]
  fops.Receive = HCI_TL_SPI_Receive;
 80007ec:	e9cd 1504 	strd	r1, r5, [sp, #16]
  hci_register_io_bus (&fops);
 80007f0:	f005 fac4 	bl	8005d7c <hci_register_io_bus>
  HAL_EXTI_GetHandle(&hexti0, EXTI_LINE_0);
 80007f4:	4620      	mov	r0, r4
 80007f6:	f04f 61c0 	mov.w	r1, #100663296	; 0x6000000
 80007fa:	f001 fea3 	bl	8002544 <HAL_EXTI_GetHandle>
  HAL_EXTI_RegisterCallback(&hexti0, HAL_EXTI_COMMON_CB_ID, hci_tl_lowlevel_isr);
 80007fe:	4a0e      	ldr	r2, [pc, #56]	; (8000838 <hci_tl_lowlevel_init+0x68>)
 8000800:	4620      	mov	r0, r4
 8000802:	2100      	movs	r1, #0
 8000804:	f001 fe98 	bl	8002538 <HAL_EXTI_RegisterCallback>
  HAL_NVIC_SetPriority(EXTI0_IRQn, 5, 0);
 8000808:	2200      	movs	r2, #0
 800080a:	2105      	movs	r1, #5
 800080c:	2006      	movs	r0, #6
 800080e:	f001 fbb1 	bl	8001f74 <HAL_NVIC_SetPriority>
  HAL_NVIC_EnableIRQ(EXTI0_IRQn);
 8000812:	2006      	movs	r0, #6
 8000814:	f001 fbf8 	bl	8002008 <HAL_NVIC_EnableIRQ>
}
 8000818:	b009      	add	sp, #36	; 0x24
 800081a:	bd30      	pop	{r4, r5, pc}
 800081c:	2000988c 	.word	0x2000988c
 8000820:	08000655 	.word	0x08000655
 8000824:	08000579 	.word	0x08000579
 8000828:	080005f5 	.word	0x080005f5
 800082c:	080006dd 	.word	0x080006dd
 8000830:	08000619 	.word	0x08000619
 8000834:	08001221 	.word	0x08001221
 8000838:	080007ad 	.word	0x080007ad

0800083c <MX_ADC1_Init>:
ADC_HandleTypeDef hadc1;
DMA_HandleTypeDef hdma_adc1;

/* ADC1 init function */
void MX_ADC1_Init(void)
{
 800083c:	b510      	push	{r4, lr}
  /* USER CODE BEGIN ADC1_Init 1 */

  /* USER CODE END ADC1_Init 1 */
  /** Configure the global features of the ADC (Clock, Resolution, Data Alignment and number of conversion)
  */
  hadc1.Instance = ADC1;
 800083e:	4818      	ldr	r0, [pc, #96]	; (80008a0 <MX_ADC1_Init+0x64>)
 8000840:	4b18      	ldr	r3, [pc, #96]	; (80008a4 <MX_ADC1_Init+0x68>)
  hadc1.Init.Resolution = ADC_RESOLUTION_12B;
  hadc1.Init.ScanConvMode = DISABLE;
  hadc1.Init.ContinuousConvMode = DISABLE;
  hadc1.Init.DiscontinuousConvMode = DISABLE;
  hadc1.Init.ExternalTrigConvEdge = ADC_EXTERNALTRIGCONVEDGE_NONE;
  hadc1.Init.ExternalTrigConv = ADC_SOFTWARE_START;
 8000842:	4919      	ldr	r1, [pc, #100]	; (80008a8 <MX_ADC1_Init+0x6c>)
  hadc1.Instance = ADC1;
 8000844:	6003      	str	r3, [r0, #0]
{
 8000846:	b084      	sub	sp, #16
  hadc1.Init.ClockPrescaler = ADC_CLOCK_SYNC_PCLK_DIV4;
 8000848:	f44f 3280 	mov.w	r2, #65536	; 0x10000
  ADC_ChannelConfTypeDef sConfig = {0};
 800084c:	2300      	movs	r3, #0
  hadc1.Init.ClockPrescaler = ADC_CLOCK_SYNC_PCLK_DIV4;
 800084e:	6042      	str	r2, [r0, #4]
  hadc1.Init.DataAlign = ADC_DATAALIGN_RIGHT;
  hadc1.Init.NbrOfConversion = 1;
 8000850:	2201      	movs	r2, #1
  ADC_ChannelConfTypeDef sConfig = {0};
 8000852:	e9cd 3301 	strd	r3, r3, [sp, #4]
  hadc1.Init.ExternalTrigConv = ADC_SOFTWARE_START;
 8000856:	6281      	str	r1, [r0, #40]	; 0x28
  hadc1.Init.Resolution = ADC_RESOLUTION_12B;
 8000858:	6083      	str	r3, [r0, #8]
  ADC_ChannelConfTypeDef sConfig = {0};
 800085a:	9300      	str	r3, [sp, #0]
  hadc1.Init.ScanConvMode = DISABLE;
 800085c:	6103      	str	r3, [r0, #16]
  hadc1.Init.ContinuousConvMode = DISABLE;
 800085e:	7603      	strb	r3, [r0, #24]
  hadc1.Init.DiscontinuousConvMode = DISABLE;
 8000860:	f880 3020 	strb.w	r3, [r0, #32]
  hadc1.Init.ExternalTrigConvEdge = ADC_EXTERNALTRIGCONVEDGE_NONE;
 8000864:	62c3      	str	r3, [r0, #44]	; 0x2c
  hadc1.Init.DataAlign = ADC_DATAALIGN_RIGHT;
 8000866:	60c3      	str	r3, [r0, #12]
  hadc1.Init.DMAContinuousRequests = DISABLE;
 8000868:	f880 3030 	strb.w	r3, [r0, #48]	; 0x30
  ADC_ChannelConfTypeDef sConfig = {0};
 800086c:	9303      	str	r3, [sp, #12]
  hadc1.Init.NbrOfConversion = 1;
 800086e:	61c2      	str	r2, [r0, #28]
  hadc1.Init.EOCSelection = ADC_EOC_SINGLE_CONV;
 8000870:	6142      	str	r2, [r0, #20]
  if (HAL_ADC_Init(&hadc1) != HAL_OK)
 8000872:	f001 f91b 	bl	8001aac <HAL_ADC_Init>
 8000876:	b960      	cbnz	r0, 8000892 <MX_ADC1_Init+0x56>
  {
    Error_Handler();
  }
  /** Configure for the selected ADC regular channel its corresponding rank in the sequencer and its sample time.
  */
  sConfig.Channel = ADC_CHANNEL_2;
 8000878:	2202      	movs	r2, #2
 800087a:	2301      	movs	r3, #1
  sConfig.Rank = 1;
  sConfig.SamplingTime = ADC_SAMPLETIME_3CYCLES;
 800087c:	2400      	movs	r4, #0
  if (HAL_ADC_ConfigChannel(&hadc1, &sConfig) != HAL_OK)
 800087e:	4808      	ldr	r0, [pc, #32]	; (80008a0 <MX_ADC1_Init+0x64>)
  sConfig.SamplingTime = ADC_SAMPLETIME_3CYCLES;
 8000880:	9402      	str	r4, [sp, #8]
  if (HAL_ADC_ConfigChannel(&hadc1, &sConfig) != HAL_OK)
 8000882:	4669      	mov	r1, sp
  sConfig.Channel = ADC_CHANNEL_2;
 8000884:	e9cd 2300 	strd	r2, r3, [sp]
  if (HAL_ADC_ConfigChannel(&hadc1, &sConfig) != HAL_OK)
 8000888:	f001 fa6c 	bl	8001d64 <HAL_ADC_ConfigChannel>
 800088c:	b920      	cbnz	r0, 8000898 <MX_ADC1_Init+0x5c>
  }
  /* USER CODE BEGIN ADC1_Init 2 */

  /* USER CODE END ADC1_Init 2 */

}
 800088e:	b004      	add	sp, #16
 8000890:	bd10      	pop	{r4, pc}
    Error_Handler();
 8000892:	f000 ff01 	bl	8001698 <Error_Handler>
 8000896:	e7ef      	b.n	8000878 <MX_ADC1_Init+0x3c>
    Error_Handler();
 8000898:	f000 fefe 	bl	8001698 <Error_Handler>
}
 800089c:	b004      	add	sp, #16
 800089e:	bd10      	pop	{r4, pc}
 80008a0:	20009894 	.word	0x20009894
 80008a4:	40012000 	.word	0x40012000
 80008a8:	0f000001 	.word	0x0f000001

080008ac <HAL_ADC_MspInit>:

void HAL_ADC_MspInit(ADC_HandleTypeDef* adcHandle)
{
 80008ac:	b570      	push	{r4, r5, r6, lr}

  GPIO_InitTypeDef GPIO_InitStruct = {0};
  if(adcHandle->Instance==ADC1)
 80008ae:	6802      	ldr	r2, [r0, #0]
 80008b0:	4b24      	ldr	r3, [pc, #144]	; (8000944 <HAL_ADC_MspInit+0x98>)
{
 80008b2:	b088      	sub	sp, #32
  GPIO_InitTypeDef GPIO_InitStruct = {0};
 80008b4:	2400      	movs	r4, #0
  if(adcHandle->Instance==ADC1)
 80008b6:	429a      	cmp	r2, r3
  GPIO_InitTypeDef GPIO_InitStruct = {0};
 80008b8:	e9cd 4402 	strd	r4, r4, [sp, #8]
 80008bc:	e9cd 4404 	strd	r4, r4, [sp, #16]
 80008c0:	9406      	str	r4, [sp, #24]
  if(adcHandle->Instance==ADC1)
 80008c2:	d001      	beq.n	80008c8 <HAL_ADC_MspInit+0x1c>

  /* USER CODE BEGIN ADC1_MspInit 1 */

  /* USER CODE END ADC1_MspInit 1 */
  }
}
 80008c4:	b008      	add	sp, #32
 80008c6:	bd70      	pop	{r4, r5, r6, pc}
    __HAL_RCC_ADC1_CLK_ENABLE();
 80008c8:	f503 338c 	add.w	r3, r3, #71680	; 0x11800
 80008cc:	9400      	str	r4, [sp, #0]
 80008ce:	6c5a      	ldr	r2, [r3, #68]	; 0x44
    hdma_adc1.Instance = DMA2_Stream0;
 80008d0:	4e1d      	ldr	r6, [pc, #116]	; (8000948 <HAL_ADC_MspInit+0x9c>)
    __HAL_RCC_ADC1_CLK_ENABLE();
 80008d2:	f442 7280 	orr.w	r2, r2, #256	; 0x100
 80008d6:	645a      	str	r2, [r3, #68]	; 0x44
 80008d8:	6c5a      	ldr	r2, [r3, #68]	; 0x44
 80008da:	f402 7280 	and.w	r2, r2, #256	; 0x100
 80008de:	9200      	str	r2, [sp, #0]
 80008e0:	9a00      	ldr	r2, [sp, #0]
    __HAL_RCC_GPIOA_CLK_ENABLE();
 80008e2:	9401      	str	r4, [sp, #4]
 80008e4:	6b1a      	ldr	r2, [r3, #48]	; 0x30
 80008e6:	f042 0201 	orr.w	r2, r2, #1
 80008ea:	631a      	str	r2, [r3, #48]	; 0x30
 80008ec:	6b1b      	ldr	r3, [r3, #48]	; 0x30
    GPIO_InitStruct.Pull = GPIO_NOPULL;
 80008ee:	9404      	str	r4, [sp, #16]
    __HAL_RCC_GPIOA_CLK_ENABLE();
 80008f0:	f003 0301 	and.w	r3, r3, #1
 80008f4:	9301      	str	r3, [sp, #4]
    GPIO_InitStruct.Pin = GPIO_PIN_2;
 80008f6:	2204      	movs	r2, #4
 80008f8:	2303      	movs	r3, #3
    HAL_GPIO_Init(GPIOA, &GPIO_InitStruct);
 80008fa:	a902      	add	r1, sp, #8
 80008fc:	4605      	mov	r5, r0
    __HAL_RCC_GPIOA_CLK_ENABLE();
 80008fe:	9801      	ldr	r0, [sp, #4]
    HAL_GPIO_Init(GPIOA, &GPIO_InitStruct);
 8000900:	4812      	ldr	r0, [pc, #72]	; (800094c <HAL_ADC_MspInit+0xa0>)
    GPIO_InitStruct.Pin = GPIO_PIN_2;
 8000902:	e9cd 2302 	strd	r2, r3, [sp, #8]
    HAL_GPIO_Init(GPIOA, &GPIO_InitStruct);
 8000906:	f001 fe55 	bl	80025b4 <HAL_GPIO_Init>
    hdma_adc1.Instance = DMA2_Stream0;
 800090a:	4811      	ldr	r0, [pc, #68]	; (8000950 <HAL_ADC_MspInit+0xa4>)
 800090c:	6030      	str	r0, [r6, #0]
    hdma_adc1.Init.MemInc = DMA_MINC_ENABLE;
 800090e:	f44f 6180 	mov.w	r1, #1024	; 0x400
    hdma_adc1.Init.PeriphDataAlignment = DMA_PDATAALIGN_HALFWORD;
 8000912:	f44f 6200 	mov.w	r2, #2048	; 0x800
    hdma_adc1.Init.MemDataAlignment = DMA_MDATAALIGN_HALFWORD;
 8000916:	f44f 5300 	mov.w	r3, #8192	; 0x2000
    if (HAL_DMA_Init(&hdma_adc1) != HAL_OK)
 800091a:	4630      	mov	r0, r6
    hdma_adc1.Init.PeriphInc = DMA_PINC_DISABLE;
 800091c:	e9c6 4402 	strd	r4, r4, [r6, #8]
    hdma_adc1.Init.Priority = DMA_PRIORITY_LOW;
 8000920:	e9c6 4407 	strd	r4, r4, [r6, #28]
    hdma_adc1.Init.PeriphDataAlignment = DMA_PDATAALIGN_HALFWORD;
 8000924:	e9c6 1204 	strd	r1, r2, [r6, #16]
    hdma_adc1.Init.Channel = DMA_CHANNEL_0;
 8000928:	6074      	str	r4, [r6, #4]
    hdma_adc1.Init.FIFOMode = DMA_FIFOMODE_DISABLE;
 800092a:	6274      	str	r4, [r6, #36]	; 0x24
    hdma_adc1.Init.MemDataAlignment = DMA_MDATAALIGN_HALFWORD;
 800092c:	61b3      	str	r3, [r6, #24]
    if (HAL_DMA_Init(&hdma_adc1) != HAL_OK)
 800092e:	f001 fb99 	bl	8002064 <HAL_DMA_Init>
 8000932:	b918      	cbnz	r0, 800093c <HAL_ADC_MspInit+0x90>
    __HAL_LINKDMA(adcHandle,DMA_Handle,hdma_adc1);
 8000934:	63ae      	str	r6, [r5, #56]	; 0x38
 8000936:	63b5      	str	r5, [r6, #56]	; 0x38
}
 8000938:	b008      	add	sp, #32
 800093a:	bd70      	pop	{r4, r5, r6, pc}
      Error_Handler();
 800093c:	f000 feac 	bl	8001698 <Error_Handler>
 8000940:	e7f8      	b.n	8000934 <HAL_ADC_MspInit+0x88>
 8000942:	bf00      	nop
 8000944:	40012000 	.word	0x40012000
 8000948:	200098dc 	.word	0x200098dc
 800094c:	40020000 	.word	0x40020000
 8000950:	40026410 	.word	0x40026410

08000954 <APP_UserEvtRx>:
{
  uint32_t i;

  hci_spi_pckt *hci_pckt = (hci_spi_pckt *)pData;

  if(hci_pckt->type == HCI_EVENT_PKT)
 8000954:	7803      	ldrb	r3, [r0, #0]
 8000956:	2b04      	cmp	r3, #4
 8000958:	d000      	beq.n	800095c <APP_UserEvtRx+0x8>
 800095a:	4770      	bx	lr
{
 800095c:	b5f0      	push	{r4, r5, r6, r7, lr}
  {
    hci_event_pckt *event_pckt = (hci_event_pckt*)hci_pckt->data;

    if(event_pckt->evt == EVT_LE_META_EVENT)
 800095e:	7843      	ldrb	r3, [r0, #1]
 8000960:	2b3e      	cmp	r3, #62	; 0x3e
{
 8000962:	b083      	sub	sp, #12
 8000964:	4605      	mov	r5, r0
    if(event_pckt->evt == EVT_LE_META_EVENT)
 8000966:	d042      	beq.n	80009ee <APP_UserEvtRx+0x9a>
        {
          hci_le_meta_events_table[i].process((void *)evt->data);
        }
      }
    }
    else if(event_pckt->evt == EVT_VENDOR)
 8000968:	2bff      	cmp	r3, #255	; 0xff
 800096a:	d02f      	beq.n	80009cc <APP_UserEvtRx+0x78>
    }
    else
    {
      for (i = 0; i < (sizeof(hci_events_table)/sizeof(hci_events_table_type)); i++)
      {
        if (event_pckt->evt == hci_events_table[i].evt_code)
 800096c:	4c48      	ldr	r4, [pc, #288]	; (8000a90 <APP_UserEvtRx+0x13c>)
 800096e:	8822      	ldrh	r2, [r4, #0]
 8000970:	429a      	cmp	r2, r3
 8000972:	d103      	bne.n	800097c <APP_UserEvtRx+0x28>
        {
          hci_events_table[i].process((void *)event_pckt->data);
 8000974:	6863      	ldr	r3, [r4, #4]
 8000976:	3003      	adds	r0, #3
 8000978:	4798      	blx	r3
 800097a:	786b      	ldrb	r3, [r5, #1]
        if (event_pckt->evt == hci_events_table[i].evt_code)
 800097c:	8922      	ldrh	r2, [r4, #8]
 800097e:	4293      	cmp	r3, r2
 8000980:	d103      	bne.n	800098a <APP_UserEvtRx+0x36>
          hci_events_table[i].process((void *)event_pckt->data);
 8000982:	68e3      	ldr	r3, [r4, #12]
 8000984:	1ce8      	adds	r0, r5, #3
 8000986:	4798      	blx	r3
 8000988:	786b      	ldrb	r3, [r5, #1]
        if (event_pckt->evt == hci_events_table[i].evt_code)
 800098a:	8a22      	ldrh	r2, [r4, #16]
 800098c:	4293      	cmp	r3, r2
 800098e:	d103      	bne.n	8000998 <APP_UserEvtRx+0x44>
          hci_events_table[i].process((void *)event_pckt->data);
 8000990:	6963      	ldr	r3, [r4, #20]
 8000992:	1ce8      	adds	r0, r5, #3
 8000994:	4798      	blx	r3
 8000996:	786b      	ldrb	r3, [r5, #1]
        if (event_pckt->evt == hci_events_table[i].evt_code)
 8000998:	8b22      	ldrh	r2, [r4, #24]
 800099a:	4293      	cmp	r3, r2
 800099c:	d103      	bne.n	80009a6 <APP_UserEvtRx+0x52>
          hci_events_table[i].process((void *)event_pckt->data);
 800099e:	69e3      	ldr	r3, [r4, #28]
 80009a0:	1ce8      	adds	r0, r5, #3
 80009a2:	4798      	blx	r3
 80009a4:	786b      	ldrb	r3, [r5, #1]
        if (event_pckt->evt == hci_events_table[i].evt_code)
 80009a6:	8c22      	ldrh	r2, [r4, #32]
 80009a8:	4293      	cmp	r3, r2
 80009aa:	d103      	bne.n	80009b4 <APP_UserEvtRx+0x60>
          hci_events_table[i].process((void *)event_pckt->data);
 80009ac:	6a63      	ldr	r3, [r4, #36]	; 0x24
 80009ae:	1ce8      	adds	r0, r5, #3
 80009b0:	4798      	blx	r3
 80009b2:	786b      	ldrb	r3, [r5, #1]
        if (event_pckt->evt == hci_events_table[i].evt_code)
 80009b4:	8d22      	ldrh	r2, [r4, #40]	; 0x28
 80009b6:	4293      	cmp	r3, r2
 80009b8:	d103      	bne.n	80009c2 <APP_UserEvtRx+0x6e>
          hci_events_table[i].process((void *)event_pckt->data);
 80009ba:	6ae3      	ldr	r3, [r4, #44]	; 0x2c
 80009bc:	1ce8      	adds	r0, r5, #3
 80009be:	4798      	blx	r3
 80009c0:	786b      	ldrb	r3, [r5, #1]
        if (event_pckt->evt == hci_events_table[i].evt_code)
 80009c2:	8e22      	ldrh	r2, [r4, #48]	; 0x30
 80009c4:	4293      	cmp	r3, r2
 80009c6:	d05c      	beq.n	8000a82 <APP_UserEvtRx+0x12e>
        }
      }
    }
  }
}
 80009c8:	b003      	add	sp, #12
 80009ca:	bdf0      	pop	{r4, r5, r6, r7, pc}
 80009cc:	4c31      	ldr	r4, [pc, #196]	; (8000a94 <APP_UserEvtRx+0x140>)
          hci_vendor_specific_events_table[i].process((void *)blue_evt->data);
 80009ce:	1d47      	adds	r7, r0, #5
 80009d0:	f504 76ac 	add.w	r6, r4, #344	; 0x158
        if (blue_evt->ecode == hci_vendor_specific_events_table[i].evt_code)
 80009d4:	f8b5 2003 	ldrh.w	r2, [r5, #3]
 80009d8:	f834 3c04 	ldrh.w	r3, [r4, #-4]
 80009dc:	429a      	cmp	r2, r3
 80009de:	d102      	bne.n	80009e6 <APP_UserEvtRx+0x92>
          hci_vendor_specific_events_table[i].process((void *)blue_evt->data);
 80009e0:	6823      	ldr	r3, [r4, #0]
 80009e2:	4638      	mov	r0, r7
 80009e4:	4798      	blx	r3
      for (i = 0; i < (sizeof(hci_vendor_specific_events_table)/sizeof(hci_vendor_specific_events_table_type)); i++)
 80009e6:	3408      	adds	r4, #8
 80009e8:	42b4      	cmp	r4, r6
 80009ea:	d1f3      	bne.n	80009d4 <APP_UserEvtRx+0x80>
 80009ec:	e7ec      	b.n	80009c8 <APP_UserEvtRx+0x74>
        if (evt->subevent == hci_le_meta_events_table[i].evt_code)
 80009ee:	4c2a      	ldr	r4, [pc, #168]	; (8000a98 <APP_UserEvtRx+0x144>)
 80009f0:	78c3      	ldrb	r3, [r0, #3]
 80009f2:	8822      	ldrh	r2, [r4, #0]
 80009f4:	4293      	cmp	r3, r2
 80009f6:	d103      	bne.n	8000a00 <APP_UserEvtRx+0xac>
          hci_le_meta_events_table[i].process((void *)evt->data);
 80009f8:	6863      	ldr	r3, [r4, #4]
 80009fa:	3004      	adds	r0, #4
 80009fc:	4798      	blx	r3
 80009fe:	78eb      	ldrb	r3, [r5, #3]
        if (evt->subevent == hci_le_meta_events_table[i].evt_code)
 8000a00:	8922      	ldrh	r2, [r4, #8]
 8000a02:	4293      	cmp	r3, r2
 8000a04:	d103      	bne.n	8000a0e <APP_UserEvtRx+0xba>
          hci_le_meta_events_table[i].process((void *)evt->data);
 8000a06:	68e3      	ldr	r3, [r4, #12]
 8000a08:	1d28      	adds	r0, r5, #4
 8000a0a:	4798      	blx	r3
 8000a0c:	78eb      	ldrb	r3, [r5, #3]
        if (evt->subevent == hci_le_meta_events_table[i].evt_code)
 8000a0e:	8a22      	ldrh	r2, [r4, #16]
 8000a10:	4293      	cmp	r3, r2
 8000a12:	d103      	bne.n	8000a1c <APP_UserEvtRx+0xc8>
          hci_le_meta_events_table[i].process((void *)evt->data);
 8000a14:	6963      	ldr	r3, [r4, #20]
 8000a16:	1d28      	adds	r0, r5, #4
 8000a18:	4798      	blx	r3
 8000a1a:	78eb      	ldrb	r3, [r5, #3]
        if (evt->subevent == hci_le_meta_events_table[i].evt_code)
 8000a1c:	8b22      	ldrh	r2, [r4, #24]
 8000a1e:	4293      	cmp	r3, r2
 8000a20:	d103      	bne.n	8000a2a <APP_UserEvtRx+0xd6>
          hci_le_meta_events_table[i].process((void *)evt->data);
 8000a22:	69e3      	ldr	r3, [r4, #28]
 8000a24:	1d28      	adds	r0, r5, #4
 8000a26:	4798      	blx	r3
 8000a28:	78eb      	ldrb	r3, [r5, #3]
        if (evt->subevent == hci_le_meta_events_table[i].evt_code)
 8000a2a:	8c22      	ldrh	r2, [r4, #32]
 8000a2c:	4293      	cmp	r3, r2
 8000a2e:	d103      	bne.n	8000a38 <APP_UserEvtRx+0xe4>
          hci_le_meta_events_table[i].process((void *)evt->data);
 8000a30:	6a63      	ldr	r3, [r4, #36]	; 0x24
 8000a32:	1d28      	adds	r0, r5, #4
 8000a34:	4798      	blx	r3
 8000a36:	78eb      	ldrb	r3, [r5, #3]
        if (evt->subevent == hci_le_meta_events_table[i].evt_code)
 8000a38:	8d22      	ldrh	r2, [r4, #40]	; 0x28
 8000a3a:	4293      	cmp	r3, r2
 8000a3c:	d103      	bne.n	8000a46 <APP_UserEvtRx+0xf2>
          hci_le_meta_events_table[i].process((void *)evt->data);
 8000a3e:	6ae3      	ldr	r3, [r4, #44]	; 0x2c
 8000a40:	1d28      	adds	r0, r5, #4
 8000a42:	4798      	blx	r3
 8000a44:	78eb      	ldrb	r3, [r5, #3]
        if (evt->subevent == hci_le_meta_events_table[i].evt_code)
 8000a46:	8e22      	ldrh	r2, [r4, #48]	; 0x30
 8000a48:	4293      	cmp	r3, r2
 8000a4a:	d103      	bne.n	8000a54 <APP_UserEvtRx+0x100>
          hci_le_meta_events_table[i].process((void *)evt->data);
 8000a4c:	6b63      	ldr	r3, [r4, #52]	; 0x34
 8000a4e:	1d28      	adds	r0, r5, #4
 8000a50:	4798      	blx	r3
 8000a52:	78eb      	ldrb	r3, [r5, #3]
        if (evt->subevent == hci_le_meta_events_table[i].evt_code)
 8000a54:	8f22      	ldrh	r2, [r4, #56]	; 0x38
 8000a56:	4293      	cmp	r3, r2
 8000a58:	d103      	bne.n	8000a62 <APP_UserEvtRx+0x10e>
          hci_le_meta_events_table[i].process((void *)evt->data);
 8000a5a:	6be3      	ldr	r3, [r4, #60]	; 0x3c
 8000a5c:	1d28      	adds	r0, r5, #4
 8000a5e:	4798      	blx	r3
 8000a60:	78eb      	ldrb	r3, [r5, #3]
        if (evt->subevent == hci_le_meta_events_table[i].evt_code)
 8000a62:	f8b4 2040 	ldrh.w	r2, [r4, #64]	; 0x40
 8000a66:	4293      	cmp	r3, r2
 8000a68:	d103      	bne.n	8000a72 <APP_UserEvtRx+0x11e>
          hci_le_meta_events_table[i].process((void *)evt->data);
 8000a6a:	6c63      	ldr	r3, [r4, #68]	; 0x44
 8000a6c:	1d28      	adds	r0, r5, #4
 8000a6e:	4798      	blx	r3
 8000a70:	78eb      	ldrb	r3, [r5, #3]
        if (evt->subevent == hci_le_meta_events_table[i].evt_code)
 8000a72:	f8b4 2048 	ldrh.w	r2, [r4, #72]	; 0x48
 8000a76:	4293      	cmp	r3, r2
 8000a78:	d1a6      	bne.n	80009c8 <APP_UserEvtRx+0x74>
          hci_le_meta_events_table[i].process((void *)evt->data);
 8000a7a:	6ce3      	ldr	r3, [r4, #76]	; 0x4c
 8000a7c:	9301      	str	r3, [sp, #4]
 8000a7e:	1d28      	adds	r0, r5, #4
 8000a80:	e002      	b.n	8000a88 <APP_UserEvtRx+0x134>
          hci_events_table[i].process((void *)event_pckt->data);
 8000a82:	6b63      	ldr	r3, [r4, #52]	; 0x34
 8000a84:	9301      	str	r3, [sp, #4]
 8000a86:	1ce8      	adds	r0, r5, #3
}
 8000a88:	b003      	add	sp, #12
 8000a8a:	e8bd 40f0 	ldmia.w	sp!, {r4, r5, r6, r7, lr}
          hci_events_table[i].process((void *)event_pckt->data);
 8000a8e:	4718      	bx	r3
 8000a90:	080097c4 	.word	0x080097c4
 8000a94:	08009850 	.word	0x08009850
 8000a98:	080097fc 	.word	0x080097fc

08000a9c <BlueNRG_Init>:
{
 8000a9c:	e92d 4ff0 	stmdb	sp!, {r4, r5, r6, r7, r8, r9, sl, fp, lr}
	hci_init(APP_UserEvtRx, NULL);
 8000aa0:	2100      	movs	r1, #0
{
 8000aa2:	b0b7      	sub	sp, #220	; 0xdc
	hci_init(APP_UserEvtRx, NULL);
 8000aa4:	48d2      	ldr	r0, [pc, #840]	; (8000df0 <BlueNRG_Init+0x354>)
 8000aa6:	f005 f93d 	bl	8005d24 <hci_init>
	hci_reset();
 8000aaa:	f004 fe65 	bl	8005778 <hci_reset>
	HAL_Delay(2000);
 8000aae:	f44f 60fa 	mov.w	r0, #2000	; 0x7d0
 8000ab2:	f000 ffe9 	bl	8001a88 <HAL_Delay>
	ret = aci_hal_set_tx_power_level(1, 4);
 8000ab6:	2104      	movs	r1, #4
 8000ab8:	2001      	movs	r0, #1
 8000aba:	f005 f911 	bl	8005ce0 <aci_hal_set_tx_power_level>
	assert_param(ret == BLE_STATUS_SUCCESS);
 8000abe:	2800      	cmp	r0, #0
 8000ac0:	f040 81ec 	bne.w	8000e9c <BlueNRG_Init+0x400>
	uint8_t bdaddr[] = {0x00, 0x00, 0x00, 0xE1, 0x80, 0x02};
 8000ac4:	4bcb      	ldr	r3, [pc, #812]	; (8000df4 <BlueNRG_Init+0x358>)
 8000ac6:	e893 0003 	ldmia.w	r3, {r0, r1}
 8000aca:	902e      	str	r0, [sp, #184]	; 0xb8
	ret = hci_le_rand(random_number);
 8000acc:	a832      	add	r0, sp, #200	; 0xc8
	uint8_t bdaddr[] = {0x00, 0x00, 0x00, 0xE1, 0x80, 0x02};
 8000ace:	f8ad 10bc 	strh.w	r1, [sp, #188]	; 0xbc
	ret = hci_le_rand(random_number);
 8000ad2:	f004 fea5 	bl	8005820 <hci_le_rand>
		discovery_time += (2*random_number[i]);
 8000ad6:	f89d 10c8 	ldrb.w	r1, [sp, #200]	; 0xc8
 8000ada:	f89d 20c9 	ldrb.w	r2, [sp, #201]	; 0xc9
 8000ade:	f89d 30ca 	ldrb.w	r3, [sp, #202]	; 0xca
 8000ae2:	f89d 00cb 	ldrb.w	r0, [sp, #203]	; 0xcb
	bdaddr[0] = (uint8_t) (random_number[0]);
 8000ae6:	f88d 10b8 	strb.w	r1, [sp, #184]	; 0xb8
		discovery_time += (2*random_number[i]);
 8000aea:	440a      	add	r2, r1
 8000aec:	4413      	add	r3, r2
 8000aee:	f89d 10cc 	ldrb.w	r1, [sp, #204]	; 0xcc
 8000af2:	f89d 20cd 	ldrb.w	r2, [sp, #205]	; 0xcd
	bdaddr[1] = (uint8_t) (random_number[3]);
 8000af6:	f88d 00b9 	strb.w	r0, [sp, #185]	; 0xb9
		discovery_time += (2*random_number[i]);
 8000afa:	4403      	add	r3, r0
 8000afc:	4419      	add	r1, r3
 8000afe:	f89d 00ce 	ldrb.w	r0, [sp, #206]	; 0xce
 8000b02:	f89d 30cf 	ldrb.w	r3, [sp, #207]	; 0xcf
	bdaddr[2] = (uint8_t) (random_number[6]);
 8000b06:	f88d 00ba 	strb.w	r0, [sp, #186]	; 0xba
		discovery_time += (2*random_number[i]);
 8000b0a:	440a      	add	r2, r1
 8000b0c:	4402      	add	r2, r0
 8000b0e:	4413      	add	r3, r2
 8000b10:	48b9      	ldr	r0, [pc, #740]	; (8000df8 <BlueNRG_Init+0x35c>)
 8000b12:	005b      	lsls	r3, r3, #1
 8000b14:	f603 33b8 	addw	r3, r3, #3000	; 0xbb8
	ret = aci_hal_write_config_data(CONFIG_DATA_PUBADDR_OFFSET, CONFIG_DATA_PUBADDR_LEN, bdaddr);
 8000b18:	ac2e      	add	r4, sp, #184	; 0xb8
 8000b1a:	8003      	strh	r3, [r0, #0]
 8000b1c:	4622      	mov	r2, r4
 8000b1e:	2106      	movs	r1, #6
 8000b20:	2000      	movs	r0, #0
 8000b22:	f005 f8b3 	bl	8005c8c <aci_hal_write_config_data>
	ret = aci_gatt_init();
 8000b26:	f004 ff2b 	bl	8005980 <aci_gatt_init>
	assert_param(ret == BLE_STATUS_SUCCESS);
 8000b2a:	2800      	cmp	r0, #0
 8000b2c:	f040 81bb 	bne.w	8000ea6 <BlueNRG_Init+0x40a>
	aci_gap_init(GAP_PERIPHERAL_ROLE, GAP_PRIVACY_DISABLED, 0x17, &hGAPService, &hDevNameChar, &hAppearanceChar);
 8000b30:	4ab2      	ldr	r2, [pc, #712]	; (8000dfc <BlueNRG_Init+0x360>)
 8000b32:	4bb3      	ldr	r3, [pc, #716]	; (8000e00 <BlueNRG_Init+0x364>)
	const uint8_t char1_uuid[16] =
 8000b34:	4db3      	ldr	r5, [pc, #716]	; (8000e04 <BlueNRG_Init+0x368>)
	aci_gatt_add_service(UUID_TYPE_128, &suuid_object, PRIMARY_SERVICE, 20, &hService);
 8000b36:	4fb4      	ldr	r7, [pc, #720]	; (8000e08 <BlueNRG_Init+0x36c>)
	BLUENRG_memcpy(&char_obj_2.Char_UUID_128, char2_uuid, 16);
 8000b38:	f8df b300 	ldr.w	fp, [pc, #768]	; 8000e3c <BlueNRG_Init+0x3a0>
	BLUENRG_memcpy(&char_obj_3.Char_UUID_128, char3_uuid, 16);
 8000b3c:	f8df a300 	ldr.w	sl, [pc, #768]	; 8000e40 <BlueNRG_Init+0x3a4>
	BLUENRG_memcpy(&char_obj_4.Char_UUID_128, char4_uuid, 16);
 8000b40:	f8df 9300 	ldr.w	r9, [pc, #768]	; 8000e44 <BlueNRG_Init+0x3a8>
	BLUENRG_memcpy(&char_obj_5.Char_UUID_128, char5_uuid, 16);
 8000b44:	f8df 8300 	ldr.w	r8, [pc, #768]	; 8000e48 <BlueNRG_Init+0x3ac>
	aci_gap_init(GAP_PERIPHERAL_ROLE, GAP_PRIVACY_DISABLED, 0x17, &hGAPService, &hDevNameChar, &hAppearanceChar);
 8000b48:	e9cd 3200 	strd	r3, r2, [sp]
 8000b4c:	2100      	movs	r1, #0
 8000b4e:	4baf      	ldr	r3, [pc, #700]	; (8000e0c <BlueNRG_Init+0x370>)
 8000b50:	2217      	movs	r2, #23
 8000b52:	2001      	movs	r0, #1
 8000b54:	f004 fede 	bl	8005914 <aci_gap_init>
	const uint8_t service_uuid[16] =
 8000b58:	4bad      	ldr	r3, [pc, #692]	; (8000e10 <BlueNRG_Init+0x374>)
 8000b5a:	cb0f      	ldmia	r3, {r0, r1, r2, r3}
 8000b5c:	f10d 0c68 	add.w	ip, sp, #104	; 0x68
 8000b60:	e88c 000f 	stmia.w	ip, {r0, r1, r2, r3}
	const uint8_t char1_uuid[16] =
 8000b64:	e895 000f 	ldmia.w	r5, {r0, r1, r2, r3}
	const uint8_t char2_uuid[16] =
 8000b68:	f105 0e10 	add.w	lr, r5, #16
	const uint8_t char1_uuid[16] =
 8000b6c:	ae1e      	add	r6, sp, #120	; 0x78
 8000b6e:	e886 000f 	stmia.w	r6, {r0, r1, r2, r3}
	const uint8_t char2_uuid[16] =
 8000b72:	e89e 000f 	ldmia.w	lr, {r0, r1, r2, r3}
 8000b76:	ae22      	add	r6, sp, #136	; 0x88
	const uint8_t char3_uuid[16] =
 8000b78:	f105 0e20 	add.w	lr, r5, #32
	const uint8_t char2_uuid[16] =
 8000b7c:	e886 000f 	stmia.w	r6, {r0, r1, r2, r3}
	const uint8_t char3_uuid[16] =
 8000b80:	e89e 000f 	ldmia.w	lr, {r0, r1, r2, r3}
 8000b84:	ae26      	add	r6, sp, #152	; 0x98
	const uint8_t char4_uuid[16] =
 8000b86:	f105 0e30 	add.w	lr, r5, #48	; 0x30
	const uint8_t char3_uuid[16] =
 8000b8a:	e886 000f 	stmia.w	r6, {r0, r1, r2, r3}
	const uint8_t char4_uuid[16] =
 8000b8e:	e89e 000f 	ldmia.w	lr, {r0, r1, r2, r3}
	const uint8_t char5_uuid[16] =
 8000b92:	f105 0e40 	add.w	lr, r5, #64	; 0x40
	const uint8_t char4_uuid[16] =
 8000b96:	ad2a      	add	r5, sp, #168	; 0xa8
 8000b98:	e885 000f 	stmia.w	r5, {r0, r1, r2, r3}
	const uint8_t char5_uuid[16] =
 8000b9c:	e89e 000f 	ldmia.w	lr, {r0, r1, r2, r3}
 8000ba0:	e884 000f 	stmia.w	r4, {r0, r1, r2, r3}
	BLUENRG_memcpy(&suuid_object.Service_UUID_128, service_uuid, 16);
 8000ba4:	e8bc 000f 	ldmia.w	ip!, {r0, r1, r2, r3}
 8000ba8:	f8df c2a0 	ldr.w	ip, [pc, #672]	; 8000e4c <BlueNRG_Init+0x3b0>
	aci_gatt_add_service(UUID_TYPE_128, &suuid_object, PRIMARY_SERVICE, 20, &hService);
 8000bac:	9700      	str	r7, [sp, #0]
	BLUENRG_memcpy(&char_obj_1.Char_UUID_128, char1_uuid, 16);
 8000bae:	ae1e      	add	r6, sp, #120	; 0x78
	BLUENRG_memcpy(&suuid_object.Service_UUID_128, service_uuid, 16);
 8000bb0:	f8cc 0000 	str.w	r0, [ip]
 8000bb4:	f8cc 1004 	str.w	r1, [ip, #4]
 8000bb8:	f8cc 2008 	str.w	r2, [ip, #8]
 8000bbc:	f8cc 300c 	str.w	r3, [ip, #12]
	aci_gatt_add_service(UUID_TYPE_128, &suuid_object, PRIMARY_SERVICE, 20, &hService);
 8000bc0:	4661      	mov	r1, ip
 8000bc2:	2314      	movs	r3, #20
 8000bc4:	2201      	movs	r2, #1
 8000bc6:	2002      	movs	r0, #2
 8000bc8:	f004 fef6 	bl	80059b8 <aci_gatt_add_service>
	BLUENRG_memcpy(&char_obj_1.Char_UUID_128, char1_uuid, 16);
 8000bcc:	ce0f      	ldmia	r6!, {r0, r1, r2, r3}
 8000bce:	f8df c280 	ldr.w	ip, [pc, #640]	; 8000e50 <BlueNRG_Init+0x3b4>
	BLUENRG_memcpy(&char_obj_2.Char_UUID_128, char2_uuid, 16);
 8000bd2:	ae22      	add	r6, sp, #136	; 0x88
	BLUENRG_memcpy(&char_obj_1.Char_UUID_128, char1_uuid, 16);
 8000bd4:	f8cc 0000 	str.w	r0, [ip]
 8000bd8:	f8cc 1004 	str.w	r1, [ip, #4]
 8000bdc:	f8cc 2008 	str.w	r2, [ip, #8]
 8000be0:	f8cc 300c 	str.w	r3, [ip, #12]
	BLUENRG_memcpy(&char_obj_2.Char_UUID_128, char2_uuid, 16);
 8000be4:	ce0f      	ldmia	r6!, {r0, r1, r2, r3}
	BLUENRG_memcpy(&char_obj_3.Char_UUID_128, char3_uuid, 16);
 8000be6:	ae26      	add	r6, sp, #152	; 0x98
	BLUENRG_memcpy(&char_obj_2.Char_UUID_128, char2_uuid, 16);
 8000be8:	f8cb 0000 	str.w	r0, [fp]
 8000bec:	f8cb 1004 	str.w	r1, [fp, #4]
 8000bf0:	f8cb 2008 	str.w	r2, [fp, #8]
 8000bf4:	f8cb 300c 	str.w	r3, [fp, #12]
	BLUENRG_memcpy(&char_obj_3.Char_UUID_128, char3_uuid, 16);
 8000bf8:	ce0f      	ldmia	r6!, {r0, r1, r2, r3}
 8000bfa:	f8ca 0000 	str.w	r0, [sl]
 8000bfe:	f8ca 1004 	str.w	r1, [sl, #4]
 8000c02:	f8ca 2008 	str.w	r2, [sl, #8]
 8000c06:	f8ca 300c 	str.w	r3, [sl, #12]
	BLUENRG_memcpy(&char_obj_4.Char_UUID_128, char4_uuid, 16);
 8000c0a:	cd0f      	ldmia	r5!, {r0, r1, r2, r3}
 8000c0c:	f8c9 0000 	str.w	r0, [r9]
 8000c10:	f8c9 1004 	str.w	r1, [r9, #4]
 8000c14:	f8c9 2008 	str.w	r2, [r9, #8]
 8000c18:	f8c9 300c 	str.w	r3, [r9, #12]
	BLUENRG_memcpy(&char_obj_5.Char_UUID_128, char5_uuid, 16);
 8000c1c:	cc0f      	ldmia	r4!, {r0, r1, r2, r3}
 8000c1e:	f8c8 300c 	str.w	r3, [r8, #12]
	aci_gatt_add_char(hService, UUID_TYPE_128, &char_obj_1, 20, CHAR_PROP_NOTIFY,
 8000c22:	4b7c      	ldr	r3, [pc, #496]	; (8000e14 <BlueNRG_Init+0x378>)
	BLUENRG_memcpy(&char_obj_5.Char_UUID_128, char5_uuid, 16);
 8000c24:	f8c8 0000 	str.w	r0, [r8]
	aci_gatt_add_char(hService, UUID_TYPE_128, &char_obj_1, 20, CHAR_PROP_NOTIFY,
 8000c28:	2400      	movs	r4, #0
 8000c2a:	2607      	movs	r6, #7
 8000c2c:	2510      	movs	r5, #16
	BLUENRG_memcpy(&char_obj_5.Char_UUID_128, char5_uuid, 16);
 8000c2e:	f8c8 1004 	str.w	r1, [r8, #4]
 8000c32:	f8c8 2008 	str.w	r2, [r8, #8]
	aci_gatt_add_char(hService, UUID_TYPE_128, &char_obj_1, 20, CHAR_PROP_NOTIFY,
 8000c36:	2102      	movs	r1, #2
 8000c38:	4662      	mov	r2, ip
 8000c3a:	e9cd 4304 	strd	r4, r3, [sp, #16]
 8000c3e:	9500      	str	r5, [sp, #0]
 8000c40:	2314      	movs	r3, #20
 8000c42:	e9cd 4401 	strd	r4, r4, [sp, #4]
 8000c46:	8838      	ldrh	r0, [r7, #0]
 8000c48:	9603      	str	r6, [sp, #12]
 8000c4a:	f004 ff03 	bl	8005a54 <aci_gatt_add_char>
	aci_gatt_add_char(hService, UUID_TYPE_128, &char_obj_2, 20, CHAR_PROP_NOTIFY,
 8000c4e:	9500      	str	r5, [sp, #0]
 8000c50:	4d71      	ldr	r5, [pc, #452]	; (8000e18 <BlueNRG_Init+0x37c>)
 8000c52:	9505      	str	r5, [sp, #20]
 8000c54:	465a      	mov	r2, fp
 8000c56:	2102      	movs	r1, #2
 8000c58:	2314      	movs	r3, #20
 8000c5a:	e9cd 6403 	strd	r6, r4, [sp, #12]
 8000c5e:	e9cd 4401 	strd	r4, r4, [sp, #4]
 8000c62:	8838      	ldrh	r0, [r7, #0]
	aci_gatt_add_char(hService, UUID_TYPE_128, &char_obj_3, 20, CHAR_PROP_READ,
 8000c64:	468b      	mov	fp, r1
	aci_gatt_add_char(hService, UUID_TYPE_128, &char_obj_2, 20, CHAR_PROP_NOTIFY,
 8000c66:	f004 fef5 	bl	8005a54 <aci_gatt_add_char>
	aci_gatt_add_char(hService, UUID_TYPE_128, &char_obj_3, 20, CHAR_PROP_READ,
 8000c6a:	4b6c      	ldr	r3, [pc, #432]	; (8000e1c <BlueNRG_Init+0x380>)
 8000c6c:	9305      	str	r3, [sp, #20]
 8000c6e:	4652      	mov	r2, sl
 8000c70:	4659      	mov	r1, fp
 8000c72:	f8cd b000 	str.w	fp, [sp]
 8000c76:	2314      	movs	r3, #20
 8000c78:	e9cd 6403 	strd	r6, r4, [sp, #12]
 8000c7c:	e9cd 4401 	strd	r4, r4, [sp, #4]
 8000c80:	8838      	ldrh	r0, [r7, #0]
 8000c82:	f004 fee7 	bl	8005a54 <aci_gatt_add_char>
	aci_gatt_add_char(hService, UUID_TYPE_128, &char_obj_4, 20, CHAR_PROP_WRITE|CHAR_PROP_WRITE_WITHOUT_RESP,
 8000c86:	2501      	movs	r5, #1
 8000c88:	f04f 0c0c 	mov.w	ip, #12
 8000c8c:	4b64      	ldr	r3, [pc, #400]	; (8000e20 <BlueNRG_Init+0x384>)
 8000c8e:	f8cd c000 	str.w	ip, [sp]
 8000c92:	464a      	mov	r2, r9
 8000c94:	4659      	mov	r1, fp
 8000c96:	9305      	str	r3, [sp, #20]
 8000c98:	8838      	ldrh	r0, [r7, #0]
 8000c9a:	9404      	str	r4, [sp, #16]
 8000c9c:	2314      	movs	r3, #20
 8000c9e:	9603      	str	r6, [sp, #12]
 8000ca0:	9401      	str	r4, [sp, #4]
 8000ca2:	9502      	str	r5, [sp, #8]
 8000ca4:	f004 fed6 	bl	8005a54 <aci_gatt_add_char>
	aci_gatt_add_char(hService, UUID_TYPE_128, &char_obj_5, 20, CHAR_PROP_READ,
 8000ca8:	4b5e      	ldr	r3, [pc, #376]	; (8000e24 <BlueNRG_Init+0x388>)
 8000caa:	f8cd b000 	str.w	fp, [sp]
 8000cae:	4642      	mov	r2, r8
 8000cb0:	4659      	mov	r1, fp
 8000cb2:	9305      	str	r3, [sp, #20]
 8000cb4:	e9cd 6403 	strd	r6, r4, [sp, #12]
 8000cb8:	2314      	movs	r3, #20
 8000cba:	e9cd 4401 	strd	r4, r4, [sp, #4]
 8000cbe:	8838      	ldrh	r0, [r7, #0]
	const char char2name[] = {'W','R','N','_','C','R','A','S','H'};
 8000cc0:	f8df 8190 	ldr.w	r8, [pc, #400]	; 8000e54 <BlueNRG_Init+0x3b8>
	aci_gatt_add_char(hService, UUID_TYPE_128, &char_obj_5, 20, CHAR_PROP_READ,
 8000cc4:	f004 fec6 	bl	8005a54 <aci_gatt_add_char>
	const char char1name[] = {'W','R','N','_','S','P','E','E','D'};
 8000cc8:	4b57      	ldr	r3, [pc, #348]	; (8000e28 <BlueNRG_Init+0x38c>)
	const char char3name[] = {'R','D','_','V','E','L','O','C','I','T','Y'};
 8000cca:	f8df e18c 	ldr.w	lr, [pc, #396]	; 8000e58 <BlueNRG_Init+0x3bc>
	const char char4name[] = {'W','R','_','D','I','R','E','C','T','I','O','N'};
 8000cce:	f8df c18c 	ldr.w	ip, [pc, #396]	; 8000e5c <BlueNRG_Init+0x3c0>
	const char char1name[] = {'W','R','N','_','S','P','E','E','D'};
 8000cd2:	e893 0007 	ldmia.w	r3, {r0, r1, r2}
 8000cd6:	ab0b      	add	r3, sp, #44	; 0x2c
 8000cd8:	c303      	stmia	r3!, {r0, r1}
 8000cda:	701a      	strb	r2, [r3, #0]
	const char char2name[] = {'W','R','N','_','C','R','A','S','H'};
 8000cdc:	e898 0007 	ldmia.w	r8, {r0, r1, r2}
 8000ce0:	ab0e      	add	r3, sp, #56	; 0x38
 8000ce2:	c303      	stmia	r3!, {r0, r1}
 8000ce4:	701a      	strb	r2, [r3, #0]
	const char char3name[] = {'R','D','_','V','E','L','O','C','I','T','Y'};
 8000ce6:	e89e 0007 	ldmia.w	lr, {r0, r1, r2}
 8000cea:	ab11      	add	r3, sp, #68	; 0x44
 8000cec:	c303      	stmia	r3!, {r0, r1}
 8000cee:	ea4f 4812 	mov.w	r8, r2, lsr #16
 8000cf2:	f823 2b02 	strh.w	r2, [r3], #2
	const char char4name[] = {'W','R','_','D','I','R','E','C','T','I','O','N'};
 8000cf6:	e89c 0007 	ldmia.w	ip, {r0, r1, r2}
	const char char5name[] = {'R','D','_','D','I','R','E','C','T','I','O','N'};
 8000cfa:	f8df c164 	ldr.w	ip, [pc, #356]	; 8000e60 <BlueNRG_Init+0x3c4>
	aci_gatt_add_char_desc(hService, hClientNotify_OverSpeed, UUID_TYPE_16, &DescriptorProperty,
 8000cfe:	f8df e164 	ldr.w	lr, [pc, #356]	; 8000e64 <BlueNRG_Init+0x3c8>
	const char char3name[] = {'R','D','_','V','E','L','O','C','I','T','Y'};
 8000d02:	f883 8000 	strb.w	r8, [r3]
	const char char4name[] = {'W','R','_','D','I','R','E','C','T','I','O','N'};
 8000d06:	f10d 0a50 	add.w	sl, sp, #80	; 0x50
 8000d0a:	e88a 0007 	stmia.w	sl, {r0, r1, r2}
	const char char5name[] = {'R','D','_','D','I','R','E','C','T','I','O','N'};
 8000d0e:	e89c 0007 	ldmia.w	ip, {r0, r1, r2}
 8000d12:	f10d 095c 	add.w	r9, sp, #92	; 0x5c
	DescriptorProperty.Char_UUID_16 = CHAR_USER_DESC_UUID;
 8000d16:	f642 1c01 	movw	ip, #10497	; 0x2901
	const char char5name[] = {'R','D','_','D','I','R','E','C','T','I','O','N'};
 8000d1a:	e889 0007 	stmia.w	r9, {r0, r1, r2}
	DescriptorProperty.Char_UUID_16 = CHAR_USER_DESC_UUID;
 8000d1e:	f8ad c0c8 	strh.w	ip, [sp, #200]	; 0xc8
	aci_gatt_add_char_desc(hService, hClientNotify_OverSpeed, UUID_TYPE_16, &DescriptorProperty,
 8000d22:	e9cd 4e07 	strd	r4, lr, [sp, #28]
 8000d26:	e9cd 4605 	strd	r4, r6, [sp, #20]
 8000d2a:	e9cd 4503 	strd	r4, r5, [sp, #12]
 8000d2e:	4939      	ldr	r1, [pc, #228]	; (8000e14 <BlueNRG_Init+0x378>)
 8000d30:	8838      	ldrh	r0, [r7, #0]
 8000d32:	8809      	ldrh	r1, [r1, #0]
 8000d34:	f04f 0880 	mov.w	r8, #128	; 0x80
 8000d38:	f04f 0b09 	mov.w	fp, #9
 8000d3c:	f10d 0cc8 	add.w	ip, sp, #200	; 0xc8
 8000d40:	ab0b      	add	r3, sp, #44	; 0x2c
 8000d42:	e9cd b301 	strd	fp, r3, [sp, #4]
 8000d46:	462a      	mov	r2, r5
 8000d48:	4663      	mov	r3, ip
 8000d4a:	f8cd 8000 	str.w	r8, [sp]
 8000d4e:	f004 fee7 	bl	8005b20 <aci_gatt_add_char_desc>
	aci_gatt_add_char_desc(hService, hClientNotify_Crash, UUID_TYPE_16, &DescriptorProperty,
 8000d52:	e9cd 8b00 	strd	r8, fp, [sp]
 8000d56:	e9cd 4605 	strd	r4, r6, [sp, #20]
 8000d5a:	e9cd 4503 	strd	r4, r5, [sp, #12]
 8000d5e:	492e      	ldr	r1, [pc, #184]	; (8000e18 <BlueNRG_Init+0x37c>)
 8000d60:	4a32      	ldr	r2, [pc, #200]	; (8000e2c <BlueNRG_Init+0x390>)
 8000d62:	9407      	str	r4, [sp, #28]
 8000d64:	f10d 0cc8 	add.w	ip, sp, #200	; 0xc8
 8000d68:	ab0e      	add	r3, sp, #56	; 0x38
 8000d6a:	8809      	ldrh	r1, [r1, #0]
 8000d6c:	8838      	ldrh	r0, [r7, #0]
 8000d6e:	9208      	str	r2, [sp, #32]
 8000d70:	9302      	str	r3, [sp, #8]
 8000d72:	462a      	mov	r2, r5
 8000d74:	4663      	mov	r3, ip
 8000d76:	f004 fed3 	bl	8005b20 <aci_gatt_add_char_desc>
	aci_gatt_add_char_desc(hService, hClientRead_Velocity, UUID_TYPE_16, &DescriptorProperty,
 8000d7a:	e9cd 4605 	strd	r4, r6, [sp, #20]
 8000d7e:	e9cd 4503 	strd	r4, r5, [sp, #12]
 8000d82:	4926      	ldr	r1, [pc, #152]	; (8000e1c <BlueNRG_Init+0x380>)
 8000d84:	4a2a      	ldr	r2, [pc, #168]	; (8000e30 <BlueNRG_Init+0x394>)
 8000d86:	9407      	str	r4, [sp, #28]
 8000d88:	f10d 0cc8 	add.w	ip, sp, #200	; 0xc8
 8000d8c:	f04f 0b0b 	mov.w	fp, #11
 8000d90:	ab11      	add	r3, sp, #68	; 0x44
 8000d92:	f8cd 8000 	str.w	r8, [sp]
 8000d96:	8809      	ldrh	r1, [r1, #0]
 8000d98:	8838      	ldrh	r0, [r7, #0]
 8000d9a:	9208      	str	r2, [sp, #32]
 8000d9c:	e9cd b301 	strd	fp, r3, [sp, #4]
 8000da0:	462a      	mov	r2, r5
 8000da2:	4663      	mov	r3, ip
 8000da4:	f004 febc 	bl	8005b20 <aci_gatt_add_char_desc>
	aci_gatt_add_char_desc(hService, hClientWrite_Direction, UUID_TYPE_16, &DescriptorProperty,
 8000da8:	e9cd 6406 	strd	r6, r4, [sp, #24]
 8000dac:	491c      	ldr	r1, [pc, #112]	; (8000e20 <BlueNRG_Init+0x384>)
 8000dae:	4a21      	ldr	r2, [pc, #132]	; (8000e34 <BlueNRG_Init+0x398>)
 8000db0:	f8cd a008 	str.w	sl, [sp, #8]
 8000db4:	f04f 0c03 	mov.w	ip, #3
 8000db8:	230a      	movs	r3, #10
 8000dba:	9405      	str	r4, [sp, #20]
 8000dbc:	9403      	str	r4, [sp, #12]
 8000dbe:	f8cd 8000 	str.w	r8, [sp]
 8000dc2:	8809      	ldrh	r1, [r1, #0]
 8000dc4:	8838      	ldrh	r0, [r7, #0]
 8000dc6:	9208      	str	r2, [sp, #32]
 8000dc8:	f8cd c010 	str.w	ip, [sp, #16]
 8000dcc:	462a      	mov	r2, r5
 8000dce:	9301      	str	r3, [sp, #4]
 8000dd0:	ab32      	add	r3, sp, #200	; 0xc8
 8000dd2:	f004 fea5 	bl	8005b20 <aci_gatt_add_char_desc>
	aci_gatt_add_char_desc(hService, hClientRead_VerifyDirection, UUID_TYPE_16, &DescriptorProperty,
 8000dd6:	e9cd 6406 	strd	r6, r4, [sp, #24]
 8000dda:	e9cd 5404 	strd	r5, r4, [sp, #16]
 8000dde:	e9cd 9402 	strd	r9, r4, [sp, #8]
 8000de2:	e9cd 8b00 	strd	r8, fp, [sp]
 8000de6:	490f      	ldr	r1, [pc, #60]	; (8000e24 <BlueNRG_Init+0x388>)
 8000de8:	4b13      	ldr	r3, [pc, #76]	; (8000e38 <BlueNRG_Init+0x39c>)
 8000dea:	8809      	ldrh	r1, [r1, #0]
 8000dec:	e03c      	b.n	8000e68 <BlueNRG_Init+0x3cc>
 8000dee:	bf00      	nop
 8000df0:	08000955 	.word	0x08000955
 8000df4:	080093c8 	.word	0x080093c8
 8000df8:	2000018e 	.word	0x2000018e
 8000dfc:	20000190 	.word	0x20000190
 8000e00:	2000019c 	.word	0x2000019c
 8000e04:	080093d0 	.word	0x080093d0
 8000e08:	200001a8 	.word	0x200001a8
 8000e0c:	200001a4 	.word	0x200001a4
 8000e10:	0800944c 	.word	0x0800944c
 8000e14:	20000194 	.word	0x20000194
 8000e18:	20000192 	.word	0x20000192
 8000e1c:	20000196 	.word	0x20000196
 8000e20:	2000019a 	.word	0x2000019a
 8000e24:	20000198 	.word	0x20000198
 8000e28:	08009460 	.word	0x08009460
 8000e2c:	200001a6 	.word	0x200001a6
 8000e30:	200001aa 	.word	0x200001aa
 8000e34:	200001a2 	.word	0x200001a2
 8000e38:	2000019e 	.word	0x2000019e
 8000e3c:	200099a0 	.word	0x200099a0
 8000e40:	20009970 	.word	0x20009970
 8000e44:	2000993c 	.word	0x2000993c
 8000e48:	20009990 	.word	0x20009990
 8000e4c:	20009980 	.word	0x20009980
 8000e50:	20009960 	.word	0x20009960
 8000e54:	0800946c 	.word	0x0800946c
 8000e58:	08009478 	.word	0x08009478
 8000e5c:	08009484 	.word	0x08009484
 8000e60:	08009494 	.word	0x08009494
 8000e64:	200001a0 	.word	0x200001a0
 8000e68:	8838      	ldrh	r0, [r7, #0]
 8000e6a:	9308      	str	r3, [sp, #32]
 8000e6c:	462a      	mov	r2, r5
 8000e6e:	ab32      	add	r3, sp, #200	; 0xc8
 8000e70:	f004 fe56 	bl	8005b20 <aci_gatt_add_char_desc>
	if(FunctionAlreadyCalled == SET)
 8000e74:	4a19      	ldr	r2, [pc, #100]	; (8000edc <BlueNRG_Init+0x440>)
	Conn_Details.deviceRole = 0xFF;
 8000e76:	4b1a      	ldr	r3, [pc, #104]	; (8000ee0 <BlueNRG_Init+0x444>)
	if(FunctionAlreadyCalled == SET)
 8000e78:	7812      	ldrb	r2, [r2, #0]
	Conn_Details.ConnectionStatus = STATE_NOT_CONNECTED;
 8000e7a:	741c      	strb	r4, [r3, #16]
	Conn_Details.connectionhandle = 0xFFFF;
 8000e7c:	f04f 31ff 	mov.w	r1, #4294967295
	Conn_Details.deviceRole = 0xFF;
 8000e80:	20ff      	movs	r0, #255	; 0xff
	if(FunctionAlreadyCalled == SET)
 8000e82:	42aa      	cmp	r2, r5
	BLUENRG_memset(&Conn_Details.BLE_Client_Addr[0], 0, 6);
 8000e84:	601c      	str	r4, [r3, #0]
 8000e86:	809c      	strh	r4, [r3, #4]
	Conn_Details.deviceRole = 0xFF;
 8000e88:	7198      	strb	r0, [r3, #6]
	Conn_Details.connectionhandle = 0xFFFF;
 8000e8a:	6099      	str	r1, [r3, #8]
 8000e8c:	60d9      	str	r1, [r3, #12]
	if(FunctionAlreadyCalled == SET)
 8000e8e:	d00f      	beq.n	8000eb0 <BlueNRG_Init+0x414>
	FunctionAlreadyCalled = SET;
 8000e90:	4a12      	ldr	r2, [pc, #72]	; (8000edc <BlueNRG_Init+0x440>)
 8000e92:	2301      	movs	r3, #1
 8000e94:	7013      	strb	r3, [r2, #0]
}
 8000e96:	b037      	add	sp, #220	; 0xdc
 8000e98:	e8bd 8ff0 	ldmia.w	sp!, {r4, r5, r6, r7, r8, r9, sl, fp, pc}
	assert_param(ret == BLE_STATUS_SUCCESS);
 8000e9c:	4811      	ldr	r0, [pc, #68]	; (8000ee4 <BlueNRG_Init+0x448>)
 8000e9e:	2164      	movs	r1, #100	; 0x64
 8000ea0:	f000 fbfc 	bl	800169c <assert_failed>
 8000ea4:	e60e      	b.n	8000ac4 <BlueNRG_Init+0x28>
	assert_param(ret == BLE_STATUS_SUCCESS);
 8000ea6:	480f      	ldr	r0, [pc, #60]	; (8000ee4 <BlueNRG_Init+0x448>)
 8000ea8:	216b      	movs	r1, #107	; 0x6b
 8000eaa:	f000 fbf7 	bl	800169c <assert_failed>
 8000eae:	e63f      	b.n	8000b30 <BlueNRG_Init+0x94>
		xTaskNotifyFromISR(h_TaskBLEConn, FRTOS_TASK_NOTIF_BLE_DISCONNECTED, eSetBits, &xHigherPriorityTaskWoken);
 8000eb0:	490d      	ldr	r1, [pc, #52]	; (8000ee8 <BlueNRG_Init+0x44c>)
		BaseType_t xHigherPriorityTaskWoken = pdFALSE;
 8000eb2:	9432      	str	r4, [sp, #200]	; 0xc8
		xTaskNotifyFromISR(h_TaskBLEConn, FRTOS_TASK_NOTIF_BLE_DISCONNECTED, eSetBits, &xHigherPriorityTaskWoken);
 8000eb4:	ab32      	add	r3, sp, #200	; 0xc8
 8000eb6:	9300      	str	r3, [sp, #0]
 8000eb8:	6808      	ldr	r0, [r1, #0]
 8000eba:	4623      	mov	r3, r4
 8000ebc:	4611      	mov	r1, r2
 8000ebe:	f006 fd61 	bl	8007984 <xTaskGenericNotifyFromISR>
		portYIELD_FROM_ISR(xHigherPriorityTaskWoken);
 8000ec2:	9b32      	ldr	r3, [sp, #200]	; 0xc8
 8000ec4:	2b00      	cmp	r3, #0
 8000ec6:	d0e3      	beq.n	8000e90 <BlueNRG_Init+0x3f4>
 8000ec8:	4b08      	ldr	r3, [pc, #32]	; (8000eec <BlueNRG_Init+0x450>)
 8000eca:	f04f 5280 	mov.w	r2, #268435456	; 0x10000000
 8000ece:	601a      	str	r2, [r3, #0]
 8000ed0:	f3bf 8f4f 	dsb	sy
 8000ed4:	f3bf 8f6f 	isb	sy
 8000ed8:	e7da      	b.n	8000e90 <BlueNRG_Init+0x3f4>
 8000eda:	bf00      	nop
 8000edc:	2000018b 	.word	0x2000018b
 8000ee0:	2000994c 	.word	0x2000994c
 8000ee4:	08009430 	.word	0x08009430
 8000ee8:	200099b0 	.word	0x200099b0
 8000eec:	e000ed04 	.word	0xe000ed04

08000ef0 <BlueNRG_MakeDeviceDiscoverable>:
{
 8000ef0:	b570      	push	{r4, r5, r6, lr}
	const char local_name[] = {AD_TYPE_COMPLETE_LOCAL_NAME, 'F','R','T','S','B','L','E','-','C','a','r'};
 8000ef2:	4b1a      	ldr	r3, [pc, #104]	; (8000f5c <BlueNRG_MakeDeviceDiscoverable+0x6c>)
	uint8_t uuidscanresponse[18] =
 8000ef4:	4d1a      	ldr	r5, [pc, #104]	; (8000f60 <BlueNRG_MakeDeviceDiscoverable+0x70>)
	const char local_name[] = {AD_TYPE_COMPLETE_LOCAL_NAME, 'F','R','T','S','B','L','E','-','C','a','r'};
 8000ef6:	e893 0007 	ldmia.w	r3, {r0, r1, r2}
{
 8000efa:	b090      	sub	sp, #64	; 0x40
	const char local_name[] = {AD_TYPE_COMPLETE_LOCAL_NAME, 'F','R','T','S','B','L','E','-','C','a','r'};
 8000efc:	ae08      	add	r6, sp, #32
 8000efe:	e886 0007 	stmia.w	r6, {r0, r1, r2}
	hci_le_set_scan_response_data(0, NULL);
 8000f02:	2100      	movs	r1, #0
 8000f04:	4608      	mov	r0, r1
 8000f06:	f004 fc51 	bl	80057ac <hci_le_set_scan_response_data>
	uint8_t uuidscanresponse[18] =
 8000f0a:	cd0f      	ldmia	r5!, {r0, r1, r2, r3}
 8000f0c:	ac0b      	add	r4, sp, #44	; 0x2c
 8000f0e:	c40f      	stmia	r4!, {r0, r1, r2, r3}
 8000f10:	682b      	ldr	r3, [r5, #0]
 8000f12:	8023      	strh	r3, [r4, #0]
	hci_le_set_scan_response_data(18, uuidscanresponse);
 8000f14:	a90b      	add	r1, sp, #44	; 0x2c
 8000f16:	2012      	movs	r0, #18
 8000f18:	f004 fc48 	bl	80057ac <hci_le_set_scan_response_data>
	ret = aci_gap_set_discoverable(ADV_IND, ADV_INTERV_MIN, ADV_INTERV_MAX, PUBLIC_ADDR,
 8000f1c:	2300      	movs	r3, #0
 8000f1e:	220c      	movs	r2, #12
 8000f20:	9201      	str	r2, [sp, #4]
 8000f22:	e9cd 3305 	strd	r3, r3, [sp, #20]
 8000f26:	e9cd 3303 	strd	r3, r3, [sp, #12]
 8000f2a:	9602      	str	r6, [sp, #8]
 8000f2c:	9300      	str	r3, [sp, #0]
 8000f2e:	4618      	mov	r0, r3
 8000f30:	f44f 72a0 	mov.w	r2, #320	; 0x140
 8000f34:	21a0      	movs	r1, #160	; 0xa0
 8000f36:	f004 fc99 	bl	800586c <aci_gap_set_discoverable>
	assert_param(ret == BLE_STATUS_SUCCESS);
 8000f3a:	b920      	cbnz	r0, 8000f46 <BlueNRG_MakeDeviceDiscoverable+0x56>
	Conn_Details.ConnectionStatus = STATE_AWAITING_CONNECTION;
 8000f3c:	4b09      	ldr	r3, [pc, #36]	; (8000f64 <BlueNRG_MakeDeviceDiscoverable+0x74>)
 8000f3e:	2211      	movs	r2, #17
 8000f40:	741a      	strb	r2, [r3, #16]
}
 8000f42:	b010      	add	sp, #64	; 0x40
 8000f44:	bd70      	pop	{r4, r5, r6, pc}
	assert_param(ret == BLE_STATUS_SUCCESS);
 8000f46:	4808      	ldr	r0, [pc, #32]	; (8000f68 <BlueNRG_MakeDeviceDiscoverable+0x78>)
 8000f48:	f44f 71e9 	mov.w	r1, #466	; 0x1d2
 8000f4c:	f000 fba6 	bl	800169c <assert_failed>
	Conn_Details.ConnectionStatus = STATE_AWAITING_CONNECTION;
 8000f50:	4b04      	ldr	r3, [pc, #16]	; (8000f64 <BlueNRG_MakeDeviceDiscoverable+0x74>)
 8000f52:	2211      	movs	r2, #17
 8000f54:	741a      	strb	r2, [r3, #16]
}
 8000f56:	b010      	add	sp, #64	; 0x40
 8000f58:	bd70      	pop	{r4, r5, r6, pc}
 8000f5a:	bf00      	nop
 8000f5c:	080094a4 	.word	0x080094a4
 8000f60:	080094b4 	.word	0x080094b4
 8000f64:	2000994c 	.word	0x2000994c
 8000f68:	08009430 	.word	0x08009430

08000f6c <hci_le_connection_complete_event>:
                                      uint16_t Conn_Interval,
                                      uint16_t Conn_Latency,
                                      uint16_t Supervision_Timeout,
                                      uint8_t Master_Clock_Accuracy)

{
 8000f6c:	b570      	push	{r4, r5, r6, lr}
 8000f6e:	b084      	sub	sp, #16
	static FlagStatus FunctionAlreadyCalled = RESET;

	/* This callback function/event only saves connection handle */
	Conn_Details.connectionhandle = Connection_Handle;
 8000f70:	4b19      	ldr	r3, [pc, #100]	; (8000fd8 <hci_le_connection_complete_event+0x6c>)
{
 8000f72:	9808      	ldr	r0, [sp, #32]
	Conn_Details.connectionhandle = Connection_Handle;
 8000f74:	8119      	strh	r1, [r3, #8]

	/* Role should be slave: 0x01 (if 0x00, it is master and incorrect in this example project) */
	Conn_Details.deviceRole = Role;
 8000f76:	719a      	strb	r2, [r3, #6]
	Conn_Details.BLE_SupervisionTimeout = Supervision_Timeout;

	/* Update connection status to connected */
	Conn_Details.ConnectionStatus = STATE_CONNECTED;

	if(FunctionAlreadyCalled == SET)
 8000f78:	4c18      	ldr	r4, [pc, #96]	; (8000fdc <hci_le_connection_complete_event+0x70>)
	BLUENRG_memcpy(&Conn_Details.BLE_Client_Addr, Peer_Address, 6);
 8000f7a:	6802      	ldr	r2, [r0, #0]
 8000f7c:	601a      	str	r2, [r3, #0]
	if(FunctionAlreadyCalled == SET)
 8000f7e:	7822      	ldrb	r2, [r4, #0]
	BLUENRG_memcpy(&Conn_Details.BLE_Client_Addr, Peer_Address, 6);
 8000f80:	8881      	ldrh	r1, [r0, #4]
{
 8000f82:	f8bd 6024 	ldrh.w	r6, [sp, #36]	; 0x24
 8000f86:	f8bd 5028 	ldrh.w	r5, [sp, #40]	; 0x28
 8000f8a:	f8bd 002c 	ldrh.w	r0, [sp, #44]	; 0x2c
	BLUENRG_memcpy(&Conn_Details.BLE_Client_Addr, Peer_Address, 6);
 8000f8e:	8099      	strh	r1, [r3, #4]
	if(FunctionAlreadyCalled == SET)
 8000f90:	2a01      	cmp	r2, #1
	Conn_Details.ConnectionStatus = STATE_CONNECTED;
 8000f92:	f04f 0199 	mov.w	r1, #153	; 0x99
	Conn_Details.BLE_ConnInterval = Conn_Interval;
 8000f96:	815e      	strh	r6, [r3, #10]
	Conn_Details.BLE_ConnLatency = Conn_Latency;
 8000f98:	819d      	strh	r5, [r3, #12]
	Conn_Details.BLE_SupervisionTimeout = Supervision_Timeout;
 8000f9a:	81d8      	strh	r0, [r3, #14]
	Conn_Details.ConnectionStatus = STATE_CONNECTED;
 8000f9c:	7419      	strb	r1, [r3, #16]
	if(FunctionAlreadyCalled == SET)
 8000f9e:	d003      	beq.n	8000fa8 <hci_le_connection_complete_event+0x3c>
		   is pdFALSE */
		portYIELD_FROM_ISR(xHigherPriorityTaskWoken);
	}

	/* Indication that function is called already, and can send notifications to FreeRTOS tasks next time it is executed */
	FunctionAlreadyCalled = SET;
 8000fa0:	2301      	movs	r3, #1
 8000fa2:	7023      	strb	r3, [r4, #0]
} /* end hci_le_connection_complete_event() */
 8000fa4:	b004      	add	sp, #16
 8000fa6:	bd70      	pop	{r4, r5, r6, pc}
		xTaskNotifyFromISR(h_TaskBLEConn, FRTOS_TASK_NOTIF_BLE_CONNECTED, eSetBits, &xHigherPriorityTaskWoken);
 8000fa8:	480d      	ldr	r0, [pc, #52]	; (8000fe0 <hci_le_connection_complete_event+0x74>)
 8000faa:	a903      	add	r1, sp, #12
		BaseType_t xHigherPriorityTaskWoken = pdFALSE;
 8000fac:	2300      	movs	r3, #0
		xTaskNotifyFromISR(h_TaskBLEConn, FRTOS_TASK_NOTIF_BLE_CONNECTED, eSetBits, &xHigherPriorityTaskWoken);
 8000fae:	6800      	ldr	r0, [r0, #0]
 8000fb0:	9100      	str	r1, [sp, #0]
 8000fb2:	2102      	movs	r1, #2
		BaseType_t xHigherPriorityTaskWoken = pdFALSE;
 8000fb4:	9303      	str	r3, [sp, #12]
		xTaskNotifyFromISR(h_TaskBLEConn, FRTOS_TASK_NOTIF_BLE_CONNECTED, eSetBits, &xHigherPriorityTaskWoken);
 8000fb6:	f006 fce5 	bl	8007984 <xTaskGenericNotifyFromISR>
		portYIELD_FROM_ISR(xHigherPriorityTaskWoken);
 8000fba:	9b03      	ldr	r3, [sp, #12]
 8000fbc:	2b00      	cmp	r3, #0
 8000fbe:	d0ef      	beq.n	8000fa0 <hci_le_connection_complete_event+0x34>
 8000fc0:	4b08      	ldr	r3, [pc, #32]	; (8000fe4 <hci_le_connection_complete_event+0x78>)
 8000fc2:	f04f 5280 	mov.w	r2, #268435456	; 0x10000000
 8000fc6:	601a      	str	r2, [r3, #0]
 8000fc8:	f3bf 8f4f 	dsb	sy
 8000fcc:	f3bf 8f6f 	isb	sy
	FunctionAlreadyCalled = SET;
 8000fd0:	2301      	movs	r3, #1
 8000fd2:	7023      	strb	r3, [r4, #0]
} /* end hci_le_connection_complete_event() */
 8000fd4:	b004      	add	sp, #16
 8000fd6:	bd70      	pop	{r4, r5, r6, pc}
 8000fd8:	2000994c 	.word	0x2000994c
 8000fdc:	2000018c 	.word	0x2000018c
 8000fe0:	200099b0 	.word	0x200099b0
 8000fe4:	e000ed04 	.word	0xe000ed04

08000fe8 <hci_disconnection_complete_event>:
 * Return         : See file bluenrg1_events.h
 *******************************************************************************/
void hci_disconnection_complete_event(uint8_t Status,
                                      uint16_t Connection_Handle,
                                      uint8_t Reason)
{
 8000fe8:	b530      	push	{r4, r5, lr}
	if(FunctionAlreadyCalled == SET)
 8000fea:	4c15      	ldr	r4, [pc, #84]	; (8001040 <hci_disconnection_complete_event+0x58>)
	Conn_Details.deviceRole = 0xFF;
 8000fec:	4915      	ldr	r1, [pc, #84]	; (8001044 <hci_disconnection_complete_event+0x5c>)
	if(FunctionAlreadyCalled == SET)
 8000fee:	7822      	ldrb	r2, [r4, #0]
	Conn_Details.ConnectionStatus = STATE_NOT_CONNECTED;
 8000ff0:	2300      	movs	r3, #0
	Conn_Details.connectionhandle = 0xFFFF;
 8000ff2:	f04f 30ff 	mov.w	r0, #4294967295
	Conn_Details.deviceRole = 0xFF;
 8000ff6:	25ff      	movs	r5, #255	; 0xff
	if(FunctionAlreadyCalled == SET)
 8000ff8:	2a01      	cmp	r2, #1
{
 8000ffa:	b085      	sub	sp, #20
	Conn_Details.deviceRole = 0xFF;
 8000ffc:	718d      	strb	r5, [r1, #6]
	Conn_Details.connectionhandle = 0xFFFF;
 8000ffe:	6088      	str	r0, [r1, #8]
 8001000:	60c8      	str	r0, [r1, #12]
	Conn_Details.ConnectionStatus = STATE_NOT_CONNECTED;
 8001002:	740b      	strb	r3, [r1, #16]
	BLUENRG_memset(&Conn_Details.BLE_Client_Addr[0], 0, 6);
 8001004:	600b      	str	r3, [r1, #0]
 8001006:	808b      	strh	r3, [r1, #4]
	if(FunctionAlreadyCalled == SET)
 8001008:	d003      	beq.n	8001012 <hci_disconnection_complete_event+0x2a>
	FunctionAlreadyCalled = SET;
 800100a:	2301      	movs	r3, #1
 800100c:	7023      	strb	r3, [r4, #0]
	/* Resets all connectivity status details */
	Server_ResetConnectionStatus();

} /* end hci_disconnection_complete_event() */
 800100e:	b005      	add	sp, #20
 8001010:	bd30      	pop	{r4, r5, pc}
		xTaskNotifyFromISR(h_TaskBLEConn, FRTOS_TASK_NOTIF_BLE_DISCONNECTED, eSetBits, &xHigherPriorityTaskWoken);
 8001012:	480d      	ldr	r0, [pc, #52]	; (8001048 <hci_disconnection_complete_event+0x60>)
		BaseType_t xHigherPriorityTaskWoken = pdFALSE;
 8001014:	9303      	str	r3, [sp, #12]
		xTaskNotifyFromISR(h_TaskBLEConn, FRTOS_TASK_NOTIF_BLE_DISCONNECTED, eSetBits, &xHigherPriorityTaskWoken);
 8001016:	a903      	add	r1, sp, #12
 8001018:	6800      	ldr	r0, [r0, #0]
 800101a:	9100      	str	r1, [sp, #0]
 800101c:	4611      	mov	r1, r2
 800101e:	f006 fcb1 	bl	8007984 <xTaskGenericNotifyFromISR>
		portYIELD_FROM_ISR(xHigherPriorityTaskWoken);
 8001022:	9b03      	ldr	r3, [sp, #12]
 8001024:	2b00      	cmp	r3, #0
 8001026:	d0f0      	beq.n	800100a <hci_disconnection_complete_event+0x22>
 8001028:	4b08      	ldr	r3, [pc, #32]	; (800104c <hci_disconnection_complete_event+0x64>)
 800102a:	f04f 5280 	mov.w	r2, #268435456	; 0x10000000
 800102e:	601a      	str	r2, [r3, #0]
 8001030:	f3bf 8f4f 	dsb	sy
 8001034:	f3bf 8f6f 	isb	sy
	FunctionAlreadyCalled = SET;
 8001038:	2301      	movs	r3, #1
 800103a:	7023      	strb	r3, [r4, #0]
} /* end hci_disconnection_complete_event() */
 800103c:	b005      	add	sp, #20
 800103e:	bd30      	pop	{r4, r5, pc}
 8001040:	2000018b 	.word	0x2000018b
 8001044:	2000994c 	.word	0x2000994c
 8001048:	200099b0 	.word	0x200099b0
 800104c:	e000ed04 	.word	0xe000ed04

08001050 <aci_gatt_notification_event>:
                                 uint8_t Attribute_Value_Length,
                                 uint8_t Attribute_Value[])
{


} /* end aci_gatt_notification_event() */
 8001050:	4770      	bx	lr
 8001052:	bf00      	nop

08001054 <aci_gatt_attribute_modified_event>:
                                       uint8_t Attr_Data[])
{

	/* Determine which characteristic was modified by Client (Indicate and Notify characteristics
	   are modified by Client only if Client acknowledges these features on Server) */
	if(Attr_Handle == hClientWrite_Direction+1)
 8001054:	4a16      	ldr	r2, [pc, #88]	; (80010b0 <aci_gatt_attribute_modified_event+0x5c>)
 8001056:	8812      	ldrh	r2, [r2, #0]
 8001058:	3201      	adds	r2, #1
 800105a:	4291      	cmp	r1, r2
 800105c:	d000      	beq.n	8001060 <aci_gatt_attribute_modified_event+0xc>
 800105e:	4770      	bx	lr
	{
		if(Attr_Data_Length >= 1)
 8001060:	2b00      	cmp	r3, #0
 8001062:	d0fc      	beq.n	800105e <aci_gatt_attribute_modified_event+0xa>
{
 8001064:	b510      	push	{r4, lr}
 8001066:	b084      	sub	sp, #16
		{
			if((Attr_Data[0] == 0x4E)||((Attr_Data[0] == 0x6E)))
 8001068:	9b06      	ldr	r3, [sp, #24]
 800106a:	781b      	ldrb	r3, [r3, #0]
 800106c:	f003 03df 	and.w	r3, r3, #223	; 0xdf
 8001070:	2b4e      	cmp	r3, #78	; 0x4e
 8001072:	d007      	beq.n	8001084 <aci_gatt_attribute_modified_event+0x30>

				/* Notify ACK to master through fifth characteristic (verify direction) printing 'NORTH'*/
				uint8_t buff[6] = {0x4E, 0x4F, 0x52, 0x54, 0x48, 0x00};
				aci_gatt_update_char_value(hService, hClientRead_VerifyDirection, 0, 6, buff);
			}
			else if((Attr_Data[0] == 0x45)||((Attr_Data[0] == 0x65)))
 8001074:	2b45      	cmp	r3, #69	; 0x45
 8001076:	d019      	beq.n	80010ac <aci_gatt_attribute_modified_event+0x58>

				/* Notify ACK to master through fifth characteristic (verify direction) printing 'EAST' */
				uint8_t buff[6] = {0x45, 0x41, 0x53, 0x54, 0x00, 0x00};
				aci_gatt_update_char_value(hService, hClientRead_VerifyDirection, 0, 6, buff);
			}
			else if((Attr_Data[0] == 0x53)||((Attr_Data[0] == 0x73)))
 8001078:	2b53      	cmp	r3, #83	; 0x53
 800107a:	d015      	beq.n	80010a8 <aci_gatt_attribute_modified_event+0x54>

				/* Notify ACK to master through fifth characteristic (verify direction) printing 'SOUTH' */
				uint8_t buff[6] = {0x53, 0x4F, 0x55, 0x54, 0x48, 0x00};
				aci_gatt_update_char_value(hService, hClientRead_VerifyDirection, 0, 6, buff);
			}
			else if((Attr_Data[0] == 0x57)||(Attr_Data[0] == 0x77))
 800107c:	2b57      	cmp	r3, #87	; 0x57
 800107e:	d111      	bne.n	80010a4 <aci_gatt_attribute_modified_event+0x50>
			{
				/* If input character is 'W' or 'w' representing West or left */

				/* Notify ACK to master through fifth characteristic (verify direction) printing 'WEST' */
				uint8_t buff[6] = {0x57, 0x45, 0x53, 0x54, 0x00, 0x00};
 8001080:	4b0c      	ldr	r3, [pc, #48]	; (80010b4 <aci_gatt_attribute_modified_event+0x60>)
 8001082:	e000      	b.n	8001086 <aci_gatt_attribute_modified_event+0x32>
				uint8_t buff[6] = {0x4E, 0x4F, 0x52, 0x54, 0x48, 0x00};
 8001084:	4b0c      	ldr	r3, [pc, #48]	; (80010b8 <aci_gatt_attribute_modified_event+0x64>)
				aci_gatt_update_char_value(hService, hClientRead_VerifyDirection, 0, 6, buff);
 8001086:	4a0d      	ldr	r2, [pc, #52]	; (80010bc <aci_gatt_attribute_modified_event+0x68>)
 8001088:	4c0d      	ldr	r4, [pc, #52]	; (80010c0 <aci_gatt_attribute_modified_event+0x6c>)
				uint8_t buff[6] = {0x57, 0x45, 0x53, 0x54, 0x00, 0x00};
 800108a:	e893 0003 	ldmia.w	r3, {r0, r1}
				aci_gatt_update_char_value(hService, hClientRead_VerifyDirection, 0, 6, buff);
 800108e:	ab02      	add	r3, sp, #8
				uint8_t buff[6] = {0x57, 0x45, 0x53, 0x54, 0x00, 0x00};
 8001090:	9002      	str	r0, [sp, #8]
 8001092:	f8ad 100c 	strh.w	r1, [sp, #12]
				aci_gatt_update_char_value(hService, hClientRead_VerifyDirection, 0, 6, buff);
 8001096:	8811      	ldrh	r1, [r2, #0]
 8001098:	8820      	ldrh	r0, [r4, #0]
 800109a:	9300      	str	r3, [sp, #0]
 800109c:	2200      	movs	r2, #0
 800109e:	2306      	movs	r3, #6
 80010a0:	f004 fdc4 	bl	8005c2c <aci_gatt_update_char_value>
			}
		}
	}

} /* end aci_gatt_attribute_modified_event() */
 80010a4:	b004      	add	sp, #16
 80010a6:	bd10      	pop	{r4, pc}
				uint8_t buff[6] = {0x53, 0x4F, 0x55, 0x54, 0x48, 0x00};
 80010a8:	4b06      	ldr	r3, [pc, #24]	; (80010c4 <aci_gatt_attribute_modified_event+0x70>)
 80010aa:	e7ec      	b.n	8001086 <aci_gatt_attribute_modified_event+0x32>
				uint8_t buff[6] = {0x45, 0x41, 0x53, 0x54, 0x00, 0x00};
 80010ac:	4b06      	ldr	r3, [pc, #24]	; (80010c8 <aci_gatt_attribute_modified_event+0x74>)
 80010ae:	e7ea      	b.n	8001086 <aci_gatt_attribute_modified_event+0x32>
 80010b0:	2000019a 	.word	0x2000019a
 80010b4:	08009428 	.word	0x08009428
 80010b8:	080094c8 	.word	0x080094c8
 80010bc:	20000198 	.word	0x20000198
 80010c0:	200001a8 	.word	0x200001a8
 80010c4:	080094d0 	.word	0x080094d0
 80010c8:	08009420 	.word	0x08009420

080010cc <Task_BlinkLEDIndicator>:
 * @param
 * @retval
 * @note
 */
static void Task_BlinkLEDIndicator(void *argument)
{
 80010cc:	b510      	push	{r4, lr}
		/* Perform accurate blocking delay */
		LastActiveTime = xTaskGetTickCount();
		vTaskDelayUntil(&LastActiveTime, DelayFrequency);

		/* Toggle LED every 1 second */
		HAL_GPIO_TogglePin(NUCLEO_LED_GPIO_Port, NUCLEO_LED_Pin);
 80010ce:	4c09      	ldr	r4, [pc, #36]	; (80010f4 <Task_BlinkLEDIndicator+0x28>)
{
 80010d0:	b082      	sub	sp, #8
		Task2_RSS = uxTaskGetStackHighWaterMark(NULL);
 80010d2:	2000      	movs	r0, #0
 80010d4:	f006 fb84 	bl	80077e0 <uxTaskGetStackHighWaterMark>
		LastActiveTime = xTaskGetTickCount();
 80010d8:	f006 f96e 	bl	80073b8 <xTaskGetTickCount>
		vTaskDelayUntil(&LastActiveTime, DelayFrequency);
 80010dc:	f44f 717a 	mov.w	r1, #1000	; 0x3e8
		LastActiveTime = xTaskGetTickCount();
 80010e0:	4603      	mov	r3, r0
		vTaskDelayUntil(&LastActiveTime, DelayFrequency);
 80010e2:	a801      	add	r0, sp, #4
		LastActiveTime = xTaskGetTickCount();
 80010e4:	9301      	str	r3, [sp, #4]
		vTaskDelayUntil(&LastActiveTime, DelayFrequency);
 80010e6:	f005 ffe1 	bl	80070ac <vTaskDelayUntil>
		HAL_GPIO_TogglePin(NUCLEO_LED_GPIO_Port, NUCLEO_LED_Pin);
 80010ea:	2120      	movs	r1, #32
 80010ec:	4620      	mov	r0, r4
 80010ee:	f001 fc93 	bl	8002a18 <HAL_GPIO_TogglePin>
	while(1)
 80010f2:	e7ee      	b.n	80010d2 <Task_BlinkLEDIndicator+0x6>
 80010f4:	40020000 	.word	0x40020000

080010f8 <Task_ParseBLEMessage>:
{
 80010f8:	b508      	push	{r3, lr}
		hci_user_evt_proc();
 80010fa:	f004 ff35 	bl	8005f68 <hci_user_evt_proc>
		uint32_t NotificationValue = ulTaskNotifyTake(pdTRUE, portMAX_DELAY);
 80010fe:	f04f 31ff 	mov.w	r1, #4294967295
 8001102:	2001      	movs	r0, #1
 8001104:	f006 fbdc 	bl	80078c0 <ulTaskNotifyTake>
		Task1_RSS = uxTaskGetStackHighWaterMark(NULL);
 8001108:	2000      	movs	r0, #0
 800110a:	f006 fb69 	bl	80077e0 <uxTaskGetStackHighWaterMark>
	while(1)
 800110e:	e7f4      	b.n	80010fa <Task_ParseBLEMessage+0x2>

08001110 <Task_ManageBLEConnections>:
{
 8001110:	b538      	push	{r3, r4, r5, lr}
	BlueNRG_Init();
 8001112:	f7ff fcc3 	bl	8000a9c <BlueNRG_Init>
	BlueNRG_MakeDeviceDiscoverable();
 8001116:	f7ff feeb 	bl	8000ef0 <BlueNRG_MakeDeviceDiscoverable>
 800111a:	4d0d      	ldr	r5, [pc, #52]	; (8001150 <Task_ManageBLEConnections+0x40>)
		hci_user_evt_proc();
 800111c:	f004 ff24 	bl	8005f68 <hci_user_evt_proc>
		NotificationValue = ulTaskNotifyTake(pdTRUE, portMAX_DELAY);
 8001120:	f04f 31ff 	mov.w	r1, #4294967295
 8001124:	2001      	movs	r0, #1
 8001126:	f006 fbcb 	bl	80078c0 <ulTaskNotifyTake>
 800112a:	4604      	mov	r4, r0
		Task0_RSS = uxTaskGetStackHighWaterMark(NULL);
 800112c:	2000      	movs	r0, #0
 800112e:	f006 fb57 	bl	80077e0 <uxTaskGetStackHighWaterMark>
		if(NotificationValue & FRTOS_TASK_NOTIF_BLE_CONNECTED)
 8001132:	07a2      	lsls	r2, r4, #30
 8001134:	d503      	bpl.n	800113e <Task_ManageBLEConnections+0x2e>
			vTaskResume(h_TaskBLEMsg);
 8001136:	6828      	ldr	r0, [r5, #0]
 8001138:	f006 f836 	bl	80071a8 <vTaskResume>
 800113c:	e7ee      	b.n	800111c <Task_ManageBLEConnections+0xc>
		else if(NotificationValue & FRTOS_TASK_NOTIF_BLE_DISCONNECTED)
 800113e:	07e3      	lsls	r3, r4, #31
 8001140:	d5ec      	bpl.n	800111c <Task_ManageBLEConnections+0xc>
			vTaskSuspend(h_TaskBLEMsg);
 8001142:	6828      	ldr	r0, [r5, #0]
 8001144:	f006 f99c 	bl	8007480 <vTaskSuspend>
			BlueNRG_MakeDeviceDiscoverable();
 8001148:	f7ff fed2 	bl	8000ef0 <BlueNRG_MakeDeviceDiscoverable>
 800114c:	e7e6      	b.n	800111c <Task_ManageBLEConnections+0xc>
 800114e:	bf00      	nop
 8001150:	200001ac 	.word	0x200001ac

08001154 <FRTOS_Init_Tasks>:
{
 8001154:	b500      	push	{lr}
 8001156:	b083      	sub	sp, #12
	TaskCreationStatus = xTaskCreate( Task_ManageBLEConnections,
 8001158:	4b1c      	ldr	r3, [pc, #112]	; (80011cc <FRTOS_Init_Tasks+0x78>)
 800115a:	9301      	str	r3, [sp, #4]
 800115c:	232e      	movs	r3, #46	; 0x2e
 800115e:	9300      	str	r3, [sp, #0]
 8001160:	491b      	ldr	r1, [pc, #108]	; (80011d0 <FRTOS_Init_Tasks+0x7c>)
 8001162:	481c      	ldr	r0, [pc, #112]	; (80011d4 <FRTOS_Init_Tasks+0x80>)
 8001164:	2300      	movs	r3, #0
 8001166:	f44f 6280 	mov.w	r2, #1024	; 0x400
 800116a:	f005 ff6b 	bl	8007044 <xTaskCreate>
	assert_param(TaskCreationStatus == pdPASS);
 800116e:	2801      	cmp	r0, #1
 8001170:	d003      	beq.n	800117a <FRTOS_Init_Tasks+0x26>
 8001172:	4819      	ldr	r0, [pc, #100]	; (80011d8 <FRTOS_Init_Tasks+0x84>)
 8001174:	216a      	movs	r1, #106	; 0x6a
 8001176:	f000 fa91 	bl	800169c <assert_failed>
	TaskCreationStatus = xTaskCreate( Task_ParseBLEMessage,
 800117a:	4b18      	ldr	r3, [pc, #96]	; (80011dc <FRTOS_Init_Tasks+0x88>)
 800117c:	9301      	str	r3, [sp, #4]
 800117e:	232d      	movs	r3, #45	; 0x2d
 8001180:	9300      	str	r3, [sp, #0]
 8001182:	4917      	ldr	r1, [pc, #92]	; (80011e0 <FRTOS_Init_Tasks+0x8c>)
 8001184:	4817      	ldr	r0, [pc, #92]	; (80011e4 <FRTOS_Init_Tasks+0x90>)
 8001186:	2300      	movs	r3, #0
 8001188:	f44f 6280 	mov.w	r2, #1024	; 0x400
 800118c:	f005 ff5a 	bl	8007044 <xTaskCreate>
	assert_param(TaskCreationStatus == pdPASS);
 8001190:	2801      	cmp	r0, #1
 8001192:	d003      	beq.n	800119c <FRTOS_Init_Tasks+0x48>
 8001194:	4810      	ldr	r0, [pc, #64]	; (80011d8 <FRTOS_Init_Tasks+0x84>)
 8001196:	2175      	movs	r1, #117	; 0x75
 8001198:	f000 fa80 	bl	800169c <assert_failed>
	TaskCreationStatus = xTaskCreate( Task_BlinkLEDIndicator,
 800119c:	4b12      	ldr	r3, [pc, #72]	; (80011e8 <FRTOS_Init_Tasks+0x94>)
 800119e:	9301      	str	r3, [sp, #4]
 80011a0:	231e      	movs	r3, #30
 80011a2:	9300      	str	r3, [sp, #0]
 80011a4:	4911      	ldr	r1, [pc, #68]	; (80011ec <FRTOS_Init_Tasks+0x98>)
 80011a6:	4812      	ldr	r0, [pc, #72]	; (80011f0 <FRTOS_Init_Tasks+0x9c>)
 80011a8:	2300      	movs	r3, #0
 80011aa:	f44f 7280 	mov.w	r2, #256	; 0x100
 80011ae:	f005 ff49 	bl	8007044 <xTaskCreate>
	assert_param(TaskCreationStatus == pdPASS);
 80011b2:	2801      	cmp	r0, #1
 80011b4:	d102      	bne.n	80011bc <FRTOS_Init_Tasks+0x68>
}
 80011b6:	b003      	add	sp, #12
 80011b8:	f85d fb04 	ldr.w	pc, [sp], #4
	assert_param(TaskCreationStatus == pdPASS);
 80011bc:	4806      	ldr	r0, [pc, #24]	; (80011d8 <FRTOS_Init_Tasks+0x84>)
 80011be:	217f      	movs	r1, #127	; 0x7f
}
 80011c0:	b003      	add	sp, #12
 80011c2:	f85d eb04 	ldr.w	lr, [sp], #4
	assert_param(TaskCreationStatus == pdPASS);
 80011c6:	f000 ba69 	b.w	800169c <assert_failed>
 80011ca:	bf00      	nop
 80011cc:	200099b0 	.word	0x200099b0
 80011d0:	080094d8 	.word	0x080094d8
 80011d4:	08001111 	.word	0x08001111
 80011d8:	080094f0 	.word	0x080094f0
 80011dc:	200001ac 	.word	0x200001ac
 80011e0:	08009510 	.word	0x08009510
 80011e4:	080010f9 	.word	0x080010f9
 80011e8:	200001b0 	.word	0x200001b0
 80011ec:	08009524 	.word	0x08009524
 80011f0:	080010cd 	.word	0x080010cd

080011f4 <BSP_SPI1_SendRecv>:
  * @param  pData: Pointer to data buffer to send/receive
  * @param  Length: Length of data in byte
  * @retval BSP status
  */
int32_t BSP_SPI1_SendRecv(uint8_t *pTxData, uint8_t *pRxData, uint16_t Length)
{
 80011f4:	b530      	push	{r4, r5, lr}
 80011f6:	b083      	sub	sp, #12
 80011f8:	460d      	mov	r5, r1
  int32_t ret = BSP_ERROR_NONE;

  if(HAL_SPI_TransmitReceive(&hspi1, pTxData, pRxData, Length, BUS_SPI1_POLL_TIMEOUT) != HAL_OK)
 80011fa:	f44f 5480 	mov.w	r4, #4096	; 0x1000
{
 80011fe:	4613      	mov	r3, r2
  if(HAL_SPI_TransmitReceive(&hspi1, pTxData, pRxData, Length, BUS_SPI1_POLL_TIMEOUT) != HAL_OK)
 8001200:	4601      	mov	r1, r0
 8001202:	462a      	mov	r2, r5
 8001204:	9400      	str	r4, [sp, #0]
 8001206:	4805      	ldr	r0, [pc, #20]	; (800121c <BSP_SPI1_SendRecv+0x28>)
 8001208:	f003 f922 	bl	8004450 <HAL_SPI_TransmitReceive>
 800120c:	2800      	cmp	r0, #0
  {
      ret = BSP_ERROR_UNKNOWN_FAILURE;
  }
  return ret;
}
 800120e:	bf14      	ite	ne
 8001210:	f06f 0005 	mvnne.w	r0, #5
 8001214:	2000      	moveq	r0, #0
 8001216:	b003      	add	sp, #12
 8001218:	bd30      	pop	{r4, r5, pc}
 800121a:	bf00      	nop
 800121c:	200099b4 	.word	0x200099b4

08001220 <BSP_GetTick>:
/**
  * @brief  Return system tick in ms
  * @retval Current HAL time base time stamp
  */
int32_t BSP_GetTick(void) {
  return HAL_GetTick();
 8001220:	f000 bc2c 	b.w	8001a7c <HAL_GetTick>

08001224 <MX_SPI1_Init>:
/* SPI1 init function */

__weak HAL_StatusTypeDef MX_SPI1_Init(SPI_HandleTypeDef* hspi)
{
  HAL_StatusTypeDef ret = HAL_OK;
  hspi->Instance = SPI1;
 8001224:	4a0d      	ldr	r2, [pc, #52]	; (800125c <MX_SPI1_Init+0x38>)
{
 8001226:	b538      	push	{r3, r4, r5, lr}
  hspi->Init.Mode = SPI_MODE_MASTER;
 8001228:	f44f 7182 	mov.w	r1, #260	; 0x104
  hspi->Instance = SPI1;
 800122c:	6002      	str	r2, [r0, #0]
  hspi->Init.Direction = SPI_DIRECTION_2LINES;
  hspi->Init.DataSize = SPI_DATASIZE_8BIT;
  hspi->Init.CLKPolarity = SPI_POLARITY_LOW;
  hspi->Init.CLKPhase = SPI_PHASE_2EDGE;
 800122e:	2201      	movs	r2, #1
  hspi->Init.NSS = SPI_NSS_SOFT;
 8001230:	f44f 7500 	mov.w	r5, #512	; 0x200
  hspi->Init.BaudRatePrescaler = SPI_BAUDRATEPRESCALER_128;
 8001234:	2430      	movs	r4, #48	; 0x30
  hspi->Init.Mode = SPI_MODE_MASTER;
 8001236:	6041      	str	r1, [r0, #4]
  hspi->Init.CLKPhase = SPI_PHASE_2EDGE;
 8001238:	6142      	str	r2, [r0, #20]
  hspi->Init.FirstBit = SPI_FIRSTBIT_MSB;
  hspi->Init.TIMode = SPI_TIMODE_DISABLE;
  hspi->Init.CRCCalculation = SPI_CRCCALCULATION_DISABLE;
  hspi->Init.CRCPolynomial = 10;
 800123a:	210a      	movs	r1, #10
  hspi->Init.Direction = SPI_DIRECTION_2LINES;
 800123c:	2200      	movs	r2, #0
  hspi->Init.BaudRatePrescaler = SPI_BAUDRATEPRESCALER_128;
 800123e:	e9c0 5406 	strd	r5, r4, [r0, #24]
  hspi->Init.DataSize = SPI_DATASIZE_8BIT;
 8001242:	e9c0 2202 	strd	r2, r2, [r0, #8]
  hspi->Init.TIMode = SPI_TIMODE_DISABLE;
 8001246:	e9c0 2208 	strd	r2, r2, [r0, #32]
  hspi->Init.CRCPolynomial = 10;
 800124a:	62c1      	str	r1, [r0, #44]	; 0x2c
  hspi->Init.CLKPolarity = SPI_POLARITY_LOW;
 800124c:	6102      	str	r2, [r0, #16]
  hspi->Init.CRCCalculation = SPI_CRCCALCULATION_DISABLE;
 800124e:	6282      	str	r2, [r0, #40]	; 0x28
  if (HAL_SPI_Init(hspi) != HAL_OK)
 8001250:	f002 fffa 	bl	8004248 <HAL_SPI_Init>
  {
    ret = HAL_ERROR;
  }

  return ret;
}
 8001254:	3800      	subs	r0, #0
 8001256:	bf18      	it	ne
 8001258:	2001      	movne	r0, #1
 800125a:	bd38      	pop	{r3, r4, r5, pc}
 800125c:	40013000 	.word	0x40013000

08001260 <BSP_SPI1_Init>:
{
 8001260:	b5f0      	push	{r4, r5, r6, r7, lr}
  if(SPI1InitCounter++ == 0)
 8001262:	4a2f      	ldr	r2, [pc, #188]	; (8001320 <BSP_SPI1_Init+0xc0>)
  hspi1.Instance  = SPI1;
 8001264:	4c2f      	ldr	r4, [pc, #188]	; (8001324 <BSP_SPI1_Init+0xc4>)
  if(SPI1InitCounter++ == 0)
 8001266:	6813      	ldr	r3, [r2, #0]
  hspi1.Instance  = SPI1;
 8001268:	492f      	ldr	r1, [pc, #188]	; (8001328 <BSP_SPI1_Init+0xc8>)
 800126a:	6021      	str	r1, [r4, #0]
  if(SPI1InitCounter++ == 0)
 800126c:	1c59      	adds	r1, r3, #1
{
 800126e:	b08b      	sub	sp, #44	; 0x2c
  if(SPI1InitCounter++ == 0)
 8001270:	6011      	str	r1, [r2, #0]
 8001272:	b113      	cbz	r3, 800127a <BSP_SPI1_Init+0x1a>
  int32_t ret = BSP_ERROR_NONE;
 8001274:	2000      	movs	r0, #0
}
 8001276:	b00b      	add	sp, #44	; 0x2c
 8001278:	bdf0      	pop	{r4, r5, r6, r7, pc}
	if (HAL_SPI_GetState(&hspi1) == HAL_SPI_STATE_RESET)
 800127a:	4620      	mov	r0, r4
 800127c:	f003 fa80 	bl	8004780 <HAL_SPI_GetState>
 8001280:	4603      	mov	r3, r0
 8001282:	2800      	cmp	r0, #0
 8001284:	d1f6      	bne.n	8001274 <BSP_SPI1_Init+0x14>
  GPIO_InitTypeDef GPIO_InitStruct;
  /* USER CODE BEGIN SPI1_MspInit 0 */

  /* USER CODE END SPI1_MspInit 0 */
    /* Enable Peripheral clock */
    __HAL_RCC_SPI1_CLK_ENABLE();
 8001286:	4a29      	ldr	r2, [pc, #164]	; (800132c <BSP_SPI1_Init+0xcc>)
 8001288:	9001      	str	r0, [sp, #4]
 800128a:	6c51      	ldr	r1, [r2, #68]	; 0x44
    GPIO_InitStruct.Pin = BUS_SPI1_MISO_GPIO_PIN;
    GPIO_InitStruct.Mode = GPIO_MODE_AF_PP;
    GPIO_InitStruct.Pull = GPIO_NOPULL;
    GPIO_InitStruct.Speed = GPIO_SPEED_FREQ_VERY_HIGH;
    GPIO_InitStruct.Alternate = BUS_SPI1_MISO_GPIO_AF;
    HAL_GPIO_Init(BUS_SPI1_MISO_GPIO_PORT, &GPIO_InitStruct);
 800128c:	4828      	ldr	r0, [pc, #160]	; (8001330 <BSP_SPI1_Init+0xd0>)
    __HAL_RCC_SPI1_CLK_ENABLE();
 800128e:	f441 5180 	orr.w	r1, r1, #4096	; 0x1000
 8001292:	6451      	str	r1, [r2, #68]	; 0x44
 8001294:	6c51      	ldr	r1, [r2, #68]	; 0x44
 8001296:	f401 5180 	and.w	r1, r1, #4096	; 0x1000
 800129a:	9101      	str	r1, [sp, #4]
 800129c:	9901      	ldr	r1, [sp, #4]
    __HAL_RCC_GPIOA_CLK_ENABLE();
 800129e:	9302      	str	r3, [sp, #8]
 80012a0:	6b11      	ldr	r1, [r2, #48]	; 0x30
 80012a2:	f041 0101 	orr.w	r1, r1, #1
 80012a6:	6311      	str	r1, [r2, #48]	; 0x30
 80012a8:	6b11      	ldr	r1, [r2, #48]	; 0x30
 80012aa:	f001 0101 	and.w	r1, r1, #1
 80012ae:	9102      	str	r1, [sp, #8]
 80012b0:	9902      	ldr	r1, [sp, #8]
    __HAL_RCC_GPIOB_CLK_ENABLE();
 80012b2:	9303      	str	r3, [sp, #12]
 80012b4:	6b13      	ldr	r3, [r2, #48]	; 0x30
 80012b6:	f043 0302 	orr.w	r3, r3, #2
 80012ba:	6313      	str	r3, [r2, #48]	; 0x30
 80012bc:	6b13      	ldr	r3, [r2, #48]	; 0x30
 80012be:	f003 0302 	and.w	r3, r3, #2
 80012c2:	9303      	str	r3, [sp, #12]
    GPIO_InitStruct.Pin = BUS_SPI1_MISO_GPIO_PIN;
 80012c4:	2240      	movs	r2, #64	; 0x40
 80012c6:	2302      	movs	r3, #2
 80012c8:	2600      	movs	r6, #0
 80012ca:	2703      	movs	r7, #3
    GPIO_InitStruct.Alternate = BUS_SPI1_MISO_GPIO_AF;
 80012cc:	2505      	movs	r5, #5
    HAL_GPIO_Init(BUS_SPI1_MISO_GPIO_PORT, &GPIO_InitStruct);
 80012ce:	a904      	add	r1, sp, #16
    GPIO_InitStruct.Pin = BUS_SPI1_MISO_GPIO_PIN;
 80012d0:	e9cd 2304 	strd	r2, r3, [sp, #16]
    __HAL_RCC_GPIOB_CLK_ENABLE();
 80012d4:	f8dd c00c 	ldr.w	ip, [sp, #12]
    GPIO_InitStruct.Alternate = BUS_SPI1_MISO_GPIO_AF;
 80012d8:	9508      	str	r5, [sp, #32]
    GPIO_InitStruct.Pin = BUS_SPI1_MISO_GPIO_PIN;
 80012da:	e9cd 6706 	strd	r6, r7, [sp, #24]
    HAL_GPIO_Init(BUS_SPI1_MISO_GPIO_PORT, &GPIO_InitStruct);
 80012de:	f001 f969 	bl	80025b4 <HAL_GPIO_Init>

    GPIO_InitStruct.Pin = BUS_SPI1_MOSI_GPIO_PIN;
 80012e2:	2280      	movs	r2, #128	; 0x80
 80012e4:	2302      	movs	r3, #2
    GPIO_InitStruct.Mode = GPIO_MODE_AF_PP;
    GPIO_InitStruct.Pull = GPIO_NOPULL;
    GPIO_InitStruct.Speed = GPIO_SPEED_FREQ_VERY_HIGH;
    GPIO_InitStruct.Alternate = BUS_SPI1_MOSI_GPIO_AF;
    HAL_GPIO_Init(BUS_SPI1_MOSI_GPIO_PORT, &GPIO_InitStruct);
 80012e6:	4812      	ldr	r0, [pc, #72]	; (8001330 <BSP_SPI1_Init+0xd0>)
    GPIO_InitStruct.Alternate = BUS_SPI1_MOSI_GPIO_AF;
 80012e8:	9508      	str	r5, [sp, #32]
    HAL_GPIO_Init(BUS_SPI1_MOSI_GPIO_PORT, &GPIO_InitStruct);
 80012ea:	a904      	add	r1, sp, #16
    GPIO_InitStruct.Pin = BUS_SPI1_MOSI_GPIO_PIN;
 80012ec:	e9cd 2304 	strd	r2, r3, [sp, #16]
 80012f0:	e9cd 6706 	strd	r6, r7, [sp, #24]
    HAL_GPIO_Init(BUS_SPI1_MOSI_GPIO_PORT, &GPIO_InitStruct);
 80012f4:	f001 f95e 	bl	80025b4 <HAL_GPIO_Init>
    GPIO_InitStruct.Pin = BUS_SPI1_SCK_GPIO_PIN;
    GPIO_InitStruct.Mode = GPIO_MODE_AF_PP;
    GPIO_InitStruct.Pull = GPIO_NOPULL;
    GPIO_InitStruct.Speed = GPIO_SPEED_FREQ_VERY_HIGH;
    GPIO_InitStruct.Alternate = BUS_SPI1_SCK_GPIO_AF;
    HAL_GPIO_Init(BUS_SPI1_SCK_GPIO_PORT, &GPIO_InitStruct);
 80012f8:	480e      	ldr	r0, [pc, #56]	; (8001334 <BSP_SPI1_Init+0xd4>)
    GPIO_InitStruct.Alternate = BUS_SPI1_SCK_GPIO_AF;
 80012fa:	9508      	str	r5, [sp, #32]
    GPIO_InitStruct.Pin = BUS_SPI1_SCK_GPIO_PIN;
 80012fc:	2208      	movs	r2, #8
 80012fe:	2302      	movs	r3, #2
    HAL_GPIO_Init(BUS_SPI1_SCK_GPIO_PORT, &GPIO_InitStruct);
 8001300:	a904      	add	r1, sp, #16
    GPIO_InitStruct.Pin = BUS_SPI1_SCK_GPIO_PIN;
 8001302:	e9cd 6706 	strd	r6, r7, [sp, #24]
 8001306:	e9cd 2304 	strd	r2, r3, [sp, #16]
    HAL_GPIO_Init(BUS_SPI1_SCK_GPIO_PORT, &GPIO_InitStruct);
 800130a:	f001 f953 	bl	80025b4 <HAL_GPIO_Init>
			if (MX_SPI1_Init(&hspi1) != HAL_OK)
 800130e:	4620      	mov	r0, r4
 8001310:	f7ff ff88 	bl	8001224 <MX_SPI1_Init>
 8001314:	2800      	cmp	r0, #0
 8001316:	d0ad      	beq.n	8001274 <BSP_SPI1_Init+0x14>
				ret = BSP_ERROR_BUS_FAILURE;
 8001318:	f06f 0007 	mvn.w	r0, #7
  return ret;
 800131c:	e7ab      	b.n	8001276 <BSP_SPI1_Init+0x16>
 800131e:	bf00      	nop
 8001320:	200001b4 	.word	0x200001b4
 8001324:	200099b4 	.word	0x200099b4
 8001328:	40013000 	.word	0x40013000
 800132c:	40023800 	.word	0x40023800
 8001330:	40020000 	.word	0x40020000
 8001334:	40020400 	.word	0x40020400

08001338 <MX_DMA_Init>:

/**
  * Enable DMA controller clock
  */
void MX_DMA_Init(void)
{
 8001338:	b500      	push	{lr}
 800133a:	b083      	sub	sp, #12

  /* DMA controller clock enable */
  __HAL_RCC_DMA2_CLK_ENABLE();
 800133c:	4b0a      	ldr	r3, [pc, #40]	; (8001368 <MX_DMA_Init+0x30>)
 800133e:	2200      	movs	r2, #0
 8001340:	9201      	str	r2, [sp, #4]
 8001342:	6b19      	ldr	r1, [r3, #48]	; 0x30
 8001344:	f441 0180 	orr.w	r1, r1, #4194304	; 0x400000
 8001348:	6319      	str	r1, [r3, #48]	; 0x30
 800134a:	6b1b      	ldr	r3, [r3, #48]	; 0x30
 800134c:	f403 0380 	and.w	r3, r3, #4194304	; 0x400000
 8001350:	9301      	str	r3, [sp, #4]

  /* DMA interrupt init */
  /* DMA2_Stream0_IRQn interrupt configuration */
  HAL_NVIC_SetPriority(DMA2_Stream0_IRQn, 5, 0);
 8001352:	2105      	movs	r1, #5
 8001354:	2038      	movs	r0, #56	; 0x38
  __HAL_RCC_DMA2_CLK_ENABLE();
 8001356:	9b01      	ldr	r3, [sp, #4]
  HAL_NVIC_SetPriority(DMA2_Stream0_IRQn, 5, 0);
 8001358:	f000 fe0c 	bl	8001f74 <HAL_NVIC_SetPriority>
  HAL_NVIC_EnableIRQ(DMA2_Stream0_IRQn);
 800135c:	2038      	movs	r0, #56	; 0x38

}
 800135e:	b003      	add	sp, #12
 8001360:	f85d eb04 	ldr.w	lr, [sp], #4
  HAL_NVIC_EnableIRQ(DMA2_Stream0_IRQn);
 8001364:	f000 be50 	b.w	8002008 <HAL_NVIC_EnableIRQ>
 8001368:	40023800 	.word	0x40023800

0800136c <configureTimerForRunTimeStats>:
/* USER CODE BEGIN 1 */
/* Functions needed when configGENERATE_RUN_TIME_STATS is on */
__weak void configureTimerForRunTimeStats(void)
{

}
 800136c:	4770      	bx	lr
 800136e:	bf00      	nop

08001370 <getRunTimeCounterValue>:

__weak unsigned long getRunTimeCounterValue(void)
{
return 0;
}
 8001370:	2000      	movs	r0, #0
 8001372:	4770      	bx	lr

08001374 <vApplicationIdleHook>:
	important that vApplicationIdleHook() is permitted to return to its calling
	function, because it is the responsibility of the idle task to clean up
	memory allocated by the kernel to any task that has since been deleted. */


	hci_user_evt_proc();
 8001374:	f004 bdf8 	b.w	8005f68 <hci_user_evt_proc>

08001378 <vApplicationMallocFailedHook>:
 8001378:	4770      	bx	lr
 800137a:	bf00      	nop

0800137c <MX_FREERTOS_Init>:

  /* USER CODE BEGIN RTOS_EVENTS */

  /* USER CODE END RTOS_EVENTS */

}
 800137c:	4770      	bx	lr
 800137e:	bf00      	nop

08001380 <MX_GPIO_Init>:
        * EXTI
        * Free pins are configured automatically as Analog (this feature is enabled through
        * the Code Generation settings)
*/
void MX_GPIO_Init(void)
{
 8001380:	b5f0      	push	{r4, r5, r6, r7, lr}

  GPIO_InitTypeDef GPIO_InitStruct = {0};
 8001382:	2400      	movs	r4, #0
{
 8001384:	b08d      	sub	sp, #52	; 0x34
  GPIO_InitTypeDef GPIO_InitStruct = {0};
 8001386:	e9cd 4406 	strd	r4, r4, [sp, #24]
 800138a:	e9cd 4408 	strd	r4, r4, [sp, #32]

  /* GPIO Ports Clock Enable */
  __HAL_RCC_GPIOC_CLK_ENABLE();
 800138e:	4b4f      	ldr	r3, [pc, #316]	; (80014cc <MX_GPIO_Init+0x14c>)
 8001390:	9401      	str	r4, [sp, #4]
  GPIO_InitTypeDef GPIO_InitStruct = {0};
 8001392:	940a      	str	r4, [sp, #40]	; 0x28
  __HAL_RCC_GPIOC_CLK_ENABLE();
 8001394:	6b1a      	ldr	r2, [r3, #48]	; 0x30
  __HAL_RCC_GPIOA_CLK_ENABLE();
  __HAL_RCC_GPIOB_CLK_ENABLE();
  __HAL_RCC_GPIOD_CLK_ENABLE();

  /*Configure GPIO pin Output Level */
  HAL_GPIO_WritePin(GPIOA, BLE_CS_Pin|NUCLEO_LED_Pin|HCI_TL_RST_Pin, GPIO_PIN_RESET);
 8001396:	4d4e      	ldr	r5, [pc, #312]	; (80014d0 <MX_GPIO_Init+0x150>)

  /*Configure GPIO pin : PtPin */
  GPIO_InitStruct.Pin = NUCLEO_PB_Pin;
  GPIO_InitStruct.Mode = GPIO_MODE_IT_RISING;
  GPIO_InitStruct.Pull = GPIO_NOPULL;
  HAL_GPIO_Init(NUCLEO_PB_GPIO_Port, &GPIO_InitStruct);
 8001398:	4e4e      	ldr	r6, [pc, #312]	; (80014d4 <MX_GPIO_Init+0x154>)
  __HAL_RCC_GPIOC_CLK_ENABLE();
 800139a:	f042 0204 	orr.w	r2, r2, #4
 800139e:	631a      	str	r2, [r3, #48]	; 0x30
 80013a0:	6b1a      	ldr	r2, [r3, #48]	; 0x30
 80013a2:	f002 0204 	and.w	r2, r2, #4
 80013a6:	9201      	str	r2, [sp, #4]
 80013a8:	9a01      	ldr	r2, [sp, #4]
  __HAL_RCC_GPIOH_CLK_ENABLE();
 80013aa:	9402      	str	r4, [sp, #8]
 80013ac:	6b1a      	ldr	r2, [r3, #48]	; 0x30
 80013ae:	f042 0280 	orr.w	r2, r2, #128	; 0x80
 80013b2:	631a      	str	r2, [r3, #48]	; 0x30
 80013b4:	6b1a      	ldr	r2, [r3, #48]	; 0x30
 80013b6:	f002 0280 	and.w	r2, r2, #128	; 0x80
 80013ba:	9202      	str	r2, [sp, #8]
 80013bc:	9a02      	ldr	r2, [sp, #8]
  __HAL_RCC_GPIOA_CLK_ENABLE();
 80013be:	9403      	str	r4, [sp, #12]
 80013c0:	6b1a      	ldr	r2, [r3, #48]	; 0x30
 80013c2:	f042 0201 	orr.w	r2, r2, #1
 80013c6:	631a      	str	r2, [r3, #48]	; 0x30
 80013c8:	6b1a      	ldr	r2, [r3, #48]	; 0x30
 80013ca:	f002 0201 	and.w	r2, r2, #1
 80013ce:	9203      	str	r2, [sp, #12]
 80013d0:	9a03      	ldr	r2, [sp, #12]
  __HAL_RCC_GPIOB_CLK_ENABLE();
 80013d2:	9404      	str	r4, [sp, #16]
 80013d4:	6b1a      	ldr	r2, [r3, #48]	; 0x30
 80013d6:	f042 0202 	orr.w	r2, r2, #2
 80013da:	631a      	str	r2, [r3, #48]	; 0x30
 80013dc:	6b1a      	ldr	r2, [r3, #48]	; 0x30
 80013de:	f002 0202 	and.w	r2, r2, #2
 80013e2:	9204      	str	r2, [sp, #16]
 80013e4:	9a04      	ldr	r2, [sp, #16]
  __HAL_RCC_GPIOD_CLK_ENABLE();
 80013e6:	9405      	str	r4, [sp, #20]
 80013e8:	6b1a      	ldr	r2, [r3, #48]	; 0x30
 80013ea:	f042 0208 	orr.w	r2, r2, #8
 80013ee:	631a      	str	r2, [r3, #48]	; 0x30
 80013f0:	6b1b      	ldr	r3, [r3, #48]	; 0x30
 80013f2:	f003 0308 	and.w	r3, r3, #8
 80013f6:	9305      	str	r3, [sp, #20]
  HAL_GPIO_WritePin(GPIOA, BLE_CS_Pin|NUCLEO_LED_Pin|HCI_TL_RST_Pin, GPIO_PIN_RESET);
 80013f8:	4622      	mov	r2, r4
 80013fa:	4628      	mov	r0, r5
 80013fc:	f44f 7191 	mov.w	r1, #290	; 0x122
  __HAL_RCC_GPIOD_CLK_ENABLE();
 8001400:	9b05      	ldr	r3, [sp, #20]
  HAL_GPIO_WritePin(GPIOA, BLE_CS_Pin|NUCLEO_LED_Pin|HCI_TL_RST_Pin, GPIO_PIN_RESET);
 8001402:	f001 faef 	bl	80029e4 <HAL_GPIO_WritePin>
  GPIO_InitStruct.Pin = NUCLEO_PB_Pin;
 8001406:	4b34      	ldr	r3, [pc, #208]	; (80014d8 <MX_GPIO_Init+0x158>)
  GPIO_InitStruct.Pull = GPIO_NOPULL;
 8001408:	9408      	str	r4, [sp, #32]
  HAL_GPIO_Init(NUCLEO_PB_GPIO_Port, &GPIO_InitStruct);
 800140a:	a906      	add	r1, sp, #24
 800140c:	4630      	mov	r0, r6
  GPIO_InitStruct.Pin = NUCLEO_PB_Pin;
 800140e:	f44f 5200 	mov.w	r2, #8192	; 0x2000
 8001412:	e9cd 2306 	strd	r2, r3, [sp, #24]
  HAL_GPIO_Init(NUCLEO_PB_GPIO_Port, &GPIO_InitStruct);
 8001416:	f001 f8cd 	bl	80025b4 <HAL_GPIO_Init>
                          |GPIO_PIN_2|GPIO_PIN_3|GPIO_PIN_4|GPIO_PIN_5
                          |GPIO_PIN_6|GPIO_PIN_7|GPIO_PIN_8|GPIO_PIN_9
                          |GPIO_PIN_10|GPIO_PIN_11|GPIO_PIN_12;
  GPIO_InitStruct.Mode = GPIO_MODE_ANALOG;
  GPIO_InitStruct.Pull = GPIO_NOPULL;
  HAL_GPIO_Init(GPIOC, &GPIO_InitStruct);
 800141a:	4630      	mov	r0, r6
 800141c:	a906      	add	r1, sp, #24
  GPIO_InitStruct.Pin = GPIO_PIN_14|GPIO_PIN_15|GPIO_PIN_0|GPIO_PIN_1
 800141e:	f64d 72ff 	movw	r2, #57343	; 0xdfff
 8001422:	2303      	movs	r3, #3
 8001424:	e9cd 2306 	strd	r2, r3, [sp, #24]
  GPIO_InitStruct.Pull = GPIO_NOPULL;
 8001428:	9408      	str	r4, [sp, #32]
  HAL_GPIO_Init(GPIOC, &GPIO_InitStruct);
 800142a:	f001 f8c3 	bl	80025b4 <HAL_GPIO_Init>

  /*Configure GPIO pins : PH0 PH1 */
  GPIO_InitStruct.Pin = GPIO_PIN_0|GPIO_PIN_1;
  GPIO_InitStruct.Mode = GPIO_MODE_ANALOG;
  GPIO_InitStruct.Pull = GPIO_NOPULL;
  HAL_GPIO_Init(GPIOH, &GPIO_InitStruct);
 800142e:	a906      	add	r1, sp, #24
  GPIO_InitStruct.Pin = GPIO_PIN_0|GPIO_PIN_1;
 8001430:	2203      	movs	r2, #3
 8001432:	2303      	movs	r3, #3
  HAL_GPIO_Init(GPIOH, &GPIO_InitStruct);
 8001434:	4829      	ldr	r0, [pc, #164]	; (80014dc <MX_GPIO_Init+0x15c>)
  GPIO_InitStruct.Pull = GPIO_NOPULL;
 8001436:	9408      	str	r4, [sp, #32]
  GPIO_InitStruct.Pin = GPIO_PIN_0|GPIO_PIN_1;
 8001438:	e9cd 2306 	strd	r2, r3, [sp, #24]
  HAL_GPIO_Init(GPIOH, &GPIO_InitStruct);
 800143c:	f001 f8ba 	bl	80025b4 <HAL_GPIO_Init>

  /*Configure GPIO pin : PtPin */
  GPIO_InitStruct.Pin = HCI_TL_SPI_EXTI_Pin;
 8001440:	4b25      	ldr	r3, [pc, #148]	; (80014d8 <MX_GPIO_Init+0x158>)
  GPIO_InitStruct.Mode = GPIO_MODE_IT_RISING;
  GPIO_InitStruct.Pull = GPIO_NOPULL;
 8001442:	9408      	str	r4, [sp, #32]
  HAL_GPIO_Init(HCI_TL_SPI_EXTI_GPIO_Port, &GPIO_InitStruct);
 8001444:	a906      	add	r1, sp, #24
 8001446:	4628      	mov	r0, r5
  GPIO_InitStruct.Pin = HCI_TL_SPI_EXTI_Pin;
 8001448:	2201      	movs	r2, #1
 800144a:	e9cd 2306 	strd	r2, r3, [sp, #24]

  /*Configure GPIO pins : PAPin PAPin PAPin */
  GPIO_InitStruct.Pin = BLE_CS_Pin|NUCLEO_LED_Pin|HCI_TL_RST_Pin;
 800144e:	f44f 7691 	mov.w	r6, #290	; 0x122
  HAL_GPIO_Init(HCI_TL_SPI_EXTI_GPIO_Port, &GPIO_InitStruct);
 8001452:	f001 f8af 	bl	80025b4 <HAL_GPIO_Init>
  GPIO_InitStruct.Pin = BLE_CS_Pin|NUCLEO_LED_Pin|HCI_TL_RST_Pin;
 8001456:	2701      	movs	r7, #1
  GPIO_InitStruct.Mode = GPIO_MODE_OUTPUT_PP;
  GPIO_InitStruct.Pull = GPIO_NOPULL;
  GPIO_InitStruct.Speed = GPIO_SPEED_FREQ_LOW;
  HAL_GPIO_Init(GPIOA, &GPIO_InitStruct);
 8001458:	a906      	add	r1, sp, #24
 800145a:	4628      	mov	r0, r5
  GPIO_InitStruct.Pin = BLE_CS_Pin|NUCLEO_LED_Pin|HCI_TL_RST_Pin;
 800145c:	2200      	movs	r2, #0
 800145e:	2300      	movs	r3, #0
 8001460:	e9cd 2308 	strd	r2, r3, [sp, #32]
 8001464:	e9cd 6706 	strd	r6, r7, [sp, #24]
  HAL_GPIO_Init(GPIOA, &GPIO_InitStruct);
 8001468:	f001 f8a4 	bl	80025b4 <HAL_GPIO_Init>
                           PA11 PA12 PA15 */
  GPIO_InitStruct.Pin = GPIO_PIN_3|GPIO_PIN_4|GPIO_PIN_9|GPIO_PIN_10
                          |GPIO_PIN_11|GPIO_PIN_12|GPIO_PIN_15;
  GPIO_InitStruct.Mode = GPIO_MODE_ANALOG;
  GPIO_InitStruct.Pull = GPIO_NOPULL;
  HAL_GPIO_Init(GPIOA, &GPIO_InitStruct);
 800146c:	4628      	mov	r0, r5
 800146e:	a906      	add	r1, sp, #24
  GPIO_InitStruct.Pin = GPIO_PIN_3|GPIO_PIN_4|GPIO_PIN_9|GPIO_PIN_10
 8001470:	f649 6218 	movw	r2, #40472	; 0x9e18
 8001474:	2303      	movs	r3, #3
 8001476:	e9cd 2306 	strd	r2, r3, [sp, #24]
  GPIO_InitStruct.Pull = GPIO_NOPULL;
 800147a:	9408      	str	r4, [sp, #32]
  HAL_GPIO_Init(GPIOA, &GPIO_InitStruct);
 800147c:	f001 f89a 	bl	80025b4 <HAL_GPIO_Init>
  GPIO_InitStruct.Pin = GPIO_PIN_0|GPIO_PIN_1|GPIO_PIN_2|GPIO_PIN_10
                          |GPIO_PIN_12|GPIO_PIN_13|GPIO_PIN_14|GPIO_PIN_15
                          |GPIO_PIN_4|GPIO_PIN_5|GPIO_PIN_6|GPIO_PIN_7;
  GPIO_InitStruct.Mode = GPIO_MODE_ANALOG;
  GPIO_InitStruct.Pull = GPIO_NOPULL;
  HAL_GPIO_Init(GPIOB, &GPIO_InitStruct);
 8001480:	a906      	add	r1, sp, #24
  GPIO_InitStruct.Pin = GPIO_PIN_0|GPIO_PIN_1|GPIO_PIN_2|GPIO_PIN_10
 8001482:	f24f 42f7 	movw	r2, #62711	; 0xf4f7
 8001486:	2303      	movs	r3, #3
  HAL_GPIO_Init(GPIOB, &GPIO_InitStruct);
 8001488:	4815      	ldr	r0, [pc, #84]	; (80014e0 <MX_GPIO_Init+0x160>)
  GPIO_InitStruct.Pull = GPIO_NOPULL;
 800148a:	9408      	str	r4, [sp, #32]
  GPIO_InitStruct.Pin = GPIO_PIN_0|GPIO_PIN_1|GPIO_PIN_2|GPIO_PIN_10
 800148c:	e9cd 2306 	strd	r2, r3, [sp, #24]
  HAL_GPIO_Init(GPIOB, &GPIO_InitStruct);
 8001490:	f001 f890 	bl	80025b4 <HAL_GPIO_Init>

  /*Configure GPIO pin : PD2 */
  GPIO_InitStruct.Pin = GPIO_PIN_2;
 8001494:	2303      	movs	r3, #3
  GPIO_InitStruct.Mode = GPIO_MODE_ANALOG;
  GPIO_InitStruct.Pull = GPIO_NOPULL;
  HAL_GPIO_Init(GPIOD, &GPIO_InitStruct);
 8001496:	a906      	add	r1, sp, #24
  GPIO_InitStruct.Pin = GPIO_PIN_2;
 8001498:	2204      	movs	r2, #4
  HAL_GPIO_Init(GPIOD, &GPIO_InitStruct);
 800149a:	4812      	ldr	r0, [pc, #72]	; (80014e4 <MX_GPIO_Init+0x164>)
  GPIO_InitStruct.Pull = GPIO_NOPULL;
 800149c:	9408      	str	r4, [sp, #32]
  GPIO_InitStruct.Pin = GPIO_PIN_2;
 800149e:	e9cd 2306 	strd	r2, r3, [sp, #24]
  HAL_GPIO_Init(GPIOD, &GPIO_InitStruct);
 80014a2:	f001 f887 	bl	80025b4 <HAL_GPIO_Init>

  /* EXTI interrupt init*/
  HAL_NVIC_SetPriority(EXTI0_IRQn, 5, 1);
 80014a6:	2201      	movs	r2, #1
 80014a8:	2105      	movs	r1, #5
 80014aa:	2006      	movs	r0, #6
 80014ac:	f000 fd62 	bl	8001f74 <HAL_NVIC_SetPriority>
  HAL_NVIC_EnableIRQ(EXTI0_IRQn);
 80014b0:	2006      	movs	r0, #6
 80014b2:	f000 fda9 	bl	8002008 <HAL_NVIC_EnableIRQ>

  HAL_NVIC_SetPriority(EXTI15_10_IRQn, 6, 2);
 80014b6:	2202      	movs	r2, #2
 80014b8:	2106      	movs	r1, #6
 80014ba:	2028      	movs	r0, #40	; 0x28
 80014bc:	f000 fd5a 	bl	8001f74 <HAL_NVIC_SetPriority>
  HAL_NVIC_EnableIRQ(EXTI15_10_IRQn);
 80014c0:	2028      	movs	r0, #40	; 0x28
 80014c2:	f000 fda1 	bl	8002008 <HAL_NVIC_EnableIRQ>

}
 80014c6:	b00d      	add	sp, #52	; 0x34
 80014c8:	bdf0      	pop	{r4, r5, r6, r7, pc}
 80014ca:	bf00      	nop
 80014cc:	40023800 	.word	0x40023800
 80014d0:	40020000 	.word	0x40020000
 80014d4:	40020800 	.word	0x40020800
 80014d8:	10110000 	.word	0x10110000
 80014dc:	40021c00 	.word	0x40021c00
 80014e0:	40020400 	.word	0x40020400
 80014e4:	40020c00 	.word	0x40020c00

080014e8 <MX_I2C1_Init>:
  /* USER CODE END I2C1_Init 0 */

  /* USER CODE BEGIN I2C1_Init 1 */

  /* USER CODE END I2C1_Init 1 */
  hi2c1.Instance = I2C1;
 80014e8:	480b      	ldr	r0, [pc, #44]	; (8001518 <MX_I2C1_Init+0x30>)
  hi2c1.Init.ClockSpeed = 100000;
 80014ea:	490c      	ldr	r1, [pc, #48]	; (800151c <MX_I2C1_Init+0x34>)
{
 80014ec:	b508      	push	{r3, lr}
  hi2c1.Instance = I2C1;
 80014ee:	4b0c      	ldr	r3, [pc, #48]	; (8001520 <MX_I2C1_Init+0x38>)
 80014f0:	6003      	str	r3, [r0, #0]
  hi2c1.Init.DutyCycle = I2C_DUTYCYCLE_2;
  hi2c1.Init.OwnAddress1 = 0;
  hi2c1.Init.AddressingMode = I2C_ADDRESSINGMODE_7BIT;
 80014f2:	f44f 4280 	mov.w	r2, #16384	; 0x4000
  hi2c1.Init.DutyCycle = I2C_DUTYCYCLE_2;
 80014f6:	2300      	movs	r3, #0
  hi2c1.Init.OwnAddress1 = 0;
 80014f8:	e9c0 3302 	strd	r3, r3, [r0, #8]
  hi2c1.Init.DualAddressMode = I2C_DUALADDRESS_DISABLE;
  hi2c1.Init.OwnAddress2 = 0;
 80014fc:	e9c0 3305 	strd	r3, r3, [r0, #20]
  hi2c1.Init.GeneralCallMode = I2C_GENERALCALL_DISABLE;
  hi2c1.Init.NoStretchMode = I2C_NOSTRETCH_DISABLE;
 8001500:	e9c0 3307 	strd	r3, r3, [r0, #28]
  hi2c1.Init.ClockSpeed = 100000;
 8001504:	6041      	str	r1, [r0, #4]
  hi2c1.Init.AddressingMode = I2C_ADDRESSINGMODE_7BIT;
 8001506:	6102      	str	r2, [r0, #16]
  if (HAL_I2C_Init(&hi2c1) != HAL_OK)
 8001508:	f001 faaa 	bl	8002a60 <HAL_I2C_Init>
 800150c:	b900      	cbnz	r0, 8001510 <MX_I2C1_Init+0x28>
  }
  /* USER CODE BEGIN I2C1_Init 2 */

  /* USER CODE END I2C1_Init 2 */

}
 800150e:	bd08      	pop	{r3, pc}
 8001510:	e8bd 4008 	ldmia.w	sp!, {r3, lr}
    Error_Handler();
 8001514:	f000 b8c0 	b.w	8001698 <Error_Handler>
 8001518:	20009a0c 	.word	0x20009a0c
 800151c:	000186a0 	.word	0x000186a0
 8001520:	40005400 	.word	0x40005400

08001524 <HAL_I2C_MspInit>:

void HAL_I2C_MspInit(I2C_HandleTypeDef* i2cHandle)
{
 8001524:	b570      	push	{r4, r5, r6, lr}

  GPIO_InitTypeDef GPIO_InitStruct = {0};
  if(i2cHandle->Instance==I2C1)
 8001526:	6802      	ldr	r2, [r0, #0]
 8001528:	4b1c      	ldr	r3, [pc, #112]	; (800159c <HAL_I2C_MspInit+0x78>)
{
 800152a:	b088      	sub	sp, #32
  GPIO_InitTypeDef GPIO_InitStruct = {0};
 800152c:	2400      	movs	r4, #0
  if(i2cHandle->Instance==I2C1)
 800152e:	429a      	cmp	r2, r3
  GPIO_InitTypeDef GPIO_InitStruct = {0};
 8001530:	e9cd 4402 	strd	r4, r4, [sp, #8]
 8001534:	e9cd 4404 	strd	r4, r4, [sp, #16]
 8001538:	9406      	str	r4, [sp, #24]
  if(i2cHandle->Instance==I2C1)
 800153a:	d001      	beq.n	8001540 <HAL_I2C_MspInit+0x1c>
    HAL_NVIC_EnableIRQ(I2C1_EV_IRQn);
  /* USER CODE BEGIN I2C1_MspInit 1 */

  /* USER CODE END I2C1_MspInit 1 */
  }
}
 800153c:	b008      	add	sp, #32
 800153e:	bd70      	pop	{r4, r5, r6, pc}
    __HAL_RCC_GPIOB_CLK_ENABLE();
 8001540:	4d17      	ldr	r5, [pc, #92]	; (80015a0 <HAL_I2C_MspInit+0x7c>)
 8001542:	9400      	str	r4, [sp, #0]
 8001544:	6b2b      	ldr	r3, [r5, #48]	; 0x30
    HAL_GPIO_Init(GPIOB, &GPIO_InitStruct);
 8001546:	4817      	ldr	r0, [pc, #92]	; (80015a4 <HAL_I2C_MspInit+0x80>)
    __HAL_RCC_GPIOB_CLK_ENABLE();
 8001548:	f043 0302 	orr.w	r3, r3, #2
 800154c:	632b      	str	r3, [r5, #48]	; 0x30
 800154e:	6b2b      	ldr	r3, [r5, #48]	; 0x30
 8001550:	f003 0302 	and.w	r3, r3, #2
 8001554:	9300      	str	r3, [sp, #0]
    GPIO_InitStruct.Pin = GPIO_PIN_8|GPIO_PIN_9;
 8001556:	f44f 7240 	mov.w	r2, #768	; 0x300
 800155a:	2312      	movs	r3, #18
 800155c:	e9cd 2302 	strd	r2, r3, [sp, #8]
 8001560:	2201      	movs	r2, #1
 8001562:	2303      	movs	r3, #3
 8001564:	e9cd 2304 	strd	r2, r3, [sp, #16]
    HAL_GPIO_Init(GPIOB, &GPIO_InitStruct);
 8001568:	a902      	add	r1, sp, #8
    GPIO_InitStruct.Alternate = GPIO_AF4_I2C1;
 800156a:	2304      	movs	r3, #4
 800156c:	9306      	str	r3, [sp, #24]
    __HAL_RCC_GPIOB_CLK_ENABLE();
 800156e:	9e00      	ldr	r6, [sp, #0]
    HAL_GPIO_Init(GPIOB, &GPIO_InitStruct);
 8001570:	f001 f820 	bl	80025b4 <HAL_GPIO_Init>
    __HAL_RCC_I2C1_CLK_ENABLE();
 8001574:	9401      	str	r4, [sp, #4]
 8001576:	6c2b      	ldr	r3, [r5, #64]	; 0x40
 8001578:	f443 1300 	orr.w	r3, r3, #2097152	; 0x200000
 800157c:	642b      	str	r3, [r5, #64]	; 0x40
 800157e:	6c2b      	ldr	r3, [r5, #64]	; 0x40
 8001580:	f403 1300 	and.w	r3, r3, #2097152	; 0x200000
 8001584:	9301      	str	r3, [sp, #4]
    HAL_NVIC_SetPriority(I2C1_EV_IRQn, 6, 1);
 8001586:	2201      	movs	r2, #1
 8001588:	2106      	movs	r1, #6
 800158a:	201f      	movs	r0, #31
    __HAL_RCC_I2C1_CLK_ENABLE();
 800158c:	9b01      	ldr	r3, [sp, #4]
    HAL_NVIC_SetPriority(I2C1_EV_IRQn, 6, 1);
 800158e:	f000 fcf1 	bl	8001f74 <HAL_NVIC_SetPriority>
    HAL_NVIC_EnableIRQ(I2C1_EV_IRQn);
 8001592:	201f      	movs	r0, #31
 8001594:	f000 fd38 	bl	8002008 <HAL_NVIC_EnableIRQ>
}
 8001598:	b008      	add	sp, #32
 800159a:	bd70      	pop	{r4, r5, r6, pc}
 800159c:	40005400 	.word	0x40005400
 80015a0:	40023800 	.word	0x40023800
 80015a4:	40020400 	.word	0x40020400

080015a8 <SystemClock_Config>:
/**
  * @brief System Clock Configuration
  * @retval None
  */
void SystemClock_Config(void)
{
 80015a8:	b530      	push	{r4, r5, lr}
  RCC_OscInitTypeDef RCC_OscInitStruct = {0};
 80015aa:	2300      	movs	r3, #0
{
 80015ac:	b095      	sub	sp, #84	; 0x54
  RCC_OscInitTypeDef RCC_OscInitStruct = {0};
 80015ae:	e9cd 330b 	strd	r3, r3, [sp, #44]	; 0x2c
 80015b2:	e9cd 3309 	strd	r3, r3, [sp, #36]	; 0x24
  RCC_ClkInitTypeDef RCC_ClkInitStruct = {0};
 80015b6:	e9cd 3303 	strd	r3, r3, [sp, #12]
 80015ba:	e9cd 3305 	strd	r3, r3, [sp, #20]

  /** Configure the main internal regulator output voltage
  */
  __HAL_RCC_PWR_CLK_ENABLE();
 80015be:	4922      	ldr	r1, [pc, #136]	; (8001648 <SystemClock_Config+0xa0>)
 80015c0:	9300      	str	r3, [sp, #0]
  RCC_OscInitTypeDef RCC_OscInitStruct = {0};
 80015c2:	930d      	str	r3, [sp, #52]	; 0x34
  RCC_ClkInitTypeDef RCC_ClkInitStruct = {0};
 80015c4:	9302      	str	r3, [sp, #8]
  __HAL_RCC_PWR_CLK_ENABLE();
 80015c6:	6c08      	ldr	r0, [r1, #64]	; 0x40
  __HAL_PWR_VOLTAGESCALING_CONFIG(PWR_REGULATOR_VOLTAGE_SCALE1);
 80015c8:	4a20      	ldr	r2, [pc, #128]	; (800164c <SystemClock_Config+0xa4>)
  __HAL_RCC_PWR_CLK_ENABLE();
 80015ca:	f040 5080 	orr.w	r0, r0, #268435456	; 0x10000000
 80015ce:	6408      	str	r0, [r1, #64]	; 0x40
 80015d0:	6c09      	ldr	r1, [r1, #64]	; 0x40
 80015d2:	f001 5180 	and.w	r1, r1, #268435456	; 0x10000000
 80015d6:	9100      	str	r1, [sp, #0]
 80015d8:	9900      	ldr	r1, [sp, #0]
  __HAL_PWR_VOLTAGESCALING_CONFIG(PWR_REGULATOR_VOLTAGE_SCALE1);
 80015da:	9301      	str	r3, [sp, #4]
 80015dc:	6813      	ldr	r3, [r2, #0]
 80015de:	f443 4340 	orr.w	r3, r3, #49152	; 0xc000
 80015e2:	6013      	str	r3, [r2, #0]
 80015e4:	6813      	ldr	r3, [r2, #0]
 80015e6:	f403 4340 	and.w	r3, r3, #49152	; 0xc000
 80015ea:	9301      	str	r3, [sp, #4]
  /** Initializes the RCC Oscillators according to the specified parameters
  * in the RCC_OscInitTypeDef structure.
  */
  RCC_OscInitStruct.OscillatorType = RCC_OSCILLATORTYPE_HSI;
 80015ec:	2302      	movs	r3, #2
  RCC_OscInitStruct.HSIState = RCC_HSI_ON;
 80015ee:	2401      	movs	r4, #1
  __HAL_PWR_VOLTAGESCALING_CONFIG(PWR_REGULATOR_VOLTAGE_SCALE1);
 80015f0:	9a01      	ldr	r2, [sp, #4]
  RCC_OscInitStruct.OscillatorType = RCC_OSCILLATORTYPE_HSI;
 80015f2:	9308      	str	r3, [sp, #32]
  RCC_OscInitStruct.HSICalibrationValue = RCC_HSICALIBRATION_DEFAULT;
  RCC_OscInitStruct.PLL.PLLState = RCC_PLL_ON;
 80015f4:	2202      	movs	r2, #2
 80015f6:	2300      	movs	r3, #0
  RCC_OscInitStruct.HSICalibrationValue = RCC_HSICALIBRATION_DEFAULT;
 80015f8:	2110      	movs	r1, #16
  RCC_OscInitStruct.PLL.PLLState = RCC_PLL_ON;
 80015fa:	e9cd 230e 	strd	r2, r3, [sp, #56]	; 0x38
  RCC_OscInitStruct.HSICalibrationValue = RCC_HSICALIBRATION_DEFAULT;
 80015fe:	e9cd 410b 	strd	r4, r1, [sp, #44]	; 0x2c
  RCC_OscInitStruct.PLL.PLLState = RCC_PLL_ON;
 8001602:	25c8      	movs	r5, #200	; 0xc8
 8001604:	2410      	movs	r4, #16
 8001606:	2202      	movs	r2, #2
 8001608:	2304      	movs	r3, #4
  RCC_OscInitStruct.PLL.PLLSource = RCC_PLLSOURCE_HSI;
  RCC_OscInitStruct.PLL.PLLM = 16;
  RCC_OscInitStruct.PLL.PLLN = 200;
  RCC_OscInitStruct.PLL.PLLP = RCC_PLLP_DIV2;
  RCC_OscInitStruct.PLL.PLLQ = 4;
  if (HAL_RCC_OscConfig(&RCC_OscInitStruct) != HAL_OK)
 800160a:	a808      	add	r0, sp, #32
  RCC_OscInitStruct.PLL.PLLState = RCC_PLL_ON;
 800160c:	e9cd 4510 	strd	r4, r5, [sp, #64]	; 0x40
 8001610:	e9cd 2312 	strd	r2, r3, [sp, #72]	; 0x48
  if (HAL_RCC_OscConfig(&RCC_OscInitStruct) != HAL_OK)
 8001614:	f002 f9cc 	bl	80039b0 <HAL_RCC_OscConfig>
 8001618:	b108      	cbz	r0, 800161e <SystemClock_Config+0x76>
  \details Disables IRQ interrupts by setting the I-bit in the CPSR.
           Can only be executed in Privileged modes.
 */
__STATIC_FORCEINLINE void __disable_irq(void)
{
  __ASM volatile ("cpsid i" : : : "memory");
 800161a:	b672      	cpsid	i
void Error_Handler(void)
{
  /* USER CODE BEGIN Error_Handler_Debug */
  /* User can add his own implementation to report the HAL error return state */
  __disable_irq();
  while (1)
 800161c:	e7fe      	b.n	800161c <SystemClock_Config+0x74>
  RCC_ClkInitStruct.APB1CLKDivider = RCC_HCLK_DIV16;
 800161e:	4603      	mov	r3, r0
  RCC_ClkInitStruct.ClockType = RCC_CLOCKTYPE_HCLK|RCC_CLOCKTYPE_SYSCLK
 8001620:	240f      	movs	r4, #15
 8001622:	2502      	movs	r5, #2
  RCC_ClkInitStruct.APB2CLKDivider = RCC_HCLK_DIV1;
 8001624:	9306      	str	r3, [sp, #24]
  RCC_ClkInitStruct.ClockType = RCC_CLOCKTYPE_HCLK|RCC_CLOCKTYPE_SYSCLK
 8001626:	2200      	movs	r2, #0
 8001628:	f44f 53e0 	mov.w	r3, #7168	; 0x1c00
  if (HAL_RCC_ClockConfig(&RCC_ClkInitStruct, FLASH_LATENCY_3) != HAL_OK)
 800162c:	a802      	add	r0, sp, #8
 800162e:	2103      	movs	r1, #3
  RCC_ClkInitStruct.ClockType = RCC_CLOCKTYPE_HCLK|RCC_CLOCKTYPE_SYSCLK
 8001630:	e9cd 4502 	strd	r4, r5, [sp, #8]
 8001634:	e9cd 2304 	strd	r2, r3, [sp, #16]
  if (HAL_RCC_ClockConfig(&RCC_ClkInitStruct, FLASH_LATENCY_3) != HAL_OK)
 8001638:	f002 fc70 	bl	8003f1c <HAL_RCC_ClockConfig>
 800163c:	b108      	cbz	r0, 8001642 <SystemClock_Config+0x9a>
 800163e:	b672      	cpsid	i
  while (1)
 8001640:	e7fe      	b.n	8001640 <SystemClock_Config+0x98>
}
 8001642:	b015      	add	sp, #84	; 0x54
 8001644:	bd30      	pop	{r4, r5, pc}
 8001646:	bf00      	nop
 8001648:	40023800 	.word	0x40023800
 800164c:	40007000 	.word	0x40007000

08001650 <main>:
{
 8001650:	b508      	push	{r3, lr}
  HAL_Init();
 8001652:	f000 f9ed 	bl	8001a30 <HAL_Init>
  SystemClock_Config();
 8001656:	f7ff ffa7 	bl	80015a8 <SystemClock_Config>
  MX_GPIO_Init();
 800165a:	f7ff fe91 	bl	8001380 <MX_GPIO_Init>
  MX_DMA_Init();
 800165e:	f7ff fe6b 	bl	8001338 <MX_DMA_Init>
  MX_ADC1_Init();
 8001662:	f7ff f8eb 	bl	800083c <MX_ADC1_Init>
  MX_I2C1_Init();
 8001666:	f7ff ff3f 	bl	80014e8 <MX_I2C1_Init>
  MX_TIM5_Init();
 800166a:	f000 f911 	bl	8001890 <MX_TIM5_Init>
  MX_TIM9_Init();
 800166e:	f000 f949 	bl	8001904 <MX_TIM9_Init>
  osKernelInitialize();  /* Call init function for freertos objects (in freertos.c) */
 8001672:	f004 fd51 	bl	8006118 <osKernelInitialize>
  MX_FREERTOS_Init();
 8001676:	f7ff fe81 	bl	800137c <MX_FREERTOS_Init>
  FRTOS_Init_Tasks();
 800167a:	f7ff fd6b 	bl	8001154 <FRTOS_Init_Tasks>
  osKernelStart();
 800167e:	f004 fd5d 	bl	800613c <osKernelStart>
	  HAL_GPIO_TogglePin(NUCLEO_LED_GPIO_Port, NUCLEO_LED_Pin);
 8001682:	4c04      	ldr	r4, [pc, #16]	; (8001694 <main+0x44>)
 8001684:	4620      	mov	r0, r4
 8001686:	2120      	movs	r1, #32
 8001688:	f001 f9c6 	bl	8002a18 <HAL_GPIO_TogglePin>
	  HAL_Delay(100);
 800168c:	2064      	movs	r0, #100	; 0x64
 800168e:	f000 f9fb 	bl	8001a88 <HAL_Delay>
  while (1)
 8001692:	e7f7      	b.n	8001684 <main+0x34>
 8001694:	40020000 	.word	0x40020000

08001698 <Error_Handler>:
 8001698:	b672      	cpsid	i
  while (1)
 800169a:	e7fe      	b.n	800169a <Error_Handler+0x2>

0800169c <assert_failed>:
  * @param  file: pointer to the source file name
  * @param  line: assert_param error line source number
  * @retval None
  */
void assert_failed(uint8_t *file, uint32_t line)
{
 800169c:	460a      	mov	r2, r1
 800169e:	b508      	push	{r3, lr}
	printf("Wrong parameters value: file %s on line %d\r\n", file, line);
 80016a0:	4601      	mov	r1, r0
 80016a2:	4802      	ldr	r0, [pc, #8]	; (80016ac <assert_failed+0x10>)
 80016a4:	f006 ff26 	bl	80084f4 <iprintf>
	for(;;);
 80016a8:	e7fe      	b.n	80016a8 <assert_failed+0xc>
 80016aa:	bf00      	nop
 80016ac:	08009534 	.word	0x08009534

080016b0 <HAL_MspInit>:
/* USER CODE END 0 */
/**
  * Initializes the Global MSP.
  */
void HAL_MspInit(void)
{
 80016b0:	b082      	sub	sp, #8
  /* USER CODE BEGIN MspInit 0 */

  /* USER CODE END MspInit 0 */

  __HAL_RCC_SYSCFG_CLK_ENABLE();
 80016b2:	4b0e      	ldr	r3, [pc, #56]	; (80016ec <HAL_MspInit+0x3c>)
 80016b4:	2200      	movs	r2, #0
 80016b6:	9200      	str	r2, [sp, #0]
 80016b8:	6c59      	ldr	r1, [r3, #68]	; 0x44
 80016ba:	f441 4180 	orr.w	r1, r1, #16384	; 0x4000
 80016be:	6459      	str	r1, [r3, #68]	; 0x44
 80016c0:	6c59      	ldr	r1, [r3, #68]	; 0x44
 80016c2:	f401 4180 	and.w	r1, r1, #16384	; 0x4000
 80016c6:	9100      	str	r1, [sp, #0]
 80016c8:	9900      	ldr	r1, [sp, #0]
  __HAL_RCC_PWR_CLK_ENABLE();
 80016ca:	9201      	str	r2, [sp, #4]
 80016cc:	6c19      	ldr	r1, [r3, #64]	; 0x40
 80016ce:	f041 5180 	orr.w	r1, r1, #268435456	; 0x10000000
 80016d2:	6419      	str	r1, [r3, #64]	; 0x40
 80016d4:	6c1b      	ldr	r3, [r3, #64]	; 0x40
 80016d6:	f003 5380 	and.w	r3, r3, #268435456	; 0x10000000
 80016da:	9301      	str	r3, [sp, #4]
 80016dc:	9b01      	ldr	r3, [sp, #4]

  /* System interrupt init*/
  /* PendSV_IRQn interrupt configuration */
  HAL_NVIC_SetPriority(PendSV_IRQn, 15, 0);
 80016de:	210f      	movs	r1, #15
 80016e0:	f06f 0001 	mvn.w	r0, #1

  /* USER CODE BEGIN MspInit 1 */

  /* USER CODE END MspInit 1 */
}
 80016e4:	b002      	add	sp, #8
  HAL_NVIC_SetPriority(PendSV_IRQn, 15, 0);
 80016e6:	f000 bc45 	b.w	8001f74 <HAL_NVIC_SetPriority>
 80016ea:	bf00      	nop
 80016ec:	40023800 	.word	0x40023800

080016f0 <HAL_InitTick>:
  *         reset by HAL_Init() or at any time when clock is configured, by HAL_RCC_ClockConfig().
  * @param  TickPriority: Tick interrupt priority.
  * @retval HAL status
  */
HAL_StatusTypeDef HAL_InitTick(uint32_t TickPriority)
{
 80016f0:	b530      	push	{r4, r5, lr}
 80016f2:	4601      	mov	r1, r0
 80016f4:	b089      	sub	sp, #36	; 0x24
  RCC_ClkInitTypeDef    clkconfig;
  uint32_t              uwTimclock = 0;
  uint32_t              uwPrescalerValue = 0;
  uint32_t              pFLatency;
  /*Configure the TIM2 IRQ priority */
  HAL_NVIC_SetPriority(TIM2_IRQn, TickPriority ,0);
 80016f6:	2200      	movs	r2, #0
 80016f8:	201c      	movs	r0, #28
 80016fa:	f000 fc3b 	bl	8001f74 <HAL_NVIC_SetPriority>

  /* Enable the TIM2 global Interrupt */
  HAL_NVIC_EnableIRQ(TIM2_IRQn);
 80016fe:	201c      	movs	r0, #28
 8001700:	f000 fc82 	bl	8002008 <HAL_NVIC_EnableIRQ>
  /* Enable TIM2 clock */
  __HAL_RCC_TIM2_CLK_ENABLE();
 8001704:	2500      	movs	r5, #0
 8001706:	4b16      	ldr	r3, [pc, #88]	; (8001760 <HAL_InitTick+0x70>)
 8001708:	9502      	str	r5, [sp, #8]
 800170a:	6c1a      	ldr	r2, [r3, #64]	; 0x40
  uwTimclock = 2*HAL_RCC_GetPCLK1Freq();
  /* Compute the prescaler value to have TIM2 counter clock equal to 1MHz */
  uwPrescalerValue = (uint32_t) ((uwTimclock / 1000000U) - 1U);

  /* Initialize TIM2 */
  htim2.Instance = TIM2;
 800170c:	4c15      	ldr	r4, [pc, #84]	; (8001764 <HAL_InitTick+0x74>)
  __HAL_RCC_TIM2_CLK_ENABLE();
 800170e:	f042 0201 	orr.w	r2, r2, #1
 8001712:	641a      	str	r2, [r3, #64]	; 0x40
 8001714:	6c1b      	ldr	r3, [r3, #64]	; 0x40
 8001716:	f003 0301 	and.w	r3, r3, #1
  HAL_RCC_GetClockConfig(&clkconfig, &pFLatency);
 800171a:	a901      	add	r1, sp, #4
  __HAL_RCC_TIM2_CLK_ENABLE();
 800171c:	9302      	str	r3, [sp, #8]
  HAL_RCC_GetClockConfig(&clkconfig, &pFLatency);
 800171e:	a803      	add	r0, sp, #12
  __HAL_RCC_TIM2_CLK_ENABLE();
 8001720:	9b02      	ldr	r3, [sp, #8]
  HAL_RCC_GetClockConfig(&clkconfig, &pFLatency);
 8001722:	f002 fd0d 	bl	8004140 <HAL_RCC_GetClockConfig>
  uwTimclock = 2*HAL_RCC_GetPCLK1Freq();
 8001726:	f002 fcfb 	bl	8004120 <HAL_RCC_GetPCLK1Freq>
  uwPrescalerValue = (uint32_t) ((uwTimclock / 1000000U) - 1U);
 800172a:	4a0f      	ldr	r2, [pc, #60]	; (8001768 <HAL_InitTick+0x78>)
  + ClockDivision = 0
  + Counter direction = Up
  */
  htim2.Init.Period = (1000000U / 1000U) - 1U;
  htim2.Init.Prescaler = uwPrescalerValue;
  htim2.Init.ClockDivision = 0;
 800172c:	6125      	str	r5, [r4, #16]
  uwTimclock = 2*HAL_RCC_GetPCLK1Freq();
 800172e:	0043      	lsls	r3, r0, #1
  uwPrescalerValue = (uint32_t) ((uwTimclock / 1000000U) - 1U);
 8001730:	fba2 2303 	umull	r2, r3, r2, r3
 8001734:	0c9b      	lsrs	r3, r3, #18
 8001736:	3b01      	subs	r3, #1
  htim2.Instance = TIM2;
 8001738:	f04f 4180 	mov.w	r1, #1073741824	; 0x40000000
  htim2.Init.Period = (1000000U / 1000U) - 1U;
 800173c:	f240 32e7 	movw	r2, #999	; 0x3e7
  htim2.Init.CounterMode = TIM_COUNTERMODE_UP;
  if(HAL_TIM_Base_Init(&htim2) == HAL_OK)
 8001740:	4620      	mov	r0, r4
  htim2.Init.CounterMode = TIM_COUNTERMODE_UP;
 8001742:	e9c4 3501 	strd	r3, r5, [r4, #4]
  htim2.Instance = TIM2;
 8001746:	6021      	str	r1, [r4, #0]
  htim2.Init.Period = (1000000U / 1000U) - 1U;
 8001748:	60e2      	str	r2, [r4, #12]
  if(HAL_TIM_Base_Init(&htim2) == HAL_OK)
 800174a:	f003 f81d 	bl	8004788 <HAL_TIM_Base_Init>
 800174e:	b110      	cbz	r0, 8001756 <HAL_InitTick+0x66>
    /* Start the TIM time Base generation in interrupt mode */
    return HAL_TIM_Base_Start_IT(&htim2);
  }

  /* Return function status */
  return HAL_ERROR;
 8001750:	2001      	movs	r0, #1
}
 8001752:	b009      	add	sp, #36	; 0x24
 8001754:	bd30      	pop	{r4, r5, pc}
    return HAL_TIM_Base_Start_IT(&htim2);
 8001756:	4620      	mov	r0, r4
 8001758:	f003 f8ec 	bl	8004934 <HAL_TIM_Base_Start_IT>
}
 800175c:	b009      	add	sp, #36	; 0x24
 800175e:	bd30      	pop	{r4, r5, pc}
 8001760:	40023800 	.word	0x40023800
 8001764:	20009a60 	.word	0x20009a60
 8001768:	431bde83 	.word	0x431bde83

0800176c <NMI_Handler>:
{
  /* USER CODE BEGIN NonMaskableInt_IRQn 0 */

  /* USER CODE END NonMaskableInt_IRQn 0 */
  /* USER CODE BEGIN NonMaskableInt_IRQn 1 */
  while (1)
 800176c:	e7fe      	b.n	800176c <NMI_Handler>
 800176e:	bf00      	nop

08001770 <HardFault_Handler>:
void HardFault_Handler(void)
{
  /* USER CODE BEGIN HardFault_IRQn 0 */

  /* USER CODE END HardFault_IRQn 0 */
  while (1)
 8001770:	e7fe      	b.n	8001770 <HardFault_Handler>
 8001772:	bf00      	nop

08001774 <MemManage_Handler>:
void MemManage_Handler(void)
{
  /* USER CODE BEGIN MemoryManagement_IRQn 0 */

  /* USER CODE END MemoryManagement_IRQn 0 */
  while (1)
 8001774:	e7fe      	b.n	8001774 <MemManage_Handler>
 8001776:	bf00      	nop

08001778 <BusFault_Handler>:
void BusFault_Handler(void)
{
  /* USER CODE BEGIN BusFault_IRQn 0 */

  /* USER CODE END BusFault_IRQn 0 */
  while (1)
 8001778:	e7fe      	b.n	8001778 <BusFault_Handler>
 800177a:	bf00      	nop

0800177c <UsageFault_Handler>:
void UsageFault_Handler(void)
{
  /* USER CODE BEGIN UsageFault_IRQn 0 */

  /* USER CODE END UsageFault_IRQn 0 */
  while (1)
 800177c:	e7fe      	b.n	800177c <UsageFault_Handler>
 800177e:	bf00      	nop

08001780 <DebugMon_Handler>:

  /* USER CODE END DebugMonitor_IRQn 0 */
  /* USER CODE BEGIN DebugMonitor_IRQn 1 */

  /* USER CODE END DebugMonitor_IRQn 1 */
}
 8001780:	4770      	bx	lr
 8001782:	bf00      	nop

08001784 <EXTI0_IRQHandler>:
/**
  * @brief This function handles EXTI line0 interrupt.
  */
void EXTI0_IRQHandler(void)
{
  HAL_EXTI_IRQHandler(&H_EXTI_0);
 8001784:	4801      	ldr	r0, [pc, #4]	; (800178c <EXTI0_IRQHandler+0x8>)
 8001786:	f000 beff 	b.w	8002588 <HAL_EXTI_IRQHandler>
 800178a:	bf00      	nop
 800178c:	2000988c 	.word	0x2000988c

08001790 <TIM1_BRK_TIM9_IRQHandler>:
/**
  * @brief This function handles TIM1 break interrupt and TIM9 global interrupt.
  */
void TIM1_BRK_TIM9_IRQHandler(void)
{
  HAL_TIM_IRQHandler(&htim9);
 8001790:	4801      	ldr	r0, [pc, #4]	; (8001798 <TIM1_BRK_TIM9_IRQHandler+0x8>)
 8001792:	f003 bb65 	b.w	8004e60 <HAL_TIM_IRQHandler>
 8001796:	bf00      	nop
 8001798:	20009af0 	.word	0x20009af0

0800179c <TIM2_IRQHandler>:
/**
  * @brief This function handles TIM2 global interrupt.
  */
void TIM2_IRQHandler(void)
{
  HAL_TIM_IRQHandler(&htim2);
 800179c:	4801      	ldr	r0, [pc, #4]	; (80017a4 <TIM2_IRQHandler+0x8>)
 800179e:	f003 bb5f 	b.w	8004e60 <HAL_TIM_IRQHandler>
 80017a2:	bf00      	nop
 80017a4:	20009a60 	.word	0x20009a60

080017a8 <I2C1_EV_IRQHandler>:
/**
  * @brief This function handles I2C1 event interrupt.
  */
void I2C1_EV_IRQHandler(void)
{
  HAL_I2C_EV_IRQHandler(&hi2c1);
 80017a8:	4801      	ldr	r0, [pc, #4]	; (80017b0 <I2C1_EV_IRQHandler+0x8>)
 80017aa:	f001 bc41 	b.w	8003030 <HAL_I2C_EV_IRQHandler>
 80017ae:	bf00      	nop
 80017b0:	20009a0c 	.word	0x20009a0c

080017b4 <EXTI15_10_IRQHandler>:
/**
  * @brief This function handles EXTI line[15:10] interrupts.
  */
void EXTI15_10_IRQHandler(void)
{
  HAL_GPIO_EXTI_IRQHandler(GPIO_PIN_13);
 80017b4:	f44f 5000 	mov.w	r0, #8192	; 0x2000
 80017b8:	f001 b946 	b.w	8002a48 <HAL_GPIO_EXTI_IRQHandler>

080017bc <TIM5_IRQHandler>:
/**
  * @brief This function handles TIM5 global interrupt.
  */
void TIM5_IRQHandler(void)
{
  HAL_TIM_IRQHandler(&htim5);
 80017bc:	4801      	ldr	r0, [pc, #4]	; (80017c4 <TIM5_IRQHandler+0x8>)
 80017be:	f003 bb4f 	b.w	8004e60 <HAL_TIM_IRQHandler>
 80017c2:	bf00      	nop
 80017c4:	20009aa8 	.word	0x20009aa8

080017c8 <DMA2_Stream0_IRQHandler>:
/**
  * @brief This function handles DMA2 stream0 global interrupt.
  */
void DMA2_Stream0_IRQHandler(void)
{
  HAL_DMA_IRQHandler(&hdma_adc1);
 80017c8:	4801      	ldr	r0, [pc, #4]	; (80017d0 <DMA2_Stream0_IRQHandler+0x8>)
 80017ca:	f000 bdc1 	b.w	8002350 <HAL_DMA_IRQHandler>
 80017ce:	bf00      	nop
 80017d0:	200098dc 	.word	0x200098dc

080017d4 <HAL_TIM_PeriodElapsedCallback>:
 * @param  htim : TIM handle
 * @retval None
 */
void HAL_TIM_PeriodElapsedCallback(TIM_HandleTypeDef *htim)
{
	if(htim->Instance == TIM2)
 80017d4:	6803      	ldr	r3, [r0, #0]
 80017d6:	f1b3 4f80 	cmp.w	r3, #1073741824	; 0x40000000
 80017da:	d000      	beq.n	80017de <HAL_TIM_PeriodElapsedCallback+0xa>
	}
	else if(htim->Instance == TIM9)
	{

	}
}
 80017dc:	4770      	bx	lr
		HAL_IncTick();
 80017de:	f000 b941 	b.w	8001a64 <HAL_IncTick>
 80017e2:	bf00      	nop

080017e4 <_read>:
	_kill(status, -1);
	while (1) {}		/* Make sure we hang here */
}

__attribute__((weak)) int _read(int file, char *ptr, int len)
{
 80017e4:	b570      	push	{r4, r5, r6, lr}
	int DataIdx;

	for (DataIdx = 0; DataIdx < len; DataIdx++)
 80017e6:	1e16      	subs	r6, r2, #0
 80017e8:	dd07      	ble.n	80017fa <_read+0x16>
 80017ea:	460c      	mov	r4, r1
 80017ec:	198d      	adds	r5, r1, r6
	{
		*ptr++ = __io_getchar();
 80017ee:	f3af 8000 	nop.w
 80017f2:	f804 0b01 	strb.w	r0, [r4], #1
	for (DataIdx = 0; DataIdx < len; DataIdx++)
 80017f6:	42a5      	cmp	r5, r4
 80017f8:	d1f9      	bne.n	80017ee <_read+0xa>
	}

return len;
}
 80017fa:	4630      	mov	r0, r6
 80017fc:	bd70      	pop	{r4, r5, r6, pc}
 80017fe:	bf00      	nop

08001800 <_write>:

__attribute__((weak)) int _write(int file, char *ptr, int len)
{
 8001800:	b570      	push	{r4, r5, r6, lr}
	int DataIdx;

	for (DataIdx = 0; DataIdx < len; DataIdx++)
 8001802:	1e16      	subs	r6, r2, #0
 8001804:	dd07      	ble.n	8001816 <_write+0x16>
 8001806:	460c      	mov	r4, r1
 8001808:	198d      	adds	r5, r1, r6
	{
		__io_putchar(*ptr++);
 800180a:	f814 0b01 	ldrb.w	r0, [r4], #1
 800180e:	f3af 8000 	nop.w
	for (DataIdx = 0; DataIdx < len; DataIdx++)
 8001812:	42ac      	cmp	r4, r5
 8001814:	d1f9      	bne.n	800180a <_write+0xa>
	}
	return len;
}
 8001816:	4630      	mov	r0, r6
 8001818:	bd70      	pop	{r4, r5, r6, pc}
 800181a:	bf00      	nop

0800181c <_close>:

int _close(int file)
{
	return -1;
}
 800181c:	f04f 30ff 	mov.w	r0, #4294967295
 8001820:	4770      	bx	lr
 8001822:	bf00      	nop

08001824 <_fstat>:


int _fstat(int file, struct stat *st)
{
	st->st_mode = S_IFCHR;
 8001824:	f44f 5300 	mov.w	r3, #8192	; 0x2000
 8001828:	604b      	str	r3, [r1, #4]
	return 0;
}
 800182a:	2000      	movs	r0, #0
 800182c:	4770      	bx	lr
 800182e:	bf00      	nop

08001830 <_isatty>:

int _isatty(int file)
{
	return 1;
}
 8001830:	2001      	movs	r0, #1
 8001832:	4770      	bx	lr

08001834 <_lseek>:

int _lseek(int file, int ptr, int dir)
{
	return 0;
}
 8001834:	2000      	movs	r0, #0
 8001836:	4770      	bx	lr

08001838 <_sbrk>:
  const uint32_t stack_limit = (uint32_t)&_estack - (uint32_t)&_Min_Stack_Size;
  const uint8_t *max_heap = (uint8_t *)stack_limit;
  uint8_t *prev_heap_end;

  /* Initialize heap end at first call */
  if (NULL == __sbrk_heap_end)
 8001838:	490c      	ldr	r1, [pc, #48]	; (800186c <_sbrk+0x34>)
  const uint32_t stack_limit = (uint32_t)&_estack - (uint32_t)&_Min_Stack_Size;
 800183a:	4a0d      	ldr	r2, [pc, #52]	; (8001870 <_sbrk+0x38>)
  if (NULL == __sbrk_heap_end)
 800183c:	680b      	ldr	r3, [r1, #0]
{
 800183e:	b510      	push	{r4, lr}
  const uint32_t stack_limit = (uint32_t)&_estack - (uint32_t)&_Min_Stack_Size;
 8001840:	4c0c      	ldr	r4, [pc, #48]	; (8001874 <_sbrk+0x3c>)
 8001842:	1b12      	subs	r2, r2, r4
  if (NULL == __sbrk_heap_end)
 8001844:	b12b      	cbz	r3, 8001852 <_sbrk+0x1a>
  {
    __sbrk_heap_end = &_end;
  }

  /* Protect heap from growing into the reserved MSP stack */
  if (__sbrk_heap_end + incr > max_heap)
 8001846:	4418      	add	r0, r3
 8001848:	4290      	cmp	r0, r2
 800184a:	d807      	bhi.n	800185c <_sbrk+0x24>
    errno = ENOMEM;
    return (void *)-1;
  }

  prev_heap_end = __sbrk_heap_end;
  __sbrk_heap_end += incr;
 800184c:	6008      	str	r0, [r1, #0]

  return (void *)prev_heap_end;
}
 800184e:	4618      	mov	r0, r3
 8001850:	bd10      	pop	{r4, pc}
    __sbrk_heap_end = &_end;
 8001852:	4b09      	ldr	r3, [pc, #36]	; (8001878 <_sbrk+0x40>)
 8001854:	600b      	str	r3, [r1, #0]
  if (__sbrk_heap_end + incr > max_heap)
 8001856:	4418      	add	r0, r3
 8001858:	4290      	cmp	r0, r2
 800185a:	d9f7      	bls.n	800184c <_sbrk+0x14>
    errno = ENOMEM;
 800185c:	f006 fe0a 	bl	8008474 <__errno>
 8001860:	230c      	movs	r3, #12
 8001862:	6003      	str	r3, [r0, #0]
    return (void *)-1;
 8001864:	f04f 33ff 	mov.w	r3, #4294967295
}
 8001868:	4618      	mov	r0, r3
 800186a:	bd10      	pop	{r4, pc}
 800186c:	200001b8 	.word	0x200001b8
 8001870:	20020000 	.word	0x20020000
 8001874:	00000800 	.word	0x00000800
 8001878:	20009bc0 	.word	0x20009bc0

0800187c <SystemInit>:
  */
void SystemInit(void)
{
  /* FPU settings ------------------------------------------------------------*/
  #if (__FPU_PRESENT == 1) && (__FPU_USED == 1)
    SCB->CPACR |= ((3UL << 10*2)|(3UL << 11*2));  /* set CP10 and CP11 Full Access */
 800187c:	4a03      	ldr	r2, [pc, #12]	; (800188c <SystemInit+0x10>)
 800187e:	f8d2 3088 	ldr.w	r3, [r2, #136]	; 0x88
 8001882:	f443 0370 	orr.w	r3, r3, #15728640	; 0xf00000
 8001886:	f8c2 3088 	str.w	r3, [r2, #136]	; 0x88

  /* Configure the Vector Table location -------------------------------------*/
#if defined(USER_VECT_TAB_ADDRESS)
  SCB->VTOR = VECT_TAB_BASE_ADDRESS | VECT_TAB_OFFSET; /* Vector Table Relocation in Internal SRAM */
#endif /* USER_VECT_TAB_ADDRESS */
}
 800188a:	4770      	bx	lr
 800188c:	e000ed00 	.word	0xe000ed00

08001890 <MX_TIM5_Init>:
TIM_HandleTypeDef htim5;
TIM_HandleTypeDef htim9;

/* TIM5 init function */
void MX_TIM5_Init(void)
{
 8001890:	b500      	push	{lr}
  TIM_MasterConfigTypeDef sMasterConfig = {0};

  /* USER CODE BEGIN TIM5_Init 1 */

  /* USER CODE END TIM5_Init 1 */
  htim5.Instance = TIM5;
 8001892:	481a      	ldr	r0, [pc, #104]	; (80018fc <MX_TIM5_Init+0x6c>)
 8001894:	4b1a      	ldr	r3, [pc, #104]	; (8001900 <MX_TIM5_Init+0x70>)
 8001896:	6003      	str	r3, [r0, #0]
{
 8001898:	b087      	sub	sp, #28
  TIM_ClockConfigTypeDef sClockSourceConfig = {0};
 800189a:	2300      	movs	r3, #0
  htim5.Init.Prescaler = 0;
  htim5.Init.CounterMode = TIM_COUNTERMODE_UP;
  htim5.Init.Period = 4294967295;
 800189c:	f04f 32ff 	mov.w	r2, #4294967295
  TIM_ClockConfigTypeDef sClockSourceConfig = {0};
 80018a0:	e9cd 3303 	strd	r3, r3, [sp, #12]
  htim5.Init.Period = 4294967295;
 80018a4:	60c2      	str	r2, [r0, #12]
  htim5.Init.Prescaler = 0;
 80018a6:	6043      	str	r3, [r0, #4]
  TIM_ClockConfigTypeDef sClockSourceConfig = {0};
 80018a8:	9302      	str	r3, [sp, #8]
  TIM_MasterConfigTypeDef sMasterConfig = {0};
 80018aa:	9300      	str	r3, [sp, #0]
  htim5.Init.CounterMode = TIM_COUNTERMODE_UP;
 80018ac:	6083      	str	r3, [r0, #8]
  htim5.Init.ClockDivision = TIM_CLOCKDIVISION_DIV1;
 80018ae:	6103      	str	r3, [r0, #16]
  htim5.Init.AutoReloadPreload = TIM_AUTORELOAD_PRELOAD_DISABLE;
 80018b0:	6183      	str	r3, [r0, #24]
  TIM_ClockConfigTypeDef sClockSourceConfig = {0};
 80018b2:	9305      	str	r3, [sp, #20]
  TIM_MasterConfigTypeDef sMasterConfig = {0};
 80018b4:	9301      	str	r3, [sp, #4]
  if (HAL_TIM_Base_Init(&htim5) != HAL_OK)
 80018b6:	f002 ff67 	bl	8004788 <HAL_TIM_Base_Init>
 80018ba:	b998      	cbnz	r0, 80018e4 <MX_TIM5_Init+0x54>
  {
    Error_Handler();
  }
  sClockSourceConfig.ClockSource = TIM_CLOCKSOURCE_INTERNAL;
 80018bc:	f44f 5380 	mov.w	r3, #4096	; 0x1000
  if (HAL_TIM_ConfigClockSource(&htim5, &sClockSourceConfig) != HAL_OK)
 80018c0:	480e      	ldr	r0, [pc, #56]	; (80018fc <MX_TIM5_Init+0x6c>)
  sClockSourceConfig.ClockSource = TIM_CLOCKSOURCE_INTERNAL;
 80018c2:	9302      	str	r3, [sp, #8]
  if (HAL_TIM_ConfigClockSource(&htim5, &sClockSourceConfig) != HAL_OK)
 80018c4:	a902      	add	r1, sp, #8
 80018c6:	f003 f891 	bl	80049ec <HAL_TIM_ConfigClockSource>
 80018ca:	b998      	cbnz	r0, 80018f4 <MX_TIM5_Init+0x64>
  {
    Error_Handler();
  }
  sMasterConfig.MasterOutputTrigger = TIM_TRGO_RESET;
 80018cc:	2200      	movs	r2, #0
 80018ce:	2300      	movs	r3, #0
  sMasterConfig.MasterSlaveMode = TIM_MASTERSLAVEMODE_DISABLE;
  if (HAL_TIMEx_MasterConfigSynchronization(&htim5, &sMasterConfig) != HAL_OK)
 80018d0:	480a      	ldr	r0, [pc, #40]	; (80018fc <MX_TIM5_Init+0x6c>)
 80018d2:	4669      	mov	r1, sp
  sMasterConfig.MasterOutputTrigger = TIM_TRGO_RESET;
 80018d4:	e9cd 2300 	strd	r2, r3, [sp]
  if (HAL_TIMEx_MasterConfigSynchronization(&htim5, &sMasterConfig) != HAL_OK)
 80018d8:	f003 fb6c 	bl	8004fb4 <HAL_TIMEx_MasterConfigSynchronization>
 80018dc:	b928      	cbnz	r0, 80018ea <MX_TIM5_Init+0x5a>
  }
  /* USER CODE BEGIN TIM5_Init 2 */

  /* USER CODE END TIM5_Init 2 */

}
 80018de:	b007      	add	sp, #28
 80018e0:	f85d fb04 	ldr.w	pc, [sp], #4
    Error_Handler();
 80018e4:	f7ff fed8 	bl	8001698 <Error_Handler>
 80018e8:	e7e8      	b.n	80018bc <MX_TIM5_Init+0x2c>
    Error_Handler();
 80018ea:	f7ff fed5 	bl	8001698 <Error_Handler>
}
 80018ee:	b007      	add	sp, #28
 80018f0:	f85d fb04 	ldr.w	pc, [sp], #4
    Error_Handler();
 80018f4:	f7ff fed0 	bl	8001698 <Error_Handler>
 80018f8:	e7e8      	b.n	80018cc <MX_TIM5_Init+0x3c>
 80018fa:	bf00      	nop
 80018fc:	20009aa8 	.word	0x20009aa8
 8001900:	40000c00 	.word	0x40000c00

08001904 <MX_TIM9_Init>:
/* TIM9 init function */
void MX_TIM9_Init(void)
{
 8001904:	b500      	push	{lr}
  TIM_ClockConfigTypeDef sClockSourceConfig = {0};

  /* USER CODE BEGIN TIM9_Init 1 */

  /* USER CODE END TIM9_Init 1 */
  htim9.Instance = TIM9;
 8001906:	4813      	ldr	r0, [pc, #76]	; (8001954 <MX_TIM9_Init+0x50>)
 8001908:	4b13      	ldr	r3, [pc, #76]	; (8001958 <MX_TIM9_Init+0x54>)
 800190a:	6003      	str	r3, [r0, #0]
{
 800190c:	b085      	sub	sp, #20
  TIM_ClockConfigTypeDef sClockSourceConfig = {0};
 800190e:	2300      	movs	r3, #0
  htim9.Init.Prescaler = 0;
  htim9.Init.CounterMode = TIM_COUNTERMODE_UP;
  htim9.Init.Period = 65535;
 8001910:	f64f 72ff 	movw	r2, #65535	; 0xffff
  TIM_ClockConfigTypeDef sClockSourceConfig = {0};
 8001914:	e9cd 3301 	strd	r3, r3, [sp, #4]
  htim9.Init.Period = 65535;
 8001918:	60c2      	str	r2, [r0, #12]
  htim9.Init.Prescaler = 0;
 800191a:	6043      	str	r3, [r0, #4]
  TIM_ClockConfigTypeDef sClockSourceConfig = {0};
 800191c:	9300      	str	r3, [sp, #0]
  htim9.Init.CounterMode = TIM_COUNTERMODE_UP;
 800191e:	6083      	str	r3, [r0, #8]
  htim9.Init.ClockDivision = TIM_CLOCKDIVISION_DIV1;
 8001920:	6103      	str	r3, [r0, #16]
  htim9.Init.AutoReloadPreload = TIM_AUTORELOAD_PRELOAD_DISABLE;
 8001922:	6183      	str	r3, [r0, #24]
  TIM_ClockConfigTypeDef sClockSourceConfig = {0};
 8001924:	9303      	str	r3, [sp, #12]
  if (HAL_TIM_Base_Init(&htim9) != HAL_OK)
 8001926:	f002 ff2f 	bl	8004788 <HAL_TIM_Base_Init>
 800192a:	b950      	cbnz	r0, 8001942 <MX_TIM9_Init+0x3e>
  {
    Error_Handler();
  }
  sClockSourceConfig.ClockSource = TIM_CLOCKSOURCE_INTERNAL;
 800192c:	f44f 5380 	mov.w	r3, #4096	; 0x1000
  if (HAL_TIM_ConfigClockSource(&htim9, &sClockSourceConfig) != HAL_OK)
 8001930:	4808      	ldr	r0, [pc, #32]	; (8001954 <MX_TIM9_Init+0x50>)
  sClockSourceConfig.ClockSource = TIM_CLOCKSOURCE_INTERNAL;
 8001932:	9300      	str	r3, [sp, #0]
  if (HAL_TIM_ConfigClockSource(&htim9, &sClockSourceConfig) != HAL_OK)
 8001934:	4669      	mov	r1, sp
 8001936:	f003 f859 	bl	80049ec <HAL_TIM_ConfigClockSource>
 800193a:	b928      	cbnz	r0, 8001948 <MX_TIM9_Init+0x44>
  }
  /* USER CODE BEGIN TIM9_Init 2 */

  /* USER CODE END TIM9_Init 2 */

}
 800193c:	b005      	add	sp, #20
 800193e:	f85d fb04 	ldr.w	pc, [sp], #4
    Error_Handler();
 8001942:	f7ff fea9 	bl	8001698 <Error_Handler>
 8001946:	e7f1      	b.n	800192c <MX_TIM9_Init+0x28>
    Error_Handler();
 8001948:	f7ff fea6 	bl	8001698 <Error_Handler>
}
 800194c:	b005      	add	sp, #20
 800194e:	f85d fb04 	ldr.w	pc, [sp], #4
 8001952:	bf00      	nop
 8001954:	20009af0 	.word	0x20009af0
 8001958:	40014000 	.word	0x40014000

0800195c <HAL_TIM_Base_MspInit>:

void HAL_TIM_Base_MspInit(TIM_HandleTypeDef* tim_baseHandle)
{
 800195c:	b500      	push	{lr}

  if(tim_baseHandle->Instance==TIM5)
 800195e:	4a1c      	ldr	r2, [pc, #112]	; (80019d0 <HAL_TIM_Base_MspInit+0x74>)
 8001960:	6803      	ldr	r3, [r0, #0]
 8001962:	4293      	cmp	r3, r2
{
 8001964:	b083      	sub	sp, #12
  if(tim_baseHandle->Instance==TIM5)
 8001966:	d005      	beq.n	8001974 <HAL_TIM_Base_MspInit+0x18>
    HAL_NVIC_EnableIRQ(TIM5_IRQn);
  /* USER CODE BEGIN TIM5_MspInit 1 */

  /* USER CODE END TIM5_MspInit 1 */
  }
  else if(tim_baseHandle->Instance==TIM9)
 8001968:	4a1a      	ldr	r2, [pc, #104]	; (80019d4 <HAL_TIM_Base_MspInit+0x78>)
 800196a:	4293      	cmp	r3, r2
 800196c:	d019      	beq.n	80019a2 <HAL_TIM_Base_MspInit+0x46>
    HAL_NVIC_EnableIRQ(TIM1_BRK_TIM9_IRQn);
  /* USER CODE BEGIN TIM9_MspInit 1 */

  /* USER CODE END TIM9_MspInit 1 */
  }
}
 800196e:	b003      	add	sp, #12
 8001970:	f85d fb04 	ldr.w	pc, [sp], #4
    __HAL_RCC_TIM5_CLK_ENABLE();
 8001974:	4b18      	ldr	r3, [pc, #96]	; (80019d8 <HAL_TIM_Base_MspInit+0x7c>)
 8001976:	2200      	movs	r2, #0
 8001978:	9200      	str	r2, [sp, #0]
 800197a:	6c1a      	ldr	r2, [r3, #64]	; 0x40
 800197c:	f042 0208 	orr.w	r2, r2, #8
 8001980:	641a      	str	r2, [r3, #64]	; 0x40
 8001982:	6c1b      	ldr	r3, [r3, #64]	; 0x40
 8001984:	f003 0308 	and.w	r3, r3, #8
 8001988:	9300      	str	r3, [sp, #0]
    HAL_NVIC_SetPriority(TIM5_IRQn, 7, 1);
 800198a:	2201      	movs	r2, #1
 800198c:	2107      	movs	r1, #7
 800198e:	2032      	movs	r0, #50	; 0x32
    __HAL_RCC_TIM5_CLK_ENABLE();
 8001990:	9b00      	ldr	r3, [sp, #0]
    HAL_NVIC_SetPriority(TIM5_IRQn, 7, 1);
 8001992:	f000 faef 	bl	8001f74 <HAL_NVIC_SetPriority>
    HAL_NVIC_EnableIRQ(TIM5_IRQn);
 8001996:	2032      	movs	r0, #50	; 0x32
}
 8001998:	b003      	add	sp, #12
 800199a:	f85d eb04 	ldr.w	lr, [sp], #4
    HAL_NVIC_EnableIRQ(TIM1_BRK_TIM9_IRQn);
 800199e:	f000 bb33 	b.w	8002008 <HAL_NVIC_EnableIRQ>
    __HAL_RCC_TIM9_CLK_ENABLE();
 80019a2:	4b0d      	ldr	r3, [pc, #52]	; (80019d8 <HAL_TIM_Base_MspInit+0x7c>)
 80019a4:	2200      	movs	r2, #0
 80019a6:	9201      	str	r2, [sp, #4]
 80019a8:	6c5a      	ldr	r2, [r3, #68]	; 0x44
 80019aa:	f442 3280 	orr.w	r2, r2, #65536	; 0x10000
 80019ae:	645a      	str	r2, [r3, #68]	; 0x44
 80019b0:	6c5b      	ldr	r3, [r3, #68]	; 0x44
 80019b2:	f403 3380 	and.w	r3, r3, #65536	; 0x10000
 80019b6:	9301      	str	r3, [sp, #4]
    HAL_NVIC_SetPriority(TIM1_BRK_TIM9_IRQn, 7, 2);
 80019b8:	2202      	movs	r2, #2
 80019ba:	2107      	movs	r1, #7
 80019bc:	2018      	movs	r0, #24
    __HAL_RCC_TIM9_CLK_ENABLE();
 80019be:	9b01      	ldr	r3, [sp, #4]
    HAL_NVIC_SetPriority(TIM1_BRK_TIM9_IRQn, 7, 2);
 80019c0:	f000 fad8 	bl	8001f74 <HAL_NVIC_SetPriority>
    HAL_NVIC_EnableIRQ(TIM1_BRK_TIM9_IRQn);
 80019c4:	2018      	movs	r0, #24
}
 80019c6:	b003      	add	sp, #12
 80019c8:	f85d eb04 	ldr.w	lr, [sp], #4
    HAL_NVIC_EnableIRQ(TIM1_BRK_TIM9_IRQn);
 80019cc:	f000 bb1c 	b.w	8002008 <HAL_NVIC_EnableIRQ>
 80019d0:	40000c00 	.word	0x40000c00
 80019d4:	40014000 	.word	0x40014000
 80019d8:	40023800 	.word	0x40023800

080019dc <Reset_Handler>:

    .section  .text.Reset_Handler
  .weak  Reset_Handler
  .type  Reset_Handler, %function
Reset_Handler:  
   ldr   sp, =_estack    		 /* set stack pointer */
 80019dc:	f8df d034 	ldr.w	sp, [pc, #52]	; 8001a14 <LoopFillZerobss+0x12>

/* Copy the data segment initializers from flash to SRAM */  
  ldr r0, =_sdata
 80019e0:	480d      	ldr	r0, [pc, #52]	; (8001a18 <LoopFillZerobss+0x16>)
  ldr r1, =_edata
 80019e2:	490e      	ldr	r1, [pc, #56]	; (8001a1c <LoopFillZerobss+0x1a>)
  ldr r2, =_sidata
 80019e4:	4a0e      	ldr	r2, [pc, #56]	; (8001a20 <LoopFillZerobss+0x1e>)
  movs r3, #0
 80019e6:	2300      	movs	r3, #0
  b LoopCopyDataInit
 80019e8:	e002      	b.n	80019f0 <LoopCopyDataInit>

080019ea <CopyDataInit>:

CopyDataInit:
  ldr r4, [r2, r3]
 80019ea:	58d4      	ldr	r4, [r2, r3]
  str r4, [r0, r3]
 80019ec:	50c4      	str	r4, [r0, r3]
  adds r3, r3, #4
 80019ee:	3304      	adds	r3, #4

080019f0 <LoopCopyDataInit>:

LoopCopyDataInit:
  adds r4, r0, r3
 80019f0:	18c4      	adds	r4, r0, r3
  cmp r4, r1
 80019f2:	428c      	cmp	r4, r1
  bcc CopyDataInit
 80019f4:	d3f9      	bcc.n	80019ea <CopyDataInit>
  
/* Zero fill the bss segment. */
  ldr r2, =_sbss
 80019f6:	4a0b      	ldr	r2, [pc, #44]	; (8001a24 <LoopFillZerobss+0x22>)
  ldr r4, =_ebss
 80019f8:	4c0b      	ldr	r4, [pc, #44]	; (8001a28 <LoopFillZerobss+0x26>)
  movs r3, #0
 80019fa:	2300      	movs	r3, #0
  b LoopFillZerobss
 80019fc:	e001      	b.n	8001a02 <LoopFillZerobss>

080019fe <FillZerobss>:

FillZerobss:
  str  r3, [r2]
 80019fe:	6013      	str	r3, [r2, #0]
  adds r2, r2, #4
 8001a00:	3204      	adds	r2, #4

08001a02 <LoopFillZerobss>:

LoopFillZerobss:
  cmp r2, r4
 8001a02:	42a2      	cmp	r2, r4
  bcc FillZerobss
 8001a04:	d3fb      	bcc.n	80019fe <FillZerobss>

/* Call the clock system intitialization function.*/
  bl  SystemInit   
 8001a06:	f7ff ff39 	bl	800187c <SystemInit>
/* Call static constructors */
    bl __libc_init_array
 8001a0a:	f006 fd39 	bl	8008480 <__libc_init_array>
/* Call the application's entry point.*/
  bl  main
 8001a0e:	f7ff fe1f 	bl	8001650 <main>
  bx  lr    
 8001a12:	4770      	bx	lr
   ldr   sp, =_estack    		 /* set stack pointer */
 8001a14:	20020000 	.word	0x20020000
  ldr r0, =_sdata
 8001a18:	20000000 	.word	0x20000000
  ldr r1, =_edata
 8001a1c:	20000070 	.word	0x20000070
  ldr r2, =_sidata
 8001a20:	08009a64 	.word	0x08009a64
  ldr r2, =_sbss
 8001a24:	20000070 	.word	0x20000070
  ldr r4, =_ebss
 8001a28:	20009bbc 	.word	0x20009bbc

08001a2c <ADC_IRQHandler>:
 * @retval None       
*/
    .section  .text.Default_Handler,"ax",%progbits
Default_Handler:
Infinite_Loop:
  b  Infinite_Loop
 8001a2c:	e7fe      	b.n	8001a2c <ADC_IRQHandler>
	...

08001a30 <HAL_Init>:
  *         need to ensure that the SysTick time base is always set to 1 millisecond
  *         to have correct HAL operation.
  * @retval HAL status
  */
HAL_StatusTypeDef HAL_Init(void)
{
 8001a30:	b508      	push	{r3, lr}
  /* Configure Flash prefetch, Instruction cache, Data cache */ 
#if (INSTRUCTION_CACHE_ENABLE != 0U)
  __HAL_FLASH_INSTRUCTION_CACHE_ENABLE();
 8001a32:	4b0b      	ldr	r3, [pc, #44]	; (8001a60 <HAL_Init+0x30>)
 8001a34:	681a      	ldr	r2, [r3, #0]
 8001a36:	f442 7200 	orr.w	r2, r2, #512	; 0x200
 8001a3a:	601a      	str	r2, [r3, #0]
#endif /* INSTRUCTION_CACHE_ENABLE */

#if (DATA_CACHE_ENABLE != 0U)
  __HAL_FLASH_DATA_CACHE_ENABLE();
 8001a3c:	681a      	ldr	r2, [r3, #0]
 8001a3e:	f442 6280 	orr.w	r2, r2, #1024	; 0x400
 8001a42:	601a      	str	r2, [r3, #0]
#endif /* DATA_CACHE_ENABLE */

#if (PREFETCH_ENABLE != 0U)
  __HAL_FLASH_PREFETCH_BUFFER_ENABLE();
 8001a44:	681a      	ldr	r2, [r3, #0]
 8001a46:	f442 7280 	orr.w	r2, r2, #256	; 0x100
 8001a4a:	601a      	str	r2, [r3, #0]
#endif /* PREFETCH_ENABLE */

  /* Set Interrupt Group Priority */
  HAL_NVIC_SetPriorityGrouping(NVIC_PRIORITYGROUP_4);
 8001a4c:	2003      	movs	r0, #3
 8001a4e:	f000 fa73 	bl	8001f38 <HAL_NVIC_SetPriorityGrouping>

  /* Use systick as time base source and configure 1ms tick (default clock after Reset is HSI) */
  HAL_InitTick(TICK_INT_PRIORITY);
 8001a52:	2000      	movs	r0, #0
 8001a54:	f7ff fe4c 	bl	80016f0 <HAL_InitTick>

  /* Init the low level hardware */
  HAL_MspInit();
 8001a58:	f7ff fe2a 	bl	80016b0 <HAL_MspInit>

  /* Return function status */
  return HAL_OK;
}
 8001a5c:	2000      	movs	r0, #0
 8001a5e:	bd08      	pop	{r3, pc}
 8001a60:	40023c00 	.word	0x40023c00

08001a64 <HAL_IncTick>:
  *      implementations in user file.
  * @retval None
  */
__weak void HAL_IncTick(void)
{
  uwTick += uwTickFreq;
 8001a64:	4a03      	ldr	r2, [pc, #12]	; (8001a74 <HAL_IncTick+0x10>)
 8001a66:	4b04      	ldr	r3, [pc, #16]	; (8001a78 <HAL_IncTick+0x14>)
 8001a68:	6811      	ldr	r1, [r2, #0]
 8001a6a:	781b      	ldrb	r3, [r3, #0]
 8001a6c:	440b      	add	r3, r1
 8001a6e:	6013      	str	r3, [r2, #0]
}
 8001a70:	4770      	bx	lr
 8001a72:	bf00      	nop
 8001a74:	20009b38 	.word	0x20009b38
 8001a78:	20000004 	.word	0x20000004

08001a7c <HAL_GetTick>:
  *       implementations in user file.
  * @retval tick value
  */
__weak uint32_t HAL_GetTick(void)
{
  return uwTick;
 8001a7c:	4b01      	ldr	r3, [pc, #4]	; (8001a84 <HAL_GetTick+0x8>)
 8001a7e:	6818      	ldr	r0, [r3, #0]
}
 8001a80:	4770      	bx	lr
 8001a82:	bf00      	nop
 8001a84:	20009b38 	.word	0x20009b38

08001a88 <HAL_Delay>:
  *       implementations in user file.
  * @param Delay specifies the delay time length, in milliseconds.
  * @retval None
  */
__weak void HAL_Delay(uint32_t Delay)
{
 8001a88:	b538      	push	{r3, r4, r5, lr}
 8001a8a:	4604      	mov	r4, r0
  uint32_t tickstart = HAL_GetTick();
 8001a8c:	f7ff fff6 	bl	8001a7c <HAL_GetTick>
  uint32_t wait = Delay;

  /* Add a freq to guarantee minimum wait */
  if (wait < HAL_MAX_DELAY)
 8001a90:	1c63      	adds	r3, r4, #1
  uint32_t tickstart = HAL_GetTick();
 8001a92:	4605      	mov	r5, r0
  if (wait < HAL_MAX_DELAY)
 8001a94:	d002      	beq.n	8001a9c <HAL_Delay+0x14>
  {
    wait += (uint32_t)(uwTickFreq);
 8001a96:	4b04      	ldr	r3, [pc, #16]	; (8001aa8 <HAL_Delay+0x20>)
 8001a98:	781b      	ldrb	r3, [r3, #0]
 8001a9a:	441c      	add	r4, r3
  }

  while((HAL_GetTick() - tickstart) < wait)
 8001a9c:	f7ff ffee 	bl	8001a7c <HAL_GetTick>
 8001aa0:	1b43      	subs	r3, r0, r5
 8001aa2:	42a3      	cmp	r3, r4
 8001aa4:	d3fa      	bcc.n	8001a9c <HAL_Delay+0x14>
  {
  }
}
 8001aa6:	bd38      	pop	{r3, r4, r5, pc}
 8001aa8:	20000004 	.word	0x20000004

08001aac <HAL_ADC_Init>:
HAL_StatusTypeDef HAL_ADC_Init(ADC_HandleTypeDef* hadc)
{
  HAL_StatusTypeDef tmp_hal_status = HAL_OK;
  
  /* Check ADC handle */
  if(hadc == NULL)
 8001aac:	2800      	cmp	r0, #0
 8001aae:	f000 8140 	beq.w	8001d32 <HAL_ADC_Init+0x286>
{
 8001ab2:	b5f8      	push	{r3, r4, r5, r6, r7, lr}
  {
    return HAL_ERROR;
  }
  
  /* Check the parameters */
  assert_param(IS_ADC_ALL_INSTANCE(hadc->Instance));
 8001ab4:	6802      	ldr	r2, [r0, #0]
 8001ab6:	4ba7      	ldr	r3, [pc, #668]	; (8001d54 <HAL_ADC_Init+0x2a8>)
 8001ab8:	429a      	cmp	r2, r3
 8001aba:	4604      	mov	r4, r0
 8001abc:	d004      	beq.n	8001ac8 <HAL_ADC_Init+0x1c>
 8001abe:	48a6      	ldr	r0, [pc, #664]	; (8001d58 <HAL_ADC_Init+0x2ac>)
 8001ac0:	f240 1143 	movw	r1, #323	; 0x143
 8001ac4:	f7ff fdea 	bl	800169c <assert_failed>
  assert_param(IS_ADC_CLOCKPRESCALER(hadc->Init.ClockPrescaler));
 8001ac8:	6863      	ldr	r3, [r4, #4]
 8001aca:	f433 3340 	bics.w	r3, r3, #196608	; 0x30000
 8001ace:	d004      	beq.n	8001ada <HAL_ADC_Init+0x2e>
 8001ad0:	48a1      	ldr	r0, [pc, #644]	; (8001d58 <HAL_ADC_Init+0x2ac>)
 8001ad2:	f44f 71a2 	mov.w	r1, #324	; 0x144
 8001ad6:	f7ff fde1 	bl	800169c <assert_failed>
  assert_param(IS_ADC_RESOLUTION(hadc->Init.Resolution));
 8001ada:	68a3      	ldr	r3, [r4, #8]
 8001adc:	f033 7340 	bics.w	r3, r3, #50331648	; 0x3000000
 8001ae0:	d004      	beq.n	8001aec <HAL_ADC_Init+0x40>
 8001ae2:	489d      	ldr	r0, [pc, #628]	; (8001d58 <HAL_ADC_Init+0x2ac>)
 8001ae4:	f240 1145 	movw	r1, #325	; 0x145
 8001ae8:	f7ff fdd8 	bl	800169c <assert_failed>
  assert_param(IS_FUNCTIONAL_STATE(hadc->Init.ScanConvMode));
 8001aec:	6923      	ldr	r3, [r4, #16]
 8001aee:	2b01      	cmp	r3, #1
 8001af0:	d879      	bhi.n	8001be6 <HAL_ADC_Init+0x13a>
  assert_param(IS_FUNCTIONAL_STATE(hadc->Init.ContinuousConvMode));
 8001af2:	7e23      	ldrb	r3, [r4, #24]
 8001af4:	2b01      	cmp	r3, #1
 8001af6:	d86a      	bhi.n	8001bce <HAL_ADC_Init+0x122>
  assert_param(IS_ADC_EXT_TRIG(hadc->Init.ExternalTrigConv));
 8001af8:	6aa3      	ldr	r3, [r4, #40]	; 0x28
 8001afa:	f033 7240 	bics.w	r2, r3, #50331648	; 0x3000000
 8001afe:	f023 7180 	bic.w	r1, r3, #16777216	; 0x1000000
 8001b02:	d014      	beq.n	8001b2e <HAL_ADC_Init+0x82>
 8001b04:	f1b2 6f80 	cmp.w	r2, #67108864	; 0x4000000
 8001b08:	d011      	beq.n	8001b2e <HAL_ADC_Init+0x82>
 8001b0a:	f1b2 6f00 	cmp.w	r2, #134217728	; 0x8000000
 8001b0e:	d00e      	beq.n	8001b2e <HAL_ADC_Init+0x82>
 8001b10:	f1b1 6f40 	cmp.w	r1, #201326592	; 0xc000000
 8001b14:	d00b      	beq.n	8001b2e <HAL_ADC_Init+0x82>
 8001b16:	f1b3 6f60 	cmp.w	r3, #234881024	; 0xe000000
 8001b1a:	d008      	beq.n	8001b2e <HAL_ADC_Init+0x82>
 8001b1c:	f103 4371 	add.w	r3, r3, #4043309056	; 0xf1000000
 8001b20:	2b01      	cmp	r3, #1
 8001b22:	d904      	bls.n	8001b2e <HAL_ADC_Init+0x82>
 8001b24:	488c      	ldr	r0, [pc, #560]	; (8001d58 <HAL_ADC_Init+0x2ac>)
 8001b26:	f44f 71a4 	mov.w	r1, #328	; 0x148
 8001b2a:	f7ff fdb7 	bl	800169c <assert_failed>
  assert_param(IS_ADC_DATA_ALIGN(hadc->Init.DataAlign));
 8001b2e:	68e3      	ldr	r3, [r4, #12]
 8001b30:	f433 6300 	bics.w	r3, r3, #2048	; 0x800
 8001b34:	d122      	bne.n	8001b7c <HAL_ADC_Init+0xd0>
  assert_param(IS_ADC_REGULAR_LENGTH(hadc->Init.NbrOfConversion));
 8001b36:	69e3      	ldr	r3, [r4, #28]
 8001b38:	3b01      	subs	r3, #1
 8001b3a:	2b0f      	cmp	r3, #15
 8001b3c:	d827      	bhi.n	8001b8e <HAL_ADC_Init+0xe2>
  assert_param(IS_FUNCTIONAL_STATE(hadc->Init.DMAContinuousRequests));
 8001b3e:	f894 3030 	ldrb.w	r3, [r4, #48]	; 0x30
 8001b42:	2b01      	cmp	r3, #1
 8001b44:	d82c      	bhi.n	8001ba0 <HAL_ADC_Init+0xf4>
  assert_param(IS_ADC_EOCSelection(hadc->Init.EOCSelection));
 8001b46:	6963      	ldr	r3, [r4, #20]
 8001b48:	2b02      	cmp	r3, #2
 8001b4a:	d831      	bhi.n	8001bb0 <HAL_ADC_Init+0x104>
  assert_param(IS_FUNCTIONAL_STATE(hadc->Init.DiscontinuousConvMode));
 8001b4c:	f894 3020 	ldrb.w	r3, [r4, #32]
 8001b50:	2b01      	cmp	r3, #1
 8001b52:	d836      	bhi.n	8001bc2 <HAL_ADC_Init+0x116>
  
  if(hadc->Init.ExternalTrigConv != ADC_SOFTWARE_START)
 8001b54:	4b81      	ldr	r3, [pc, #516]	; (8001d5c <HAL_ADC_Init+0x2b0>)
 8001b56:	6aa2      	ldr	r2, [r4, #40]	; 0x28
 8001b58:	429a      	cmp	r2, r3
 8001b5a:	d004      	beq.n	8001b66 <HAL_ADC_Init+0xba>
  {
    assert_param(IS_ADC_EXT_TRIG_EDGE(hadc->Init.ExternalTrigConvEdge));
 8001b5c:	6ae3      	ldr	r3, [r4, #44]	; 0x2c
 8001b5e:	f033 5340 	bics.w	r3, r3, #805306368	; 0x30000000
 8001b62:	f040 80d7 	bne.w	8001d14 <HAL_ADC_Init+0x268>
  }
  
  if(hadc->State == HAL_ADC_STATE_RESET)
 8001b66:	6c25      	ldr	r5, [r4, #64]	; 0x40
 8001b68:	2d00      	cmp	r5, #0
 8001b6a:	d045      	beq.n	8001bf8 <HAL_ADC_Init+0x14c>
    hadc->Lock = HAL_UNLOCKED;
  }
  
  /* Configuration of ADC parameters if previous preliminary actions are      */ 
  /* correctly completed.                                                     */
  if (HAL_IS_BIT_CLR(hadc->State, HAL_ADC_STATE_ERROR_INTERNAL))
 8001b6c:	6c23      	ldr	r3, [r4, #64]	; 0x40
 8001b6e:	06db      	lsls	r3, r3, #27
 8001b70:	d54b      	bpl.n	8001c0a <HAL_ADC_Init+0x15e>
  {
    tmp_hal_status = HAL_ERROR;
  }
  
  /* Release Lock */
  __HAL_UNLOCK(hadc);
 8001b72:	2300      	movs	r3, #0
 8001b74:	f884 303c 	strb.w	r3, [r4, #60]	; 0x3c
    tmp_hal_status = HAL_ERROR;
 8001b78:	2001      	movs	r0, #1

  /* Return function status */
  return tmp_hal_status;
}
 8001b7a:	bdf8      	pop	{r3, r4, r5, r6, r7, pc}
  assert_param(IS_ADC_DATA_ALIGN(hadc->Init.DataAlign));
 8001b7c:	4876      	ldr	r0, [pc, #472]	; (8001d58 <HAL_ADC_Init+0x2ac>)
 8001b7e:	f240 1149 	movw	r1, #329	; 0x149
 8001b82:	f7ff fd8b 	bl	800169c <assert_failed>
  assert_param(IS_ADC_REGULAR_LENGTH(hadc->Init.NbrOfConversion));
 8001b86:	69e3      	ldr	r3, [r4, #28]
 8001b88:	3b01      	subs	r3, #1
 8001b8a:	2b0f      	cmp	r3, #15
 8001b8c:	d9d7      	bls.n	8001b3e <HAL_ADC_Init+0x92>
 8001b8e:	4872      	ldr	r0, [pc, #456]	; (8001d58 <HAL_ADC_Init+0x2ac>)
 8001b90:	f44f 71a5 	mov.w	r1, #330	; 0x14a
 8001b94:	f7ff fd82 	bl	800169c <assert_failed>
  assert_param(IS_FUNCTIONAL_STATE(hadc->Init.DMAContinuousRequests));
 8001b98:	f894 3030 	ldrb.w	r3, [r4, #48]	; 0x30
 8001b9c:	2b01      	cmp	r3, #1
 8001b9e:	d9d2      	bls.n	8001b46 <HAL_ADC_Init+0x9a>
 8001ba0:	486d      	ldr	r0, [pc, #436]	; (8001d58 <HAL_ADC_Init+0x2ac>)
 8001ba2:	f240 114b 	movw	r1, #331	; 0x14b
 8001ba6:	f7ff fd79 	bl	800169c <assert_failed>
  assert_param(IS_ADC_EOCSelection(hadc->Init.EOCSelection));
 8001baa:	6963      	ldr	r3, [r4, #20]
 8001bac:	2b02      	cmp	r3, #2
 8001bae:	d9cd      	bls.n	8001b4c <HAL_ADC_Init+0xa0>
 8001bb0:	4869      	ldr	r0, [pc, #420]	; (8001d58 <HAL_ADC_Init+0x2ac>)
 8001bb2:	f44f 71a6 	mov.w	r1, #332	; 0x14c
 8001bb6:	f7ff fd71 	bl	800169c <assert_failed>
  assert_param(IS_FUNCTIONAL_STATE(hadc->Init.DiscontinuousConvMode));
 8001bba:	f894 3020 	ldrb.w	r3, [r4, #32]
 8001bbe:	2b01      	cmp	r3, #1
 8001bc0:	d9c8      	bls.n	8001b54 <HAL_ADC_Init+0xa8>
 8001bc2:	4865      	ldr	r0, [pc, #404]	; (8001d58 <HAL_ADC_Init+0x2ac>)
 8001bc4:	f240 114d 	movw	r1, #333	; 0x14d
 8001bc8:	f7ff fd68 	bl	800169c <assert_failed>
 8001bcc:	e7c2      	b.n	8001b54 <HAL_ADC_Init+0xa8>
  assert_param(IS_FUNCTIONAL_STATE(hadc->Init.ContinuousConvMode));
 8001bce:	f240 1147 	movw	r1, #327	; 0x147
 8001bd2:	4861      	ldr	r0, [pc, #388]	; (8001d58 <HAL_ADC_Init+0x2ac>)
 8001bd4:	f7ff fd62 	bl	800169c <assert_failed>
  assert_param(IS_ADC_EXT_TRIG(hadc->Init.ExternalTrigConv));
 8001bd8:	6aa3      	ldr	r3, [r4, #40]	; 0x28
 8001bda:	f033 7240 	bics.w	r2, r3, #50331648	; 0x3000000
 8001bde:	f023 7180 	bic.w	r1, r3, #16777216	; 0x1000000
 8001be2:	d0a4      	beq.n	8001b2e <HAL_ADC_Init+0x82>
 8001be4:	e78e      	b.n	8001b04 <HAL_ADC_Init+0x58>
  assert_param(IS_FUNCTIONAL_STATE(hadc->Init.ScanConvMode));
 8001be6:	485c      	ldr	r0, [pc, #368]	; (8001d58 <HAL_ADC_Init+0x2ac>)
 8001be8:	f44f 71a3 	mov.w	r1, #326	; 0x146
 8001bec:	f7ff fd56 	bl	800169c <assert_failed>
  assert_param(IS_FUNCTIONAL_STATE(hadc->Init.ContinuousConvMode));
 8001bf0:	7e23      	ldrb	r3, [r4, #24]
 8001bf2:	2b01      	cmp	r3, #1
 8001bf4:	d980      	bls.n	8001af8 <HAL_ADC_Init+0x4c>
 8001bf6:	e7ea      	b.n	8001bce <HAL_ADC_Init+0x122>
    HAL_ADC_MspInit(hadc);
 8001bf8:	4620      	mov	r0, r4
 8001bfa:	f7fe fe57 	bl	80008ac <HAL_ADC_MspInit>
    ADC_CLEAR_ERRORCODE(hadc);
 8001bfe:	6465      	str	r5, [r4, #68]	; 0x44
  if (HAL_IS_BIT_CLR(hadc->State, HAL_ADC_STATE_ERROR_INTERNAL))
 8001c00:	6c23      	ldr	r3, [r4, #64]	; 0x40
    hadc->Lock = HAL_UNLOCKED;
 8001c02:	f884 503c 	strb.w	r5, [r4, #60]	; 0x3c
  if (HAL_IS_BIT_CLR(hadc->State, HAL_ADC_STATE_ERROR_INTERNAL))
 8001c06:	06db      	lsls	r3, r3, #27
 8001c08:	d4b3      	bmi.n	8001b72 <HAL_ADC_Init+0xc6>
    ADC_STATE_CLR_SET(hadc->State,
 8001c0a:	6c22      	ldr	r2, [r4, #64]	; 0x40
  /* (Depending on STM32F4 product, there may be up to 3 ADCs and 1 common */
  /* control register)                                                    */
  tmpADC_Common = ADC_COMMON_REGISTER(hadc);
  
  /* Set the ADC clock prescaler */
  tmpADC_Common->CCR &= ~(ADC_CCR_ADCPRE);
 8001c0c:	4954      	ldr	r1, [pc, #336]	; (8001d60 <HAL_ADC_Init+0x2b4>)
  tmpADC_Common->CCR |=  hadc->Init.ClockPrescaler;
  
  /* Set ADC scan mode */
  hadc->Instance->CR1 &= ~(ADC_CR1_SCAN);
 8001c0e:	6823      	ldr	r3, [r4, #0]
  /* Enable external trigger if trigger selection is different of software  */
  /* start.                                                                 */
  /* Note: This configuration keeps the hardware feature of parameter       */
  /*       ExternalTrigConvEdge "trigger edge none" equivalent to           */
  /*       software start.                                                  */
  if(hadc->Init.ExternalTrigConv != ADC_SOFTWARE_START)
 8001c10:	4d52      	ldr	r5, [pc, #328]	; (8001d5c <HAL_ADC_Init+0x2b0>)
    ADC_STATE_CLR_SET(hadc->State,
 8001c12:	f422 5288 	bic.w	r2, r2, #4352	; 0x1100
 8001c16:	f022 0202 	bic.w	r2, r2, #2
 8001c1a:	f042 0202 	orr.w	r2, r2, #2
 8001c1e:	6422      	str	r2, [r4, #64]	; 0x40
  tmpADC_Common->CCR &= ~(ADC_CCR_ADCPRE);
 8001c20:	684a      	ldr	r2, [r1, #4]
 8001c22:	f422 3240 	bic.w	r2, r2, #196608	; 0x30000
 8001c26:	604a      	str	r2, [r1, #4]
  tmpADC_Common->CCR |=  hadc->Init.ClockPrescaler;
 8001c28:	684a      	ldr	r2, [r1, #4]
 8001c2a:	6860      	ldr	r0, [r4, #4]
 8001c2c:	4302      	orrs	r2, r0
 8001c2e:	604a      	str	r2, [r1, #4]
  hadc->Instance->CR1 &= ~(ADC_CR1_SCAN);
 8001c30:	6858      	ldr	r0, [r3, #4]
  hadc->Instance->CR1 |=  ADC_CR1_SCANCONV(hadc->Init.ScanConvMode);
 8001c32:	6921      	ldr	r1, [r4, #16]
  hadc->Instance->CR1 |=  hadc->Init.Resolution;
 8001c34:	68a7      	ldr	r7, [r4, #8]
  hadc->Instance->CR2 |= hadc->Init.DataAlign;
 8001c36:	68e6      	ldr	r6, [r4, #12]
  hadc->Instance->CR1 &= ~(ADC_CR1_SCAN);
 8001c38:	f420 7080 	bic.w	r0, r0, #256	; 0x100
 8001c3c:	6058      	str	r0, [r3, #4]
  hadc->Instance->CR1 |=  ADC_CR1_SCANCONV(hadc->Init.ScanConvMode);
 8001c3e:	685a      	ldr	r2, [r3, #4]
 8001c40:	ea42 2201 	orr.w	r2, r2, r1, lsl #8
 8001c44:	605a      	str	r2, [r3, #4]
  hadc->Instance->CR1 &= ~(ADC_CR1_RES);
 8001c46:	6858      	ldr	r0, [r3, #4]
 8001c48:	f020 7040 	bic.w	r0, r0, #50331648	; 0x3000000
 8001c4c:	6058      	str	r0, [r3, #4]
  hadc->Instance->CR1 |=  hadc->Init.Resolution;
 8001c4e:	6859      	ldr	r1, [r3, #4]
  if(hadc->Init.ExternalTrigConv != ADC_SOFTWARE_START)
 8001c50:	6aa0      	ldr	r0, [r4, #40]	; 0x28
  hadc->Instance->CR1 |=  hadc->Init.Resolution;
 8001c52:	4339      	orrs	r1, r7
 8001c54:	6059      	str	r1, [r3, #4]
  hadc->Instance->CR2 &= ~(ADC_CR2_ALIGN);
 8001c56:	6899      	ldr	r1, [r3, #8]
 8001c58:	f421 6100 	bic.w	r1, r1, #2048	; 0x800
 8001c5c:	6099      	str	r1, [r3, #8]
  hadc->Instance->CR2 |= hadc->Init.DataAlign;
 8001c5e:	689a      	ldr	r2, [r3, #8]
  if(hadc->Init.ExternalTrigConv != ADC_SOFTWARE_START)
 8001c60:	42a8      	cmp	r0, r5
  hadc->Instance->CR2 |= hadc->Init.DataAlign;
 8001c62:	ea42 0206 	orr.w	r2, r2, r6
 8001c66:	609a      	str	r2, [r3, #8]
  if(hadc->Init.ExternalTrigConv != ADC_SOFTWARE_START)
 8001c68:	d05a      	beq.n	8001d20 <HAL_ADC_Init+0x274>
  {
    /* Select external trigger to start conversion */
    hadc->Instance->CR2 &= ~(ADC_CR2_EXTSEL);
 8001c6a:	6899      	ldr	r1, [r3, #8]
    hadc->Instance->CR2 |= hadc->Init.ExternalTrigConv;
    
    /* Select external trigger polarity */
    hadc->Instance->CR2 &= ~(ADC_CR2_EXTEN);
    hadc->Instance->CR2 |= hadc->Init.ExternalTrigConvEdge;
 8001c6c:	6ae5      	ldr	r5, [r4, #44]	; 0x2c
    hadc->Instance->CR2 &= ~(ADC_CR2_EXTSEL);
 8001c6e:	f021 6170 	bic.w	r1, r1, #251658240	; 0xf000000
 8001c72:	6099      	str	r1, [r3, #8]
    hadc->Instance->CR2 |= hadc->Init.ExternalTrigConv;
 8001c74:	689a      	ldr	r2, [r3, #8]
 8001c76:	4310      	orrs	r0, r2
 8001c78:	6098      	str	r0, [r3, #8]
    hadc->Instance->CR2 &= ~(ADC_CR2_EXTEN);
 8001c7a:	6899      	ldr	r1, [r3, #8]
 8001c7c:	f021 5140 	bic.w	r1, r1, #805306368	; 0x30000000
 8001c80:	6099      	str	r1, [r3, #8]
    hadc->Instance->CR2 |= hadc->Init.ExternalTrigConvEdge;
 8001c82:	689a      	ldr	r2, [r3, #8]
 8001c84:	432a      	orrs	r2, r5
 8001c86:	609a      	str	r2, [r3, #8]
    hadc->Instance->CR2 &= ~(ADC_CR2_EXTSEL);
    hadc->Instance->CR2 &= ~(ADC_CR2_EXTEN);
  }
  
  /* Enable or disable ADC continuous conversion mode */
  hadc->Instance->CR2 &= ~(ADC_CR2_CONT);
 8001c88:	689a      	ldr	r2, [r3, #8]
 8001c8a:	f022 0202 	bic.w	r2, r2, #2
 8001c8e:	609a      	str	r2, [r3, #8]
  hadc->Instance->CR2 |= ADC_CR2_CONTINUOUS((uint32_t)hadc->Init.ContinuousConvMode);
 8001c90:	689a      	ldr	r2, [r3, #8]
 8001c92:	7e21      	ldrb	r1, [r4, #24]
 8001c94:	ea42 0241 	orr.w	r2, r2, r1, lsl #1
 8001c98:	609a      	str	r2, [r3, #8]
  
  if(hadc->Init.DiscontinuousConvMode != DISABLE)
 8001c9a:	f894 2020 	ldrb.w	r2, [r4, #32]
 8001c9e:	2a00      	cmp	r2, #0
 8001ca0:	d049      	beq.n	8001d36 <HAL_ADC_Init+0x28a>
  {
    assert_param(IS_ADC_REGULAR_DISC_NUMBER(hadc->Init.NbrOfDiscConversion));
 8001ca2:	6a62      	ldr	r2, [r4, #36]	; 0x24
 8001ca4:	3a01      	subs	r2, #1
 8001ca6:	2a07      	cmp	r2, #7
 8001ca8:	d84a      	bhi.n	8001d40 <HAL_ADC_Init+0x294>
  
    /* Enable the selected ADC regular discontinuous mode */
    hadc->Instance->CR1 |= (uint32_t)ADC_CR1_DISCEN;
 8001caa:	6859      	ldr	r1, [r3, #4]
 8001cac:	f441 6100 	orr.w	r1, r1, #2048	; 0x800
 8001cb0:	6059      	str	r1, [r3, #4]
    
    /* Set the number of channels to be converted in discontinuous mode */
    hadc->Instance->CR1 &= ~(ADC_CR1_DISCNUM);
 8001cb2:	6859      	ldr	r1, [r3, #4]
 8001cb4:	f421 4160 	bic.w	r1, r1, #57344	; 0xe000
 8001cb8:	6059      	str	r1, [r3, #4]
    hadc->Instance->CR1 |=  ADC_CR1_DISCONTINUOUS(hadc->Init.NbrOfDiscConversion);
 8001cba:	6859      	ldr	r1, [r3, #4]
 8001cbc:	ea41 3242 	orr.w	r2, r1, r2, lsl #13
 8001cc0:	605a      	str	r2, [r3, #4]
    /* Disable the selected ADC regular discontinuous mode */
    hadc->Instance->CR1 &= ~(ADC_CR1_DISCEN);
  }
  
  /* Set ADC number of conversion */
  hadc->Instance->SQR1 &= ~(ADC_SQR1_L);
 8001cc2:	6ada      	ldr	r2, [r3, #44]	; 0x2c
  hadc->Instance->SQR1 |=  ADC_SQR1(hadc->Init.NbrOfConversion);
 8001cc4:	69e0      	ldr	r0, [r4, #28]
  hadc->Instance->CR2 &= ~(ADC_CR2_DDS);
  hadc->Instance->CR2 |= ADC_CR2_DMAContReq((uint32_t)hadc->Init.DMAContinuousRequests);
  
  /* Enable or disable ADC end of conversion selection */
  hadc->Instance->CR2 &= ~(ADC_CR2_EOCS);
  hadc->Instance->CR2 |= ADC_CR2_EOCSelection(hadc->Init.EOCSelection);
 8001cc6:	6965      	ldr	r5, [r4, #20]
  hadc->Instance->SQR1 &= ~(ADC_SQR1_L);
 8001cc8:	f422 0270 	bic.w	r2, r2, #15728640	; 0xf00000
 8001ccc:	62da      	str	r2, [r3, #44]	; 0x2c
  hadc->Instance->SQR1 |=  ADC_SQR1(hadc->Init.NbrOfConversion);
 8001cce:	6ad9      	ldr	r1, [r3, #44]	; 0x2c
 8001cd0:	3801      	subs	r0, #1
 8001cd2:	ea41 5100 	orr.w	r1, r1, r0, lsl #20
 8001cd6:	62d9      	str	r1, [r3, #44]	; 0x2c
  hadc->Instance->CR2 &= ~(ADC_CR2_DDS);
 8001cd8:	6899      	ldr	r1, [r3, #8]
 8001cda:	f421 7100 	bic.w	r1, r1, #512	; 0x200
 8001cde:	6099      	str	r1, [r3, #8]
  hadc->Instance->CR2 |= ADC_CR2_DMAContReq((uint32_t)hadc->Init.DMAContinuousRequests);
 8001ce0:	6899      	ldr	r1, [r3, #8]
 8001ce2:	f894 2030 	ldrb.w	r2, [r4, #48]	; 0x30
 8001ce6:	ea41 2142 	orr.w	r1, r1, r2, lsl #9
 8001cea:	6099      	str	r1, [r3, #8]
  hadc->Instance->CR2 &= ~(ADC_CR2_EOCS);
 8001cec:	6899      	ldr	r1, [r3, #8]
 8001cee:	f421 6180 	bic.w	r1, r1, #1024	; 0x400
 8001cf2:	6099      	str	r1, [r3, #8]
  hadc->Instance->CR2 |= ADC_CR2_EOCSelection(hadc->Init.EOCSelection);
 8001cf4:	689a      	ldr	r2, [r3, #8]
    ADC_CLEAR_ERRORCODE(hadc);
 8001cf6:	2000      	movs	r0, #0
  hadc->Instance->CR2 |= ADC_CR2_EOCSelection(hadc->Init.EOCSelection);
 8001cf8:	ea42 2285 	orr.w	r2, r2, r5, lsl #10
 8001cfc:	609a      	str	r2, [r3, #8]
    ADC_CLEAR_ERRORCODE(hadc);
 8001cfe:	6460      	str	r0, [r4, #68]	; 0x44
    ADC_STATE_CLR_SET(hadc->State,
 8001d00:	6c23      	ldr	r3, [r4, #64]	; 0x40
 8001d02:	f023 0303 	bic.w	r3, r3, #3
 8001d06:	f043 0301 	orr.w	r3, r3, #1
 8001d0a:	6423      	str	r3, [r4, #64]	; 0x40
  __HAL_UNLOCK(hadc);
 8001d0c:	2300      	movs	r3, #0
 8001d0e:	f884 303c 	strb.w	r3, [r4, #60]	; 0x3c
}
 8001d12:	bdf8      	pop	{r3, r4, r5, r6, r7, pc}
    assert_param(IS_ADC_EXT_TRIG_EDGE(hadc->Init.ExternalTrigConvEdge));
 8001d14:	4810      	ldr	r0, [pc, #64]	; (8001d58 <HAL_ADC_Init+0x2ac>)
 8001d16:	f240 1151 	movw	r1, #337	; 0x151
 8001d1a:	f7ff fcbf 	bl	800169c <assert_failed>
 8001d1e:	e722      	b.n	8001b66 <HAL_ADC_Init+0xba>
    hadc->Instance->CR2 &= ~(ADC_CR2_EXTSEL);
 8001d20:	689a      	ldr	r2, [r3, #8]
 8001d22:	f022 6270 	bic.w	r2, r2, #251658240	; 0xf000000
 8001d26:	609a      	str	r2, [r3, #8]
    hadc->Instance->CR2 &= ~(ADC_CR2_EXTEN);
 8001d28:	689a      	ldr	r2, [r3, #8]
 8001d2a:	f022 5240 	bic.w	r2, r2, #805306368	; 0x30000000
 8001d2e:	609a      	str	r2, [r3, #8]
 8001d30:	e7aa      	b.n	8001c88 <HAL_ADC_Init+0x1dc>
    return HAL_ERROR;
 8001d32:	2001      	movs	r0, #1
}
 8001d34:	4770      	bx	lr
    hadc->Instance->CR1 &= ~(ADC_CR1_DISCEN);
 8001d36:	685a      	ldr	r2, [r3, #4]
 8001d38:	f422 6200 	bic.w	r2, r2, #2048	; 0x800
 8001d3c:	605a      	str	r2, [r3, #4]
 8001d3e:	e7c0      	b.n	8001cc2 <HAL_ADC_Init+0x216>
    assert_param(IS_ADC_REGULAR_DISC_NUMBER(hadc->Init.NbrOfDiscConversion));
 8001d40:	4805      	ldr	r0, [pc, #20]	; (8001d58 <HAL_ADC_Init+0x2ac>)
 8001d42:	f240 71a6 	movw	r1, #1958	; 0x7a6
 8001d46:	f7ff fca9 	bl	800169c <assert_failed>
 8001d4a:	6a62      	ldr	r2, [r4, #36]	; 0x24
 8001d4c:	6823      	ldr	r3, [r4, #0]
 8001d4e:	3a01      	subs	r2, #1
 8001d50:	e7ab      	b.n	8001caa <HAL_ADC_Init+0x1fe>
 8001d52:	bf00      	nop
 8001d54:	40012000 	.word	0x40012000
 8001d58:	0800957c 	.word	0x0800957c
 8001d5c:	0f000001 	.word	0x0f000001
 8001d60:	40012300 	.word	0x40012300

08001d64 <HAL_ADC_ConfigChannel>:
{
 8001d64:	b5f0      	push	{r4, r5, r6, r7, lr}
  assert_param(IS_ADC_CHANNEL(sConfig->Channel));
 8001d66:	680b      	ldr	r3, [r1, #0]
{
 8001d68:	b083      	sub	sp, #12
  __IO uint32_t counter = 0U;
 8001d6a:	2200      	movs	r2, #0
  assert_param(IS_ADC_CHANNEL(sConfig->Channel));
 8001d6c:	2b12      	cmp	r3, #18
{
 8001d6e:	460e      	mov	r6, r1
 8001d70:	4604      	mov	r4, r0
  __IO uint32_t counter = 0U;
 8001d72:	9201      	str	r2, [sp, #4]
  assert_param(IS_ADC_CHANNEL(sConfig->Channel));
 8001d74:	d903      	bls.n	8001d7e <HAL_ADC_ConfigChannel+0x1a>
 8001d76:	4a6a      	ldr	r2, [pc, #424]	; (8001f20 <HAL_ADC_ConfigChannel+0x1bc>)
 8001d78:	4293      	cmp	r3, r2
 8001d7a:	f040 8087 	bne.w	8001e8c <HAL_ADC_ConfigChannel+0x128>
  assert_param(IS_ADC_REGULAR_RANK(sConfig->Rank));
 8001d7e:	6873      	ldr	r3, [r6, #4]
 8001d80:	3b01      	subs	r3, #1
 8001d82:	2b0f      	cmp	r3, #15
 8001d84:	f200 808c 	bhi.w	8001ea0 <HAL_ADC_ConfigChannel+0x13c>
  assert_param(IS_ADC_SAMPLE_TIME(sConfig->SamplingTime));
 8001d88:	68b3      	ldr	r3, [r6, #8]
 8001d8a:	2b07      	cmp	r3, #7
 8001d8c:	f200 8091 	bhi.w	8001eb2 <HAL_ADC_ConfigChannel+0x14e>
  __HAL_LOCK(hadc);
 8001d90:	f894 303c 	ldrb.w	r3, [r4, #60]	; 0x3c
 8001d94:	2b01      	cmp	r3, #1
 8001d96:	f000 8096 	beq.w	8001ec6 <HAL_ADC_ConfigChannel+0x162>
 8001d9a:	2301      	movs	r3, #1
 8001d9c:	f884 303c 	strb.w	r3, [r4, #60]	; 0x3c
  if (sConfig->Channel > ADC_CHANNEL_9)
 8001da0:	6835      	ldr	r5, [r6, #0]
 8001da2:	2d09      	cmp	r5, #9
 8001da4:	d827      	bhi.n	8001df6 <HAL_ADC_ConfigChannel+0x92>
    hadc->Instance->SMPR2 &= ~ADC_SMPR2(ADC_SMPR2_SMP0, sConfig->Channel);
 8001da6:	6820      	ldr	r0, [r4, #0]
    hadc->Instance->SMPR2 |= ADC_SMPR2(sConfig->SamplingTime, sConfig->Channel);
 8001da8:	68b3      	ldr	r3, [r6, #8]
    hadc->Instance->SMPR2 &= ~ADC_SMPR2(ADC_SMPR2_SMP0, sConfig->Channel);
 8001daa:	6902      	ldr	r2, [r0, #16]
 8001dac:	eb05 0745 	add.w	r7, r5, r5, lsl #1
 8001db0:	2107      	movs	r1, #7
 8001db2:	40b9      	lsls	r1, r7
 8001db4:	ea22 0201 	bic.w	r2, r2, r1
 8001db8:	6102      	str	r2, [r0, #16]
    hadc->Instance->SMPR2 |= ADC_SMPR2(sConfig->SamplingTime, sConfig->Channel);
 8001dba:	6902      	ldr	r2, [r0, #16]
 8001dbc:	40bb      	lsls	r3, r7
 8001dbe:	4313      	orrs	r3, r2
 8001dc0:	6103      	str	r3, [r0, #16]
  if (sConfig->Rank < 7U)
 8001dc2:	6873      	ldr	r3, [r6, #4]
 8001dc4:	2b06      	cmp	r3, #6
    hadc->Instance->SMPR2 |= ADC_SMPR2(sConfig->SamplingTime, sConfig->Channel);
 8001dc6:	462f      	mov	r7, r5
  if (sConfig->Rank < 7U)
 8001dc8:	d82a      	bhi.n	8001e20 <HAL_ADC_ConfigChannel+0xbc>
    hadc->Instance->SQR3 &= ~ADC_SQR3_RK(ADC_SQR3_SQ1, sConfig->Rank);
 8001dca:	eb03 0383 	add.w	r3, r3, r3, lsl #2
 8001dce:	6b42      	ldr	r2, [r0, #52]	; 0x34
 8001dd0:	3b05      	subs	r3, #5
 8001dd2:	211f      	movs	r1, #31
 8001dd4:	4099      	lsls	r1, r3
 8001dd6:	ea22 0201 	bic.w	r2, r2, r1
 8001dda:	6342      	str	r2, [r0, #52]	; 0x34
    hadc->Instance->SQR3 |= ADC_SQR3_RK(sConfig->Channel, sConfig->Rank);
 8001ddc:	6b42      	ldr	r2, [r0, #52]	; 0x34
 8001dde:	fa07 f303 	lsl.w	r3, r7, r3
 8001de2:	4313      	orrs	r3, r2
 8001de4:	6343      	str	r3, [r0, #52]	; 0x34
  if ((hadc->Instance == ADC1) && (sConfig->Channel == ADC_CHANNEL_VBAT))
 8001de6:	4b4f      	ldr	r3, [pc, #316]	; (8001f24 <HAL_ADC_ConfigChannel+0x1c0>)
 8001de8:	4298      	cmp	r0, r3
 8001dea:	d02d      	beq.n	8001e48 <HAL_ADC_ConfigChannel+0xe4>
  __HAL_UNLOCK(hadc);
 8001dec:	2000      	movs	r0, #0
 8001dee:	f884 003c 	strb.w	r0, [r4, #60]	; 0x3c
}
 8001df2:	b003      	add	sp, #12
 8001df4:	bdf0      	pop	{r4, r5, r6, r7, pc}
    hadc->Instance->SMPR1 &= ~ADC_SMPR1(ADC_SMPR1_SMP10, sConfig->Channel);
 8001df6:	6820      	ldr	r0, [r4, #0]
    hadc->Instance->SMPR1 |= ADC_SMPR1(sConfig->SamplingTime, sConfig->Channel);
 8001df8:	68b3      	ldr	r3, [r6, #8]
    hadc->Instance->SMPR1 &= ~ADC_SMPR1(ADC_SMPR1_SMP10, sConfig->Channel);
 8001dfa:	68c1      	ldr	r1, [r0, #12]
 8001dfc:	b2af      	uxth	r7, r5
 8001dfe:	eb07 0247 	add.w	r2, r7, r7, lsl #1
 8001e02:	3a1e      	subs	r2, #30
 8001e04:	f04f 0c07 	mov.w	ip, #7
 8001e08:	fa0c fc02 	lsl.w	ip, ip, r2
 8001e0c:	ea21 010c 	bic.w	r1, r1, ip
 8001e10:	60c1      	str	r1, [r0, #12]
    hadc->Instance->SMPR1 |= ADC_SMPR1(sConfig->SamplingTime, sConfig->Channel);
 8001e12:	68c1      	ldr	r1, [r0, #12]
 8001e14:	4093      	lsls	r3, r2
 8001e16:	430b      	orrs	r3, r1
 8001e18:	60c3      	str	r3, [r0, #12]
  if (sConfig->Rank < 7U)
 8001e1a:	6873      	ldr	r3, [r6, #4]
 8001e1c:	2b06      	cmp	r3, #6
 8001e1e:	d9d4      	bls.n	8001dca <HAL_ADC_ConfigChannel+0x66>
  else if (sConfig->Rank < 13U)
 8001e20:	2b0c      	cmp	r3, #12
 8001e22:	d853      	bhi.n	8001ecc <HAL_ADC_ConfigChannel+0x168>
    hadc->Instance->SQR2 &= ~ADC_SQR2_RK(ADC_SQR2_SQ7, sConfig->Rank);
 8001e24:	eb03 0383 	add.w	r3, r3, r3, lsl #2
 8001e28:	f1a3 0123 	sub.w	r1, r3, #35	; 0x23
 8001e2c:	221f      	movs	r2, #31
 8001e2e:	6b03      	ldr	r3, [r0, #48]	; 0x30
 8001e30:	408a      	lsls	r2, r1
 8001e32:	ea23 0302 	bic.w	r3, r3, r2
 8001e36:	6303      	str	r3, [r0, #48]	; 0x30
    hadc->Instance->SQR2 |= ADC_SQR2_RK(sConfig->Channel, sConfig->Rank);
 8001e38:	6b03      	ldr	r3, [r0, #48]	; 0x30
 8001e3a:	fa07 f101 	lsl.w	r1, r7, r1
 8001e3e:	4319      	orrs	r1, r3
  if ((hadc->Instance == ADC1) && (sConfig->Channel == ADC_CHANNEL_VBAT))
 8001e40:	4b38      	ldr	r3, [pc, #224]	; (8001f24 <HAL_ADC_ConfigChannel+0x1c0>)
    hadc->Instance->SQR2 |= ADC_SQR2_RK(sConfig->Channel, sConfig->Rank);
 8001e42:	6301      	str	r1, [r0, #48]	; 0x30
  if ((hadc->Instance == ADC1) && (sConfig->Channel == ADC_CHANNEL_VBAT))
 8001e44:	4298      	cmp	r0, r3
 8001e46:	d1d1      	bne.n	8001dec <HAL_ADC_ConfigChannel+0x88>
 8001e48:	2d12      	cmp	r5, #18
 8001e4a:	d04e      	beq.n	8001eea <HAL_ADC_ConfigChannel+0x186>
  if ((hadc->Instance == ADC1) && ((sConfig->Channel == ADC_CHANNEL_TEMPSENSOR) || (sConfig->Channel == ADC_CHANNEL_VREFINT)))
 8001e4c:	4b34      	ldr	r3, [pc, #208]	; (8001f20 <HAL_ADC_ConfigChannel+0x1bc>)
 8001e4e:	429d      	cmp	r5, r3
 8001e50:	d158      	bne.n	8001f04 <HAL_ADC_ConfigChannel+0x1a0>
      tmpADC_Common->CCR &= ~ADC_CCR_VBATE;
 8001e52:	4a35      	ldr	r2, [pc, #212]	; (8001f28 <HAL_ADC_ConfigChannel+0x1c4>)
      counter = (ADC_TEMPSENSOR_DELAY_US * (SystemCoreClock / 1000000U));
 8001e54:	4b35      	ldr	r3, [pc, #212]	; (8001f2c <HAL_ADC_ConfigChannel+0x1c8>)
      tmpADC_Common->CCR &= ~ADC_CCR_VBATE;
 8001e56:	6851      	ldr	r1, [r2, #4]
      counter = (ADC_TEMPSENSOR_DELAY_US * (SystemCoreClock / 1000000U));
 8001e58:	4835      	ldr	r0, [pc, #212]	; (8001f30 <HAL_ADC_ConfigChannel+0x1cc>)
      tmpADC_Common->CCR &= ~ADC_CCR_VBATE;
 8001e5a:	f421 0180 	bic.w	r1, r1, #4194304	; 0x400000
 8001e5e:	6051      	str	r1, [r2, #4]
    tmpADC_Common->CCR |= ADC_CCR_TSVREFE;
 8001e60:	6851      	ldr	r1, [r2, #4]
 8001e62:	f441 0100 	orr.w	r1, r1, #8388608	; 0x800000
 8001e66:	6051      	str	r1, [r2, #4]
      counter = (ADC_TEMPSENSOR_DELAY_US * (SystemCoreClock / 1000000U));
 8001e68:	681b      	ldr	r3, [r3, #0]
 8001e6a:	fba0 2303 	umull	r2, r3, r0, r3
 8001e6e:	0c9b      	lsrs	r3, r3, #18
 8001e70:	eb03 0383 	add.w	r3, r3, r3, lsl #2
 8001e74:	005b      	lsls	r3, r3, #1
 8001e76:	9301      	str	r3, [sp, #4]
      while(counter != 0U)
 8001e78:	9b01      	ldr	r3, [sp, #4]
 8001e7a:	2b00      	cmp	r3, #0
 8001e7c:	d0b6      	beq.n	8001dec <HAL_ADC_ConfigChannel+0x88>
        counter--;
 8001e7e:	9b01      	ldr	r3, [sp, #4]
 8001e80:	3b01      	subs	r3, #1
 8001e82:	9301      	str	r3, [sp, #4]
      while(counter != 0U)
 8001e84:	9b01      	ldr	r3, [sp, #4]
 8001e86:	2b00      	cmp	r3, #0
 8001e88:	d1f9      	bne.n	8001e7e <HAL_ADC_ConfigChannel+0x11a>
 8001e8a:	e7af      	b.n	8001dec <HAL_ADC_ConfigChannel+0x88>
  assert_param(IS_ADC_CHANNEL(sConfig->Channel));
 8001e8c:	4829      	ldr	r0, [pc, #164]	; (8001f34 <HAL_ADC_ConfigChannel+0x1d0>)
 8001e8e:	f240 6189 	movw	r1, #1673	; 0x689
 8001e92:	f7ff fc03 	bl	800169c <assert_failed>
  assert_param(IS_ADC_REGULAR_RANK(sConfig->Rank));
 8001e96:	6873      	ldr	r3, [r6, #4]
 8001e98:	3b01      	subs	r3, #1
 8001e9a:	2b0f      	cmp	r3, #15
 8001e9c:	f67f af74 	bls.w	8001d88 <HAL_ADC_ConfigChannel+0x24>
 8001ea0:	4824      	ldr	r0, [pc, #144]	; (8001f34 <HAL_ADC_ConfigChannel+0x1d0>)
 8001ea2:	f240 618a 	movw	r1, #1674	; 0x68a
 8001ea6:	f7ff fbf9 	bl	800169c <assert_failed>
  assert_param(IS_ADC_SAMPLE_TIME(sConfig->SamplingTime));
 8001eaa:	68b3      	ldr	r3, [r6, #8]
 8001eac:	2b07      	cmp	r3, #7
 8001eae:	f67f af6f 	bls.w	8001d90 <HAL_ADC_ConfigChannel+0x2c>
 8001eb2:	4820      	ldr	r0, [pc, #128]	; (8001f34 <HAL_ADC_ConfigChannel+0x1d0>)
 8001eb4:	f240 618b 	movw	r1, #1675	; 0x68b
 8001eb8:	f7ff fbf0 	bl	800169c <assert_failed>
  __HAL_LOCK(hadc);
 8001ebc:	f894 303c 	ldrb.w	r3, [r4, #60]	; 0x3c
 8001ec0:	2b01      	cmp	r3, #1
 8001ec2:	f47f af6a 	bne.w	8001d9a <HAL_ADC_ConfigChannel+0x36>
 8001ec6:	2002      	movs	r0, #2
}
 8001ec8:	b003      	add	sp, #12
 8001eca:	bdf0      	pop	{r4, r5, r6, r7, pc}
    hadc->Instance->SQR1 &= ~ADC_SQR1_RK(ADC_SQR1_SQ13, sConfig->Rank);
 8001ecc:	eb03 0283 	add.w	r2, r3, r3, lsl #2
 8001ed0:	3a41      	subs	r2, #65	; 0x41
 8001ed2:	6ac3      	ldr	r3, [r0, #44]	; 0x2c
 8001ed4:	211f      	movs	r1, #31
 8001ed6:	4091      	lsls	r1, r2
 8001ed8:	ea23 0301 	bic.w	r3, r3, r1
 8001edc:	62c3      	str	r3, [r0, #44]	; 0x2c
    hadc->Instance->SQR1 |= ADC_SQR1_RK(sConfig->Channel, sConfig->Rank);
 8001ede:	6ac3      	ldr	r3, [r0, #44]	; 0x2c
 8001ee0:	fa07 f102 	lsl.w	r1, r7, r2
 8001ee4:	4319      	orrs	r1, r3
 8001ee6:	62c1      	str	r1, [r0, #44]	; 0x2c
 8001ee8:	e77d      	b.n	8001de6 <HAL_ADC_ConfigChannel+0x82>
      tmpADC_Common->CCR &= ~ADC_CCR_TSVREFE;
 8001eea:	f8d3 2304 	ldr.w	r2, [r3, #772]	; 0x304
 8001eee:	f422 0200 	bic.w	r2, r2, #8388608	; 0x800000
 8001ef2:	f8c3 2304 	str.w	r2, [r3, #772]	; 0x304
    tmpADC_Common->CCR |= ADC_CCR_VBATE;
 8001ef6:	f8d3 2304 	ldr.w	r2, [r3, #772]	; 0x304
 8001efa:	f442 0280 	orr.w	r2, r2, #4194304	; 0x400000
 8001efe:	f8c3 2304 	str.w	r2, [r3, #772]	; 0x304
  if ((hadc->Instance == ADC1) && ((sConfig->Channel == ADC_CHANNEL_TEMPSENSOR) || (sConfig->Channel == ADC_CHANNEL_VREFINT)))
 8001f02:	e773      	b.n	8001dec <HAL_ADC_ConfigChannel+0x88>
 8001f04:	2d11      	cmp	r5, #17
 8001f06:	f47f af71 	bne.w	8001dec <HAL_ADC_ConfigChannel+0x88>
      tmpADC_Common->CCR &= ~ADC_CCR_VBATE;
 8001f0a:	4b07      	ldr	r3, [pc, #28]	; (8001f28 <HAL_ADC_ConfigChannel+0x1c4>)
 8001f0c:	685a      	ldr	r2, [r3, #4]
 8001f0e:	f422 0280 	bic.w	r2, r2, #4194304	; 0x400000
 8001f12:	605a      	str	r2, [r3, #4]
    tmpADC_Common->CCR |= ADC_CCR_TSVREFE;
 8001f14:	685a      	ldr	r2, [r3, #4]
 8001f16:	f442 0200 	orr.w	r2, r2, #8388608	; 0x800000
 8001f1a:	605a      	str	r2, [r3, #4]
    if((sConfig->Channel == ADC_CHANNEL_TEMPSENSOR))
 8001f1c:	e766      	b.n	8001dec <HAL_ADC_ConfigChannel+0x88>
 8001f1e:	bf00      	nop
 8001f20:	10000012 	.word	0x10000012
 8001f24:	40012000 	.word	0x40012000
 8001f28:	40012300 	.word	0x40012300
 8001f2c:	20000000 	.word	0x20000000
 8001f30:	431bde83 	.word	0x431bde83
 8001f34:	0800957c 	.word	0x0800957c

08001f38 <HAL_NVIC_SetPriorityGrouping>:
  * @retval None
  */
void HAL_NVIC_SetPriorityGrouping(uint32_t PriorityGroup)
{
  /* Check the parameters */
  assert_param(IS_NVIC_PRIORITY_GROUP(PriorityGroup));
 8001f38:	1ec3      	subs	r3, r0, #3
 8001f3a:	2b04      	cmp	r3, #4
{
 8001f3c:	b510      	push	{r4, lr}
 8001f3e:	4604      	mov	r4, r0
  assert_param(IS_NVIC_PRIORITY_GROUP(PriorityGroup));
 8001f40:	d80e      	bhi.n	8001f60 <HAL_NVIC_SetPriorityGrouping+0x28>
__STATIC_INLINE void __NVIC_SetPriorityGrouping(uint32_t PriorityGroup)
{
  uint32_t reg_value;
  uint32_t PriorityGroupTmp = (PriorityGroup & (uint32_t)0x07UL);             /* only values 0..7 are used          */

  reg_value  =  SCB->AIRCR;                                                   /* read old register configuration    */
 8001f42:	490a      	ldr	r1, [pc, #40]	; (8001f6c <HAL_NVIC_SetPriorityGrouping+0x34>)
 8001f44:	68ca      	ldr	r2, [r1, #12]
  reg_value &= ~((uint32_t)(SCB_AIRCR_VECTKEY_Msk | SCB_AIRCR_PRIGROUP_Msk)); /* clear bits to change               */
  reg_value  =  (reg_value                                   |
                ((uint32_t)0x5FAUL << SCB_AIRCR_VECTKEY_Pos) |
                (PriorityGroupTmp << SCB_AIRCR_PRIGROUP_Pos)  );              /* Insert write key and priority group */
 8001f46:	0223      	lsls	r3, r4, #8
  reg_value &= ~((uint32_t)(SCB_AIRCR_VECTKEY_Msk | SCB_AIRCR_PRIGROUP_Msk)); /* clear bits to change               */
 8001f48:	f64f 04ff 	movw	r4, #63743	; 0xf8ff
                (PriorityGroupTmp << SCB_AIRCR_PRIGROUP_Pos)  );              /* Insert write key and priority group */
 8001f4c:	f403 63e0 	and.w	r3, r3, #1792	; 0x700
  reg_value &= ~((uint32_t)(SCB_AIRCR_VECTKEY_Msk | SCB_AIRCR_PRIGROUP_Msk)); /* clear bits to change               */
 8001f50:	4014      	ands	r4, r2
                ((uint32_t)0x5FAUL << SCB_AIRCR_VECTKEY_Pos) |
 8001f52:	4323      	orrs	r3, r4
  reg_value  =  (reg_value                                   |
 8001f54:	f043 63bf 	orr.w	r3, r3, #100139008	; 0x5f80000
 8001f58:	f443 3300 	orr.w	r3, r3, #131072	; 0x20000
  SCB->AIRCR =  reg_value;
 8001f5c:	60cb      	str	r3, [r1, #12]
  
  /* Set the PRIGROUP[10:8] bits according to the PriorityGroup parameter value */
  NVIC_SetPriorityGrouping(PriorityGroup);
}
 8001f5e:	bd10      	pop	{r4, pc}
  assert_param(IS_NVIC_PRIORITY_GROUP(PriorityGroup));
 8001f60:	4803      	ldr	r0, [pc, #12]	; (8001f70 <HAL_NVIC_SetPriorityGrouping+0x38>)
 8001f62:	2192      	movs	r1, #146	; 0x92
 8001f64:	f7ff fb9a 	bl	800169c <assert_failed>
 8001f68:	e7eb      	b.n	8001f42 <HAL_NVIC_SetPriorityGrouping+0xa>
 8001f6a:	bf00      	nop
 8001f6c:	e000ed00 	.word	0xe000ed00
 8001f70:	080095b4 	.word	0x080095b4

08001f74 <HAL_NVIC_SetPriority>:
void HAL_NVIC_SetPriority(IRQn_Type IRQn, uint32_t PreemptPriority, uint32_t SubPriority)
{ 
  uint32_t prioritygroup = 0x00U;
  
  /* Check the parameters */
  assert_param(IS_NVIC_SUB_PRIORITY(SubPriority));
 8001f74:	2a0f      	cmp	r2, #15
{ 
 8001f76:	b570      	push	{r4, r5, r6, lr}
 8001f78:	4616      	mov	r6, r2
 8001f7a:	4605      	mov	r5, r0
 8001f7c:	460c      	mov	r4, r1
  assert_param(IS_NVIC_SUB_PRIORITY(SubPriority));
 8001f7e:	d837      	bhi.n	8001ff0 <HAL_NVIC_SetPriority+0x7c>
  assert_param(IS_NVIC_PREEMPTION_PRIORITY(PreemptPriority));
 8001f80:	2c0f      	cmp	r4, #15
 8001f82:	d830      	bhi.n	8001fe6 <HAL_NVIC_SetPriority+0x72>
  \details Reads the priority grouping field from the NVIC Interrupt Controller.
  \return                Priority grouping field (SCB->AIRCR [10:8] PRIGROUP field).
 */
__STATIC_INLINE uint32_t __NVIC_GetPriorityGrouping(void)
{
  return ((uint32_t)((SCB->AIRCR & SCB_AIRCR_PRIGROUP_Msk) >> SCB_AIRCR_PRIGROUP_Pos));
 8001f84:	4b1d      	ldr	r3, [pc, #116]	; (8001ffc <HAL_NVIC_SetPriority+0x88>)
 8001f86:	68db      	ldr	r3, [r3, #12]
 8001f88:	f3c3 2302 	ubfx	r3, r3, #8, #3
{
  uint32_t PriorityGroupTmp = (PriorityGroup & (uint32_t)0x07UL);   /* only values 0..7 are used          */
  uint32_t PreemptPriorityBits;
  uint32_t SubPriorityBits;

  PreemptPriorityBits = ((7UL - PriorityGroupTmp) > (uint32_t)(__NVIC_PRIO_BITS)) ? (uint32_t)(__NVIC_PRIO_BITS) : (uint32_t)(7UL - PriorityGroupTmp);
 8001f8c:	f1c3 0007 	rsb	r0, r3, #7
 8001f90:	2804      	cmp	r0, #4
  SubPriorityBits     = ((PriorityGroupTmp + (uint32_t)(__NVIC_PRIO_BITS)) < (uint32_t)7UL) ? (uint32_t)0UL : (uint32_t)((PriorityGroupTmp - 7UL) + (uint32_t)(__NVIC_PRIO_BITS));
 8001f92:	f103 0204 	add.w	r2, r3, #4
  PreemptPriorityBits = ((7UL - PriorityGroupTmp) > (uint32_t)(__NVIC_PRIO_BITS)) ? (uint32_t)(__NVIC_PRIO_BITS) : (uint32_t)(7UL - PriorityGroupTmp);
 8001f96:	bf28      	it	cs
 8001f98:	2004      	movcs	r0, #4
  SubPriorityBits     = ((PriorityGroupTmp + (uint32_t)(__NVIC_PRIO_BITS)) < (uint32_t)7UL) ? (uint32_t)0UL : (uint32_t)((PriorityGroupTmp - 7UL) + (uint32_t)(__NVIC_PRIO_BITS));
 8001f9a:	2a06      	cmp	r2, #6
 8001f9c:	d918      	bls.n	8001fd0 <HAL_NVIC_SetPriority+0x5c>
 8001f9e:	3b03      	subs	r3, #3
 8001fa0:	f04f 32ff 	mov.w	r2, #4294967295
 8001fa4:	409a      	lsls	r2, r3
 8001fa6:	ea26 0602 	bic.w	r6, r6, r2

  return (
           ((PreemptPriority & (uint32_t)((1UL << (PreemptPriorityBits)) - 1UL)) << SubPriorityBits) |
 8001faa:	f04f 31ff 	mov.w	r1, #4294967295
 8001fae:	4081      	lsls	r1, r0
 8001fb0:	ea24 0401 	bic.w	r4, r4, r1
 8001fb4:	409c      	lsls	r4, r3
  if ((int32_t)(IRQn) >= 0)
 8001fb6:	2d00      	cmp	r5, #0
           ((PreemptPriority & (uint32_t)((1UL << (PreemptPriorityBits)) - 1UL)) << SubPriorityBits) |
 8001fb8:	ea44 0406 	orr.w	r4, r4, r6
  if ((int32_t)(IRQn) >= 0)
 8001fbc:	db0b      	blt.n	8001fd6 <HAL_NVIC_SetPriority+0x62>
    NVIC->IP[((uint32_t)IRQn)]               = (uint8_t)((priority << (8U - __NVIC_PRIO_BITS)) & (uint32_t)0xFFUL);
 8001fbe:	f105 4560 	add.w	r5, r5, #3758096384	; 0xe0000000
 8001fc2:	f505 4561 	add.w	r5, r5, #57600	; 0xe100
 8001fc6:	0124      	lsls	r4, r4, #4
 8001fc8:	b2e4      	uxtb	r4, r4
 8001fca:	f885 4300 	strb.w	r4, [r5, #768]	; 0x300
  
  prioritygroup = NVIC_GetPriorityGrouping();
  
  NVIC_SetPriority(IRQn, NVIC_EncodePriority(prioritygroup, PreemptPriority, SubPriority));
}
 8001fce:	bd70      	pop	{r4, r5, r6, pc}
 8001fd0:	2600      	movs	r6, #0
  SubPriorityBits     = ((PriorityGroupTmp + (uint32_t)(__NVIC_PRIO_BITS)) < (uint32_t)7UL) ? (uint32_t)0UL : (uint32_t)((PriorityGroupTmp - 7UL) + (uint32_t)(__NVIC_PRIO_BITS));
 8001fd2:	4633      	mov	r3, r6
 8001fd4:	e7e9      	b.n	8001faa <HAL_NVIC_SetPriority+0x36>
    SCB->SHP[(((uint32_t)IRQn) & 0xFUL)-4UL] = (uint8_t)((priority << (8U - __NVIC_PRIO_BITS)) & (uint32_t)0xFFUL);
 8001fd6:	4b0a      	ldr	r3, [pc, #40]	; (8002000 <HAL_NVIC_SetPriority+0x8c>)
 8001fd8:	f005 050f 	and.w	r5, r5, #15
 8001fdc:	0124      	lsls	r4, r4, #4
 8001fde:	442b      	add	r3, r5
 8001fe0:	b2e4      	uxtb	r4, r4
 8001fe2:	761c      	strb	r4, [r3, #24]
 8001fe4:	bd70      	pop	{r4, r5, r6, pc}
  assert_param(IS_NVIC_PREEMPTION_PRIORITY(PreemptPriority));
 8001fe6:	4807      	ldr	r0, [pc, #28]	; (8002004 <HAL_NVIC_SetPriority+0x90>)
 8001fe8:	21ab      	movs	r1, #171	; 0xab
 8001fea:	f7ff fb57 	bl	800169c <assert_failed>
 8001fee:	e7c9      	b.n	8001f84 <HAL_NVIC_SetPriority+0x10>
  assert_param(IS_NVIC_SUB_PRIORITY(SubPriority));
 8001ff0:	4804      	ldr	r0, [pc, #16]	; (8002004 <HAL_NVIC_SetPriority+0x90>)
 8001ff2:	21aa      	movs	r1, #170	; 0xaa
 8001ff4:	f7ff fb52 	bl	800169c <assert_failed>
 8001ff8:	e7c2      	b.n	8001f80 <HAL_NVIC_SetPriority+0xc>
 8001ffa:	bf00      	nop
 8001ffc:	e000ed00 	.word	0xe000ed00
 8002000:	e000ecfc 	.word	0xe000ecfc
 8002004:	080095b4 	.word	0x080095b4

08002008 <HAL_NVIC_EnableIRQ>:
  * @retval None
  */
void HAL_NVIC_EnableIRQ(IRQn_Type IRQn)
{
  /* Check the parameters */
  assert_param(IS_NVIC_DEVICE_IRQ(IRQn));
 8002008:	2800      	cmp	r0, #0
 800200a:	db08      	blt.n	800201e <HAL_NVIC_EnableIRQ+0x16>
    NVIC->ISER[(((uint32_t)IRQn) >> 5UL)] = (uint32_t)(1UL << (((uint32_t)IRQn) & 0x1FUL));
 800200c:	f000 011f 	and.w	r1, r0, #31
 8002010:	4a05      	ldr	r2, [pc, #20]	; (8002028 <HAL_NVIC_EnableIRQ+0x20>)
 8002012:	0940      	lsrs	r0, r0, #5
 8002014:	2301      	movs	r3, #1
 8002016:	408b      	lsls	r3, r1
 8002018:	f842 3020 	str.w	r3, [r2, r0, lsl #2]
  
  /* Enable interrupt */
  NVIC_EnableIRQ(IRQn);
}
 800201c:	4770      	bx	lr
  assert_param(IS_NVIC_DEVICE_IRQ(IRQn));
 800201e:	4803      	ldr	r0, [pc, #12]	; (800202c <HAL_NVIC_EnableIRQ+0x24>)
 8002020:	21be      	movs	r1, #190	; 0xbe
 8002022:	f7ff bb3b 	b.w	800169c <assert_failed>
 8002026:	bf00      	nop
 8002028:	e000e100 	.word	0xe000e100
 800202c:	080095b4 	.word	0x080095b4

08002030 <HAL_NVIC_DisableIRQ>:
  * @retval None
  */
void HAL_NVIC_DisableIRQ(IRQn_Type IRQn)
{
  /* Check the parameters */
  assert_param(IS_NVIC_DEVICE_IRQ(IRQn));
 8002030:	2800      	cmp	r0, #0
 8002032:	db0e      	blt.n	8002052 <HAL_NVIC_DisableIRQ+0x22>
    NVIC->ICER[(((uint32_t)IRQn) >> 5UL)] = (uint32_t)(1UL << (((uint32_t)IRQn) & 0x1FUL));
 8002034:	0943      	lsrs	r3, r0, #5
 8002036:	4909      	ldr	r1, [pc, #36]	; (800205c <HAL_NVIC_DisableIRQ+0x2c>)
 8002038:	3320      	adds	r3, #32
 800203a:	2201      	movs	r2, #1
 800203c:	f000 001f 	and.w	r0, r0, #31
 8002040:	fa02 f000 	lsl.w	r0, r2, r0
 8002044:	f841 0023 	str.w	r0, [r1, r3, lsl #2]
  \details Acts as a special kind of Data Memory Barrier.
           It completes when all explicit memory accesses before this instruction complete.
 */
__STATIC_FORCEINLINE void __DSB(void)
{
  __ASM volatile ("dsb 0xF":::"memory");
 8002048:	f3bf 8f4f 	dsb	sy
  __ASM volatile ("isb 0xF":::"memory");
 800204c:	f3bf 8f6f 	isb	sy
  
  /* Disable interrupt */
  NVIC_DisableIRQ(IRQn);
}
 8002050:	4770      	bx	lr
  assert_param(IS_NVIC_DEVICE_IRQ(IRQn));
 8002052:	4803      	ldr	r0, [pc, #12]	; (8002060 <HAL_NVIC_DisableIRQ+0x30>)
 8002054:	21ce      	movs	r1, #206	; 0xce
 8002056:	f7ff bb21 	b.w	800169c <assert_failed>
 800205a:	bf00      	nop
 800205c:	e000e100 	.word	0xe000e100
 8002060:	080095b4 	.word	0x080095b4

08002064 <HAL_DMA_Init>:
  * @param  hdma Pointer to a DMA_HandleTypeDef structure that contains
  *               the configuration information for the specified DMA Stream.  
  * @retval HAL status
  */
HAL_StatusTypeDef HAL_DMA_Init(DMA_HandleTypeDef *hdma)
{
 8002064:	b5f8      	push	{r3, r4, r5, r6, r7, lr}
 8002066:	4604      	mov	r4, r0
  uint32_t tmp = 0U;
  uint32_t tickstart = HAL_GetTick();
 8002068:	f7ff fd08 	bl	8001a7c <HAL_GetTick>
  DMA_Base_Registers *regs;

  /* Check the DMA peripheral state */
  if(hdma == NULL)
 800206c:	2c00      	cmp	r4, #0
 800206e:	f000 8114 	beq.w	800229a <HAL_DMA_Init+0x236>
  {
    return HAL_ERROR;
  }

  /* Check the parameters */
  assert_param(IS_DMA_STREAM_ALL_INSTANCE(hdma->Instance));
 8002072:	6823      	ldr	r3, [r4, #0]
 8002074:	4aa8      	ldr	r2, [pc, #672]	; (8002318 <HAL_DMA_Init+0x2b4>)
 8002076:	4293      	cmp	r3, r2
 8002078:	4605      	mov	r5, r0
 800207a:	d031      	beq.n	80020e0 <HAL_DMA_Init+0x7c>
 800207c:	3218      	adds	r2, #24
 800207e:	4293      	cmp	r3, r2
 8002080:	d02e      	beq.n	80020e0 <HAL_DMA_Init+0x7c>
 8002082:	3218      	adds	r2, #24
 8002084:	4293      	cmp	r3, r2
 8002086:	d02b      	beq.n	80020e0 <HAL_DMA_Init+0x7c>
 8002088:	3218      	adds	r2, #24
 800208a:	4293      	cmp	r3, r2
 800208c:	d028      	beq.n	80020e0 <HAL_DMA_Init+0x7c>
 800208e:	3218      	adds	r2, #24
 8002090:	4293      	cmp	r3, r2
 8002092:	d025      	beq.n	80020e0 <HAL_DMA_Init+0x7c>
 8002094:	3218      	adds	r2, #24
 8002096:	4293      	cmp	r3, r2
 8002098:	d022      	beq.n	80020e0 <HAL_DMA_Init+0x7c>
 800209a:	3218      	adds	r2, #24
 800209c:	4293      	cmp	r3, r2
 800209e:	d01f      	beq.n	80020e0 <HAL_DMA_Init+0x7c>
 80020a0:	3218      	adds	r2, #24
 80020a2:	4293      	cmp	r3, r2
 80020a4:	d01c      	beq.n	80020e0 <HAL_DMA_Init+0x7c>
 80020a6:	f502 7256 	add.w	r2, r2, #856	; 0x358
 80020aa:	4293      	cmp	r3, r2
 80020ac:	d018      	beq.n	80020e0 <HAL_DMA_Init+0x7c>
 80020ae:	3218      	adds	r2, #24
 80020b0:	4293      	cmp	r3, r2
 80020b2:	d015      	beq.n	80020e0 <HAL_DMA_Init+0x7c>
 80020b4:	3218      	adds	r2, #24
 80020b6:	4293      	cmp	r3, r2
 80020b8:	d012      	beq.n	80020e0 <HAL_DMA_Init+0x7c>
 80020ba:	3218      	adds	r2, #24
 80020bc:	4293      	cmp	r3, r2
 80020be:	d00f      	beq.n	80020e0 <HAL_DMA_Init+0x7c>
 80020c0:	3218      	adds	r2, #24
 80020c2:	4293      	cmp	r3, r2
 80020c4:	d00c      	beq.n	80020e0 <HAL_DMA_Init+0x7c>
 80020c6:	3218      	adds	r2, #24
 80020c8:	4293      	cmp	r3, r2
 80020ca:	d009      	beq.n	80020e0 <HAL_DMA_Init+0x7c>
 80020cc:	3218      	adds	r2, #24
 80020ce:	4293      	cmp	r3, r2
 80020d0:	d006      	beq.n	80020e0 <HAL_DMA_Init+0x7c>
 80020d2:	3218      	adds	r2, #24
 80020d4:	4293      	cmp	r3, r2
 80020d6:	d003      	beq.n	80020e0 <HAL_DMA_Init+0x7c>
 80020d8:	4890      	ldr	r0, [pc, #576]	; (800231c <HAL_DMA_Init+0x2b8>)
 80020da:	21b8      	movs	r1, #184	; 0xb8
 80020dc:	f7ff fade 	bl	800169c <assert_failed>
  assert_param(IS_DMA_CHANNEL(hdma->Init.Channel));
 80020e0:	6863      	ldr	r3, [r4, #4]
 80020e2:	f033 63c0 	bics.w	r3, r3, #100663296	; 0x6000000
 80020e6:	d006      	beq.n	80020f6 <HAL_DMA_Init+0x92>
 80020e8:	f1b3 6f00 	cmp.w	r3, #134217728	; 0x8000000
 80020ec:	d003      	beq.n	80020f6 <HAL_DMA_Init+0x92>
 80020ee:	488b      	ldr	r0, [pc, #556]	; (800231c <HAL_DMA_Init+0x2b8>)
 80020f0:	21b9      	movs	r1, #185	; 0xb9
 80020f2:	f7ff fad3 	bl	800169c <assert_failed>
  assert_param(IS_DMA_DIRECTION(hdma->Init.Direction));
 80020f6:	68a3      	ldr	r3, [r4, #8]
 80020f8:	f033 0240 	bics.w	r2, r3, #64	; 0x40
 80020fc:	f040 8098 	bne.w	8002230 <HAL_DMA_Init+0x1cc>
  assert_param(IS_DMA_PERIPHERAL_INC_STATE(hdma->Init.PeriphInc));
 8002100:	68e3      	ldr	r3, [r4, #12]
 8002102:	f433 7300 	bics.w	r3, r3, #512	; 0x200
 8002106:	f040 809f 	bne.w	8002248 <HAL_DMA_Init+0x1e4>
  assert_param(IS_DMA_MEMORY_INC_STATE(hdma->Init.MemInc));
 800210a:	6923      	ldr	r3, [r4, #16]
 800210c:	f433 6380 	bics.w	r3, r3, #1024	; 0x400
 8002110:	f040 80a3 	bne.w	800225a <HAL_DMA_Init+0x1f6>
  assert_param(IS_DMA_PERIPHERAL_DATA_SIZE(hdma->Init.PeriphDataAlignment));
 8002114:	6963      	ldr	r3, [r4, #20]
 8002116:	f433 6200 	bics.w	r2, r3, #2048	; 0x800
 800211a:	d003      	beq.n	8002124 <HAL_DMA_Init+0xc0>
 800211c:	f5b3 5f80 	cmp.w	r3, #4096	; 0x1000
 8002120:	f040 80a7 	bne.w	8002272 <HAL_DMA_Init+0x20e>
  assert_param(IS_DMA_MEMORY_DATA_SIZE(hdma->Init.MemDataAlignment));
 8002124:	69a3      	ldr	r3, [r4, #24]
 8002126:	f433 5200 	bics.w	r2, r3, #8192	; 0x2000
 800212a:	d003      	beq.n	8002134 <HAL_DMA_Init+0xd0>
 800212c:	f5b3 4f80 	cmp.w	r3, #16384	; 0x4000
 8002130:	f040 80a9 	bne.w	8002286 <HAL_DMA_Init+0x222>
  assert_param(IS_DMA_MODE(hdma->Init.Mode));
 8002134:	69e3      	ldr	r3, [r4, #28]
 8002136:	f033 0220 	bics.w	r2, r3, #32
 800213a:	d006      	beq.n	800214a <HAL_DMA_Init+0xe6>
 800213c:	f5b3 7f80 	cmp.w	r3, #256	; 0x100
 8002140:	d003      	beq.n	800214a <HAL_DMA_Init+0xe6>
 8002142:	4876      	ldr	r0, [pc, #472]	; (800231c <HAL_DMA_Init+0x2b8>)
 8002144:	21bf      	movs	r1, #191	; 0xbf
 8002146:	f7ff faa9 	bl	800169c <assert_failed>
  assert_param(IS_DMA_PRIORITY(hdma->Init.Priority));
 800214a:	6a23      	ldr	r3, [r4, #32]
 800214c:	f433 3340 	bics.w	r3, r3, #196608	; 0x30000
 8002150:	d003      	beq.n	800215a <HAL_DMA_Init+0xf6>
 8002152:	4872      	ldr	r0, [pc, #456]	; (800231c <HAL_DMA_Init+0x2b8>)
 8002154:	21c0      	movs	r1, #192	; 0xc0
 8002156:	f7ff faa1 	bl	800169c <assert_failed>
  assert_param(IS_DMA_FIFO_MODE_STATE(hdma->Init.FIFOMode));
 800215a:	6a63      	ldr	r3, [r4, #36]	; 0x24
 800215c:	b1db      	cbz	r3, 8002196 <HAL_DMA_Init+0x132>
 800215e:	2b04      	cmp	r3, #4
 8002160:	d005      	beq.n	800216e <HAL_DMA_Init+0x10a>
 8002162:	486e      	ldr	r0, [pc, #440]	; (800231c <HAL_DMA_Init+0x2b8>)
 8002164:	21c1      	movs	r1, #193	; 0xc1
 8002166:	f7ff fa99 	bl	800169c <assert_failed>
  /* Check the memory burst, peripheral burst and FIFO threshold parameters only
     when FIFO mode is enabled */
  if(hdma->Init.FIFOMode != DMA_FIFOMODE_DISABLE)
 800216a:	6a63      	ldr	r3, [r4, #36]	; 0x24
 800216c:	b19b      	cbz	r3, 8002196 <HAL_DMA_Init+0x132>
  {
    assert_param(IS_DMA_FIFO_THRESHOLD(hdma->Init.FIFOThreshold));
 800216e:	6aa3      	ldr	r3, [r4, #40]	; 0x28
 8002170:	2b03      	cmp	r3, #3
 8002172:	f200 80b3 	bhi.w	80022dc <HAL_DMA_Init+0x278>
    assert_param(IS_DMA_MEMORY_BURST(hdma->Init.MemBurst));
 8002176:	6ae3      	ldr	r3, [r4, #44]	; 0x2c
 8002178:	f033 73c0 	bics.w	r3, r3, #25165824	; 0x1800000
 800217c:	d003      	beq.n	8002186 <HAL_DMA_Init+0x122>
 800217e:	4867      	ldr	r0, [pc, #412]	; (800231c <HAL_DMA_Init+0x2b8>)
 8002180:	21c7      	movs	r1, #199	; 0xc7
 8002182:	f7ff fa8b 	bl	800169c <assert_failed>
    assert_param(IS_DMA_PERIPHERAL_BURST(hdma->Init.PeriphBurst));
 8002186:	6b23      	ldr	r3, [r4, #48]	; 0x30
 8002188:	f433 03c0 	bics.w	r3, r3, #6291456	; 0x600000
 800218c:	d003      	beq.n	8002196 <HAL_DMA_Init+0x132>
 800218e:	4863      	ldr	r0, [pc, #396]	; (800231c <HAL_DMA_Init+0x2b8>)
 8002190:	21c8      	movs	r1, #200	; 0xc8
 8002192:	f7ff fa83 	bl	800169c <assert_failed>

  /* Change DMA peripheral state */
  hdma->State = HAL_DMA_STATE_BUSY;
  
  /* Disable the peripheral */
  __HAL_DMA_DISABLE(hdma);
 8002196:	6823      	ldr	r3, [r4, #0]
  hdma->State = HAL_DMA_STATE_BUSY;
 8002198:	2202      	movs	r2, #2
  __HAL_UNLOCK(hdma);
 800219a:	2100      	movs	r1, #0
 800219c:	f884 1034 	strb.w	r1, [r4, #52]	; 0x34
  hdma->State = HAL_DMA_STATE_BUSY;
 80021a0:	f884 2035 	strb.w	r2, [r4, #53]	; 0x35
  __HAL_DMA_DISABLE(hdma);
 80021a4:	681a      	ldr	r2, [r3, #0]
 80021a6:	f022 0201 	bic.w	r2, r2, #1
 80021aa:	601a      	str	r2, [r3, #0]
  
  /* Check if the DMA Stream is effectively disabled */
  while((hdma->Instance->CR & DMA_SxCR_EN) != RESET)
 80021ac:	e005      	b.n	80021ba <HAL_DMA_Init+0x156>
  {
    /* Check for the Timeout */
    if((HAL_GetTick() - tickstart ) > HAL_TIMEOUT_DMA_ABORT)
 80021ae:	f7ff fc65 	bl	8001a7c <HAL_GetTick>
 80021b2:	1b40      	subs	r0, r0, r5
 80021b4:	2805      	cmp	r0, #5
 80021b6:	d855      	bhi.n	8002264 <HAL_DMA_Init+0x200>
 80021b8:	6823      	ldr	r3, [r4, #0]
  while((hdma->Instance->CR & DMA_SxCR_EN) != RESET)
 80021ba:	681a      	ldr	r2, [r3, #0]
 80021bc:	07d1      	lsls	r1, r2, #31
 80021be:	d4f6      	bmi.n	80021ae <HAL_DMA_Init+0x14a>
                      DMA_SxCR_PL    | DMA_SxCR_MSIZE  | DMA_SxCR_PSIZE  | \
                      DMA_SxCR_MINC  | DMA_SxCR_PINC   | DMA_SxCR_CIRC   | \
                      DMA_SxCR_DIR   | DMA_SxCR_CT     | DMA_SxCR_DBM));

  /* Prepare the DMA Stream configuration */
  tmp |=  hdma->Init.Channel             | hdma->Init.Direction        |
 80021c0:	e9d4 2601 	ldrd	r2, r6, [r4, #4]
          hdma->Init.PeriphInc           | hdma->Init.MemInc           |
 80021c4:	e9d4 5003 	ldrd	r5, r0, [r4, #12]
  tmp |=  hdma->Init.Channel             | hdma->Init.Direction        |
 80021c8:	4332      	orrs	r2, r6
          hdma->Init.PeriphInc           | hdma->Init.MemInc           |
 80021ca:	6961      	ldr	r1, [r4, #20]
  tmp = hdma->Instance->CR;
 80021cc:	681f      	ldr	r7, [r3, #0]
  tmp |=  hdma->Init.Channel             | hdma->Init.Direction        |
 80021ce:	432a      	orrs	r2, r5
          hdma->Init.PeriphDataAlignment | hdma->Init.MemDataAlignment |
 80021d0:	e9d4 6506 	ldrd	r6, r5, [r4, #24]
          hdma->Init.PeriphInc           | hdma->Init.MemInc           |
 80021d4:	4302      	orrs	r2, r0
 80021d6:	430a      	orrs	r2, r1
          hdma->Init.Mode                | hdma->Init.Priority;
 80021d8:	6a20      	ldr	r0, [r4, #32]
  tmp &= ((uint32_t)~(DMA_SxCR_CHSEL | DMA_SxCR_MBURST | DMA_SxCR_PBURST | \
 80021da:	4951      	ldr	r1, [pc, #324]	; (8002320 <HAL_DMA_Init+0x2bc>)
          hdma->Init.PeriphDataAlignment | hdma->Init.MemDataAlignment |
 80021dc:	4332      	orrs	r2, r6
 80021de:	432a      	orrs	r2, r5
          hdma->Init.Mode                | hdma->Init.Priority;
 80021e0:	4302      	orrs	r2, r0

  /* the Memory burst and peripheral burst are not used when the FIFO is disabled */
  if(hdma->Init.FIFOMode == DMA_FIFOMODE_ENABLE)
 80021e2:	6a60      	ldr	r0, [r4, #36]	; 0x24
  tmp &= ((uint32_t)~(DMA_SxCR_CHSEL | DMA_SxCR_MBURST | DMA_SxCR_PBURST | \
 80021e4:	4039      	ands	r1, r7
  if(hdma->Init.FIFOMode == DMA_FIFOMODE_ENABLE)
 80021e6:	2804      	cmp	r0, #4
  tmp |=  hdma->Init.Channel             | hdma->Init.Direction        |
 80021e8:	ea41 0102 	orr.w	r1, r1, r2
  if(hdma->Init.FIFOMode == DMA_FIFOMODE_ENABLE)
 80021ec:	d057      	beq.n	800229e <HAL_DMA_Init+0x23a>
    /* Get memory burst and peripheral burst */
    tmp |=  hdma->Init.MemBurst | hdma->Init.PeriphBurst;
  }
  
  /* Write to DMA Stream CR register */
  hdma->Instance->CR = tmp;  
 80021ee:	6019      	str	r1, [r3, #0]

  /* Get the FCR register value */
  tmp = hdma->Instance->FCR;
 80021f0:	695a      	ldr	r2, [r3, #20]

  /* Clear Direct mode and FIFO threshold bits */
  tmp &= (uint32_t)~(DMA_SxFCR_DMDIS | DMA_SxFCR_FTH);
 80021f2:	f022 0207 	bic.w	r2, r2, #7

  /* Prepare the DMA Stream FIFO configuration */
  tmp |= hdma->Init.FIFOMode;
 80021f6:	4310      	orrs	r0, r2
  *                     the configuration information for the specified DMA Stream. 
  * @retval Stream base address
  */
static uint32_t DMA_CalcBaseAndBitshift(DMA_HandleTypeDef *hdma)
{
  uint32_t stream_number = (((uint32_t)hdma->Instance & 0xFFU) - 16U) / 24U;
 80021f8:	b2da      	uxtb	r2, r3
 80021fa:	494a      	ldr	r1, [pc, #296]	; (8002324 <HAL_DMA_Init+0x2c0>)
  hdma->Instance->FCR = tmp;
 80021fc:	6158      	str	r0, [r3, #20]
  uint32_t stream_number = (((uint32_t)hdma->Instance & 0xFFU) - 16U) / 24U;
 80021fe:	3a10      	subs	r2, #16
 8002200:	fba1 0102 	umull	r0, r1, r1, r2
 8002204:	0909      	lsrs	r1, r1, #4
  
  /* lookup table for necessary bitshift of flags within status registers */
  static const uint8_t flagBitshiftOffset[8U] = {0U, 6U, 16U, 22U, 0U, 6U, 16U, 22U};
  hdma->StreamIndex = flagBitshiftOffset[stream_number];
 8002206:	4848      	ldr	r0, [pc, #288]	; (8002328 <HAL_DMA_Init+0x2c4>)
  
  if (stream_number > 3U)
  {
    /* return pointer to HISR and HIFCR */
    hdma->StreamBaseAddress = (((uint32_t)hdma->Instance & (uint32_t)(~0x3FFU)) + 4U);
 8002208:	f423 737f 	bic.w	r3, r3, #1020	; 0x3fc
  hdma->StreamIndex = flagBitshiftOffset[stream_number];
 800220c:	5c41      	ldrb	r1, [r0, r1]
 800220e:	65e1      	str	r1, [r4, #92]	; 0x5c
    hdma->StreamBaseAddress = (((uint32_t)hdma->Instance & (uint32_t)(~0x3FFU)) + 4U);
 8002210:	f023 0303 	bic.w	r3, r3, #3
  if (stream_number > 3U)
 8002214:	2a5f      	cmp	r2, #95	; 0x5f
    hdma->StreamBaseAddress = (((uint32_t)hdma->Instance & (uint32_t)(~0x3FFU)) + 4U);
 8002216:	bf88      	it	hi
 8002218:	3304      	addhi	r3, #4
  regs->IFCR = 0x3FU << hdma->StreamIndex;
 800221a:	223f      	movs	r2, #63	; 0x3f
 800221c:	408a      	lsls	r2, r1
  hdma->State = HAL_DMA_STATE_READY;
 800221e:	2501      	movs	r5, #1
  hdma->ErrorCode = HAL_DMA_ERROR_NONE;
 8002220:	2100      	movs	r1, #0
 8002222:	65a3      	str	r3, [r4, #88]	; 0x58
  regs->IFCR = 0x3FU << hdma->StreamIndex;
 8002224:	609a      	str	r2, [r3, #8]
  hdma->ErrorCode = HAL_DMA_ERROR_NONE;
 8002226:	6561      	str	r1, [r4, #84]	; 0x54
  hdma->State = HAL_DMA_STATE_READY;
 8002228:	f884 5035 	strb.w	r5, [r4, #53]	; 0x35
  return HAL_OK;
 800222c:	4608      	mov	r0, r1
}
 800222e:	bdf8      	pop	{r3, r4, r5, r6, r7, pc}
  assert_param(IS_DMA_DIRECTION(hdma->Init.Direction));
 8002230:	2b80      	cmp	r3, #128	; 0x80
 8002232:	f43f af65 	beq.w	8002100 <HAL_DMA_Init+0x9c>
 8002236:	4839      	ldr	r0, [pc, #228]	; (800231c <HAL_DMA_Init+0x2b8>)
 8002238:	21ba      	movs	r1, #186	; 0xba
 800223a:	f7ff fa2f 	bl	800169c <assert_failed>
  assert_param(IS_DMA_PERIPHERAL_INC_STATE(hdma->Init.PeriphInc));
 800223e:	68e3      	ldr	r3, [r4, #12]
 8002240:	f433 7300 	bics.w	r3, r3, #512	; 0x200
 8002244:	f43f af61 	beq.w	800210a <HAL_DMA_Init+0xa6>
 8002248:	4834      	ldr	r0, [pc, #208]	; (800231c <HAL_DMA_Init+0x2b8>)
 800224a:	21bb      	movs	r1, #187	; 0xbb
 800224c:	f7ff fa26 	bl	800169c <assert_failed>
  assert_param(IS_DMA_MEMORY_INC_STATE(hdma->Init.MemInc));
 8002250:	6923      	ldr	r3, [r4, #16]
 8002252:	f433 6380 	bics.w	r3, r3, #1024	; 0x400
 8002256:	f43f af5d 	beq.w	8002114 <HAL_DMA_Init+0xb0>
 800225a:	4830      	ldr	r0, [pc, #192]	; (800231c <HAL_DMA_Init+0x2b8>)
 800225c:	21bc      	movs	r1, #188	; 0xbc
 800225e:	f7ff fa1d 	bl	800169c <assert_failed>
 8002262:	e757      	b.n	8002114 <HAL_DMA_Init+0xb0>
      hdma->State = HAL_DMA_STATE_TIMEOUT;
 8002264:	2303      	movs	r3, #3
      hdma->ErrorCode = HAL_DMA_ERROR_TIMEOUT;
 8002266:	2220      	movs	r2, #32
 8002268:	6562      	str	r2, [r4, #84]	; 0x54
      hdma->State = HAL_DMA_STATE_TIMEOUT;
 800226a:	f884 3035 	strb.w	r3, [r4, #53]	; 0x35
      return HAL_TIMEOUT;
 800226e:	4618      	mov	r0, r3
}
 8002270:	bdf8      	pop	{r3, r4, r5, r6, r7, pc}
  assert_param(IS_DMA_PERIPHERAL_DATA_SIZE(hdma->Init.PeriphDataAlignment));
 8002272:	482a      	ldr	r0, [pc, #168]	; (800231c <HAL_DMA_Init+0x2b8>)
 8002274:	21bd      	movs	r1, #189	; 0xbd
 8002276:	f7ff fa11 	bl	800169c <assert_failed>
  assert_param(IS_DMA_MEMORY_DATA_SIZE(hdma->Init.MemDataAlignment));
 800227a:	69a3      	ldr	r3, [r4, #24]
 800227c:	f433 5200 	bics.w	r2, r3, #8192	; 0x2000
 8002280:	f43f af58 	beq.w	8002134 <HAL_DMA_Init+0xd0>
 8002284:	e752      	b.n	800212c <HAL_DMA_Init+0xc8>
 8002286:	4825      	ldr	r0, [pc, #148]	; (800231c <HAL_DMA_Init+0x2b8>)
 8002288:	21be      	movs	r1, #190	; 0xbe
 800228a:	f7ff fa07 	bl	800169c <assert_failed>
  assert_param(IS_DMA_MODE(hdma->Init.Mode));
 800228e:	69e3      	ldr	r3, [r4, #28]
 8002290:	f033 0220 	bics.w	r2, r3, #32
 8002294:	f43f af59 	beq.w	800214a <HAL_DMA_Init+0xe6>
 8002298:	e750      	b.n	800213c <HAL_DMA_Init+0xd8>
    return HAL_ERROR;
 800229a:	2001      	movs	r0, #1
}
 800229c:	bdf8      	pop	{r3, r4, r5, r6, r7, pc}
    tmp |=  hdma->Init.MemBurst | hdma->Init.PeriphBurst;
 800229e:	e9d4 500b 	ldrd	r5, r0, [r4, #44]	; 0x2c
 80022a2:	4328      	orrs	r0, r5
 80022a4:	4301      	orrs	r1, r0
    tmp |= hdma->Init.FIFOThreshold;
 80022a6:	6aa2      	ldr	r2, [r4, #40]	; 0x28
  hdma->Instance->CR = tmp;  
 80022a8:	6019      	str	r1, [r3, #0]
  tmp = hdma->Instance->FCR;
 80022aa:	6958      	ldr	r0, [r3, #20]
  tmp &= (uint32_t)~(DMA_SxFCR_DMDIS | DMA_SxFCR_FTH);
 80022ac:	f020 0007 	bic.w	r0, r0, #7
 80022b0:	4310      	orrs	r0, r2
    tmp |= hdma->Init.FIFOThreshold;
 80022b2:	f040 0004 	orr.w	r0, r0, #4
    if (hdma->Init.MemBurst != DMA_MBURST_SINGLE)
 80022b6:	2d00      	cmp	r5, #0
 80022b8:	d09e      	beq.n	80021f8 <HAL_DMA_Init+0x194>
{
  HAL_StatusTypeDef status = HAL_OK;
  uint32_t tmp = hdma->Init.FIFOThreshold;
  
  /* Memory Data size equal to Byte */
  if(hdma->Init.MemDataAlignment == DMA_MDATAALIGN_BYTE)
 80022ba:	b1a6      	cbz	r6, 80022e6 <HAL_DMA_Init+0x282>
      break;
    }
  }
  
  /* Memory Data size equal to Half-Word */
  else if (hdma->Init.MemDataAlignment == DMA_MDATAALIGN_HALFWORD)
 80022bc:	f5b6 5f00 	cmp.w	r6, #8192	; 0x2000
 80022c0:	d017      	beq.n	80022f2 <HAL_DMA_Init+0x28e>
  }
  
  /* Memory Data size equal to Word */
  else
  {
    switch (tmp)
 80022c2:	2a02      	cmp	r2, #2
 80022c4:	d903      	bls.n	80022ce <HAL_DMA_Init+0x26a>
 80022c6:	2a03      	cmp	r2, #3
 80022c8:	d196      	bne.n	80021f8 <HAL_DMA_Init+0x194>
    case DMA_FIFO_THRESHOLD_HALFFULL:
    case DMA_FIFO_THRESHOLD_3QUARTERSFULL:
      status = HAL_ERROR;
      break;
    case DMA_FIFO_THRESHOLD_FULL:
      if ((hdma->Init.MemBurst & DMA_SxCR_MBURST_1) == DMA_SxCR_MBURST_1)
 80022ca:	01ea      	lsls	r2, r5, #7
 80022cc:	d594      	bpl.n	80021f8 <HAL_DMA_Init+0x194>
        hdma->State = HAL_DMA_STATE_READY;
 80022ce:	2301      	movs	r3, #1
        hdma->ErrorCode = HAL_DMA_ERROR_PARAM;
 80022d0:	2240      	movs	r2, #64	; 0x40
 80022d2:	6562      	str	r2, [r4, #84]	; 0x54
        hdma->State = HAL_DMA_STATE_READY;
 80022d4:	f884 3035 	strb.w	r3, [r4, #53]	; 0x35
        return HAL_ERROR; 
 80022d8:	4618      	mov	r0, r3
}
 80022da:	bdf8      	pop	{r3, r4, r5, r6, r7, pc}
    assert_param(IS_DMA_FIFO_THRESHOLD(hdma->Init.FIFOThreshold));
 80022dc:	480f      	ldr	r0, [pc, #60]	; (800231c <HAL_DMA_Init+0x2b8>)
 80022de:	21c6      	movs	r1, #198	; 0xc6
 80022e0:	f7ff f9dc 	bl	800169c <assert_failed>
 80022e4:	e747      	b.n	8002176 <HAL_DMA_Init+0x112>
    switch (tmp)
 80022e6:	2a01      	cmp	r2, #1
 80022e8:	d010      	beq.n	800230c <HAL_DMA_Init+0x2a8>
 80022ea:	f032 0202 	bics.w	r2, r2, #2
 80022ee:	d183      	bne.n	80021f8 <HAL_DMA_Init+0x194>
 80022f0:	e7eb      	b.n	80022ca <HAL_DMA_Init+0x266>
    switch (tmp)
 80022f2:	2a03      	cmp	r2, #3
 80022f4:	d880      	bhi.n	80021f8 <HAL_DMA_Init+0x194>
 80022f6:	a101      	add	r1, pc, #4	; (adr r1, 80022fc <HAL_DMA_Init+0x298>)
 80022f8:	f851 f022 	ldr.w	pc, [r1, r2, lsl #2]
 80022fc:	080022cf 	.word	0x080022cf
 8002300:	080022cb 	.word	0x080022cb
 8002304:	080022cf 	.word	0x080022cf
 8002308:	0800230d 	.word	0x0800230d
      if (hdma->Init.MemBurst == DMA_MBURST_INC16)
 800230c:	f1b5 7fc0 	cmp.w	r5, #25165824	; 0x1800000
 8002310:	f47f af72 	bne.w	80021f8 <HAL_DMA_Init+0x194>
 8002314:	e7db      	b.n	80022ce <HAL_DMA_Init+0x26a>
 8002316:	bf00      	nop
 8002318:	40026010 	.word	0x40026010
 800231c:	080095f0 	.word	0x080095f0
 8002320:	f010803f 	.word	0xf010803f
 8002324:	aaaaaaab 	.word	0xaaaaaaab
 8002328:	08009628 	.word	0x08009628

0800232c <HAL_DMA_Abort_IT>:
  if(hdma->State != HAL_DMA_STATE_BUSY)
 800232c:	f890 3035 	ldrb.w	r3, [r0, #53]	; 0x35
 8002330:	2b02      	cmp	r3, #2
 8002332:	d003      	beq.n	800233c <HAL_DMA_Abort_IT+0x10>
    hdma->ErrorCode = HAL_DMA_ERROR_NO_XFER;
 8002334:	2380      	movs	r3, #128	; 0x80
 8002336:	6543      	str	r3, [r0, #84]	; 0x54
    return HAL_ERROR;
 8002338:	2001      	movs	r0, #1
 800233a:	4770      	bx	lr
    __HAL_DMA_DISABLE(hdma);
 800233c:	6802      	ldr	r2, [r0, #0]
    hdma->State = HAL_DMA_STATE_ABORT;
 800233e:	2305      	movs	r3, #5
 8002340:	f880 3035 	strb.w	r3, [r0, #53]	; 0x35
    __HAL_DMA_DISABLE(hdma);
 8002344:	6813      	ldr	r3, [r2, #0]
 8002346:	f023 0301 	bic.w	r3, r3, #1
 800234a:	6013      	str	r3, [r2, #0]
  return HAL_OK;
 800234c:	2000      	movs	r0, #0
}
 800234e:	4770      	bx	lr

08002350 <HAL_DMA_IRQHandler>:
{
 8002350:	e92d 41f0 	stmdb	sp!, {r4, r5, r6, r7, r8, lr}
 8002354:	b082      	sub	sp, #8
  __IO uint32_t count = 0U;
 8002356:	2300      	movs	r3, #0
  DMA_Base_Registers *regs = (DMA_Base_Registers *)hdma->StreamBaseAddress;
 8002358:	6d86      	ldr	r6, [r0, #88]	; 0x58
  __IO uint32_t count = 0U;
 800235a:	9301      	str	r3, [sp, #4]
  if ((tmpisr & (DMA_FLAG_TEIF0_4 << hdma->StreamIndex)) != RESET)
 800235c:	6dc3      	ldr	r3, [r0, #92]	; 0x5c
  tmpisr = regs->ISR;
 800235e:	6834      	ldr	r4, [r6, #0]
  uint32_t timeout = SystemCoreClock / 9600U;
 8002360:	4971      	ldr	r1, [pc, #452]	; (8002528 <HAL_DMA_IRQHandler+0x1d8>)
  if ((tmpisr & (DMA_FLAG_TEIF0_4 << hdma->StreamIndex)) != RESET)
 8002362:	2208      	movs	r2, #8
 8002364:	409a      	lsls	r2, r3
 8002366:	4222      	tst	r2, r4
  uint32_t timeout = SystemCoreClock / 9600U;
 8002368:	680d      	ldr	r5, [r1, #0]
{
 800236a:	4680      	mov	r8, r0
  if ((tmpisr & (DMA_FLAG_TEIF0_4 << hdma->StreamIndex)) != RESET)
 800236c:	d004      	beq.n	8002378 <HAL_DMA_IRQHandler+0x28>
    if(__HAL_DMA_GET_IT_SOURCE(hdma, DMA_IT_TE) != RESET)
 800236e:	6801      	ldr	r1, [r0, #0]
 8002370:	680f      	ldr	r7, [r1, #0]
 8002372:	0778      	lsls	r0, r7, #29
 8002374:	f100 808a 	bmi.w	800248c <HAL_DMA_IRQHandler+0x13c>
  if ((tmpisr & (DMA_FLAG_FEIF0_4 << hdma->StreamIndex)) != RESET)
 8002378:	2201      	movs	r2, #1
 800237a:	409a      	lsls	r2, r3
 800237c:	4222      	tst	r2, r4
 800237e:	d004      	beq.n	800238a <HAL_DMA_IRQHandler+0x3a>
    if(__HAL_DMA_GET_IT_SOURCE(hdma, DMA_IT_FE) != RESET)
 8002380:	f8d8 1000 	ldr.w	r1, [r8]
 8002384:	6949      	ldr	r1, [r1, #20]
 8002386:	0609      	lsls	r1, r1, #24
 8002388:	d478      	bmi.n	800247c <HAL_DMA_IRQHandler+0x12c>
  if ((tmpisr & (DMA_FLAG_DMEIF0_4 << hdma->StreamIndex)) != RESET)
 800238a:	2204      	movs	r2, #4
 800238c:	409a      	lsls	r2, r3
 800238e:	4222      	tst	r2, r4
 8002390:	d004      	beq.n	800239c <HAL_DMA_IRQHandler+0x4c>
    if(__HAL_DMA_GET_IT_SOURCE(hdma, DMA_IT_DME) != RESET)
 8002392:	f8d8 1000 	ldr.w	r1, [r8]
 8002396:	6809      	ldr	r1, [r1, #0]
 8002398:	078f      	lsls	r7, r1, #30
 800239a:	d467      	bmi.n	800246c <HAL_DMA_IRQHandler+0x11c>
  if ((tmpisr & (DMA_FLAG_HTIF0_4 << hdma->StreamIndex)) != RESET)
 800239c:	2210      	movs	r2, #16
 800239e:	409a      	lsls	r2, r3
 80023a0:	4222      	tst	r2, r4
 80023a2:	d004      	beq.n	80023ae <HAL_DMA_IRQHandler+0x5e>
    if(__HAL_DMA_GET_IT_SOURCE(hdma, DMA_IT_HT) != RESET)
 80023a4:	f8d8 1000 	ldr.w	r1, [r8]
 80023a8:	680f      	ldr	r7, [r1, #0]
 80023aa:	0738      	lsls	r0, r7, #28
 80023ac:	d449      	bmi.n	8002442 <HAL_DMA_IRQHandler+0xf2>
  if ((tmpisr & (DMA_FLAG_TCIF0_4 << hdma->StreamIndex)) != RESET)
 80023ae:	2220      	movs	r2, #32
 80023b0:	409a      	lsls	r2, r3
 80023b2:	4222      	tst	r2, r4
 80023b4:	d017      	beq.n	80023e6 <HAL_DMA_IRQHandler+0x96>
    if(__HAL_DMA_GET_IT_SOURCE(hdma, DMA_IT_TC) != RESET)
 80023b6:	f8d8 1000 	ldr.w	r1, [r8]
 80023ba:	680c      	ldr	r4, [r1, #0]
 80023bc:	06e0      	lsls	r0, r4, #27
 80023be:	d512      	bpl.n	80023e6 <HAL_DMA_IRQHandler+0x96>
      regs->IFCR = DMA_FLAG_TCIF0_4 << hdma->StreamIndex;
 80023c0:	60b2      	str	r2, [r6, #8]
      if(HAL_DMA_STATE_ABORT == hdma->State)
 80023c2:	f898 2035 	ldrb.w	r2, [r8, #53]	; 0x35
 80023c6:	2a05      	cmp	r2, #5
 80023c8:	d073      	beq.n	80024b2 <HAL_DMA_IRQHandler+0x162>
      if(((hdma->Instance->CR) & (uint32_t)(DMA_SxCR_DBM)) != RESET)
 80023ca:	680b      	ldr	r3, [r1, #0]
 80023cc:	f413 2f80 	tst.w	r3, #262144	; 0x40000
        if((hdma->Instance->CR & DMA_SxCR_CT) == RESET)
 80023d0:	680b      	ldr	r3, [r1, #0]
      if(((hdma->Instance->CR) & (uint32_t)(DMA_SxCR_DBM)) != RESET)
 80023d2:	f000 8090 	beq.w	80024f6 <HAL_DMA_IRQHandler+0x1a6>
        if((hdma->Instance->CR & DMA_SxCR_CT) == RESET)
 80023d6:	0319      	lsls	r1, r3, #12
 80023d8:	f140 809b 	bpl.w	8002512 <HAL_DMA_IRQHandler+0x1c2>
        if(hdma->XferCpltCallback != NULL)
 80023dc:	f8d8 303c 	ldr.w	r3, [r8, #60]	; 0x3c
 80023e0:	b10b      	cbz	r3, 80023e6 <HAL_DMA_IRQHandler+0x96>
          hdma->XferCpltCallback(hdma);
 80023e2:	4640      	mov	r0, r8
 80023e4:	4798      	blx	r3
  if(hdma->ErrorCode != HAL_DMA_ERROR_NONE)
 80023e6:	f8d8 3054 	ldr.w	r3, [r8, #84]	; 0x54
 80023ea:	b33b      	cbz	r3, 800243c <HAL_DMA_IRQHandler+0xec>
    if((hdma->ErrorCode & HAL_DMA_ERROR_TE) != RESET)
 80023ec:	f8d8 3054 	ldr.w	r3, [r8, #84]	; 0x54
 80023f0:	07da      	lsls	r2, r3, #31
 80023f2:	d51b      	bpl.n	800242c <HAL_DMA_IRQHandler+0xdc>
      __HAL_DMA_DISABLE(hdma);
 80023f4:	f8d8 2000 	ldr.w	r2, [r8]
  uint32_t timeout = SystemCoreClock / 9600U;
 80023f8:	494c      	ldr	r1, [pc, #304]	; (800252c <HAL_DMA_IRQHandler+0x1dc>)
      hdma->State = HAL_DMA_STATE_ABORT;
 80023fa:	2305      	movs	r3, #5
 80023fc:	f888 3035 	strb.w	r3, [r8, #53]	; 0x35
      __HAL_DMA_DISABLE(hdma);
 8002400:	6813      	ldr	r3, [r2, #0]
  uint32_t timeout = SystemCoreClock / 9600U;
 8002402:	fba1 1505 	umull	r1, r5, r1, r5
      __HAL_DMA_DISABLE(hdma);
 8002406:	f023 0301 	bic.w	r3, r3, #1
 800240a:	6013      	str	r3, [r2, #0]
  uint32_t timeout = SystemCoreClock / 9600U;
 800240c:	0aad      	lsrs	r5, r5, #10
      __HAL_DMA_DISABLE(hdma);
 800240e:	e002      	b.n	8002416 <HAL_DMA_IRQHandler+0xc6>
      while((hdma->Instance->CR & DMA_SxCR_EN) != RESET);
 8002410:	6813      	ldr	r3, [r2, #0]
 8002412:	07db      	lsls	r3, r3, #31
 8002414:	d504      	bpl.n	8002420 <HAL_DMA_IRQHandler+0xd0>
        if (++count > timeout)
 8002416:	9b01      	ldr	r3, [sp, #4]
 8002418:	3301      	adds	r3, #1
 800241a:	42ab      	cmp	r3, r5
 800241c:	9301      	str	r3, [sp, #4]
 800241e:	d9f7      	bls.n	8002410 <HAL_DMA_IRQHandler+0xc0>
      __HAL_UNLOCK(hdma);
 8002420:	2200      	movs	r2, #0
      hdma->State = HAL_DMA_STATE_READY;
 8002422:	2301      	movs	r3, #1
      __HAL_UNLOCK(hdma);
 8002424:	f888 2034 	strb.w	r2, [r8, #52]	; 0x34
      hdma->State = HAL_DMA_STATE_READY;
 8002428:	f888 3035 	strb.w	r3, [r8, #53]	; 0x35
    if(hdma->XferErrorCallback != NULL)
 800242c:	f8d8 304c 	ldr.w	r3, [r8, #76]	; 0x4c
 8002430:	b123      	cbz	r3, 800243c <HAL_DMA_IRQHandler+0xec>
      hdma->XferErrorCallback(hdma);
 8002432:	4640      	mov	r0, r8
}
 8002434:	b002      	add	sp, #8
 8002436:	e8bd 41f0 	ldmia.w	sp!, {r4, r5, r6, r7, r8, lr}
      hdma->XferErrorCallback(hdma);
 800243a:	4718      	bx	r3
}
 800243c:	b002      	add	sp, #8
 800243e:	e8bd 81f0 	ldmia.w	sp!, {r4, r5, r6, r7, r8, pc}
      regs->IFCR = DMA_FLAG_HTIF0_4 << hdma->StreamIndex;
 8002442:	60b2      	str	r2, [r6, #8]
      if(((hdma->Instance->CR) & (uint32_t)(DMA_SxCR_DBM)) != RESET)
 8002444:	680a      	ldr	r2, [r1, #0]
 8002446:	f412 2f80 	tst.w	r2, #262144	; 0x40000
        if((hdma->Instance->CR & DMA_SxCR_CT) == RESET)
 800244a:	680a      	ldr	r2, [r1, #0]
      if(((hdma->Instance->CR) & (uint32_t)(DMA_SxCR_DBM)) != RESET)
 800244c:	d12a      	bne.n	80024a4 <HAL_DMA_IRQHandler+0x154>
        if((hdma->Instance->CR & DMA_SxCR_CIRC) == RESET)
 800244e:	05d7      	lsls	r7, r2, #23
 8002450:	d403      	bmi.n	800245a <HAL_DMA_IRQHandler+0x10a>
          hdma->Instance->CR  &= ~(DMA_IT_HT);
 8002452:	680a      	ldr	r2, [r1, #0]
 8002454:	f022 0208 	bic.w	r2, r2, #8
 8002458:	600a      	str	r2, [r1, #0]
        if(hdma->XferHalfCpltCallback != NULL)
 800245a:	f8d8 2040 	ldr.w	r2, [r8, #64]	; 0x40
 800245e:	2a00      	cmp	r2, #0
 8002460:	d0a5      	beq.n	80023ae <HAL_DMA_IRQHandler+0x5e>
          hdma->XferHalfCpltCallback(hdma);
 8002462:	4640      	mov	r0, r8
 8002464:	4790      	blx	r2
 8002466:	f8d8 305c 	ldr.w	r3, [r8, #92]	; 0x5c
 800246a:	e7a0      	b.n	80023ae <HAL_DMA_IRQHandler+0x5e>
      regs->IFCR = DMA_FLAG_DMEIF0_4 << hdma->StreamIndex;
 800246c:	60b2      	str	r2, [r6, #8]
      hdma->ErrorCode |= HAL_DMA_ERROR_DME;
 800246e:	f8d8 2054 	ldr.w	r2, [r8, #84]	; 0x54
 8002472:	f042 0204 	orr.w	r2, r2, #4
 8002476:	f8c8 2054 	str.w	r2, [r8, #84]	; 0x54
 800247a:	e78f      	b.n	800239c <HAL_DMA_IRQHandler+0x4c>
      regs->IFCR = DMA_FLAG_FEIF0_4 << hdma->StreamIndex;
 800247c:	60b2      	str	r2, [r6, #8]
      hdma->ErrorCode |= HAL_DMA_ERROR_FE;
 800247e:	f8d8 2054 	ldr.w	r2, [r8, #84]	; 0x54
 8002482:	f042 0202 	orr.w	r2, r2, #2
 8002486:	f8c8 2054 	str.w	r2, [r8, #84]	; 0x54
 800248a:	e77e      	b.n	800238a <HAL_DMA_IRQHandler+0x3a>
      hdma->Instance->CR  &= ~(DMA_IT_TE);
 800248c:	680f      	ldr	r7, [r1, #0]
 800248e:	f027 0704 	bic.w	r7, r7, #4
 8002492:	600f      	str	r7, [r1, #0]
      regs->IFCR = DMA_FLAG_TEIF0_4 << hdma->StreamIndex;
 8002494:	60b2      	str	r2, [r6, #8]
      hdma->ErrorCode |= HAL_DMA_ERROR_TE;
 8002496:	f8d8 2054 	ldr.w	r2, [r8, #84]	; 0x54
 800249a:	f042 0201 	orr.w	r2, r2, #1
 800249e:	f8c8 2054 	str.w	r2, [r8, #84]	; 0x54
 80024a2:	e769      	b.n	8002378 <HAL_DMA_IRQHandler+0x28>
        if((hdma->Instance->CR & DMA_SxCR_CT) == RESET)
 80024a4:	0312      	lsls	r2, r2, #12
 80024a6:	d5d8      	bpl.n	800245a <HAL_DMA_IRQHandler+0x10a>
          if(hdma->XferM1HalfCpltCallback != NULL)
 80024a8:	f8d8 2048 	ldr.w	r2, [r8, #72]	; 0x48
 80024ac:	2a00      	cmp	r2, #0
 80024ae:	d1d8      	bne.n	8002462 <HAL_DMA_IRQHandler+0x112>
 80024b0:	e77d      	b.n	80023ae <HAL_DMA_IRQHandler+0x5e>
        hdma->Instance->CR  &= ~(DMA_IT_TC | DMA_IT_TE | DMA_IT_DME);
 80024b2:	680a      	ldr	r2, [r1, #0]
        if((hdma->XferHalfCpltCallback != NULL) || (hdma->XferM1HalfCpltCallback != NULL))
 80024b4:	f8d8 4040 	ldr.w	r4, [r8, #64]	; 0x40
        hdma->Instance->CR  &= ~(DMA_IT_TC | DMA_IT_TE | DMA_IT_DME);
 80024b8:	f022 0216 	bic.w	r2, r2, #22
 80024bc:	600a      	str	r2, [r1, #0]
        hdma->Instance->FCR &= ~(DMA_IT_FE);
 80024be:	694a      	ldr	r2, [r1, #20]
 80024c0:	f022 0280 	bic.w	r2, r2, #128	; 0x80
 80024c4:	614a      	str	r2, [r1, #20]
        if((hdma->XferHalfCpltCallback != NULL) || (hdma->XferM1HalfCpltCallback != NULL))
 80024c6:	b354      	cbz	r4, 800251e <HAL_DMA_IRQHandler+0x1ce>
          hdma->Instance->CR  &= ~(DMA_IT_HT);
 80024c8:	680a      	ldr	r2, [r1, #0]
 80024ca:	f022 0208 	bic.w	r2, r2, #8
 80024ce:	600a      	str	r2, [r1, #0]
        regs->IFCR = 0x3FU << hdma->StreamIndex;
 80024d0:	223f      	movs	r2, #63	; 0x3f
        if(hdma->XferAbortCallback != NULL)
 80024d2:	f8d8 1050 	ldr.w	r1, [r8, #80]	; 0x50
        regs->IFCR = 0x3FU << hdma->StreamIndex;
 80024d6:	fa02 f303 	lsl.w	r3, r2, r3
        __HAL_UNLOCK(hdma);
 80024da:	2400      	movs	r4, #0
        hdma->State = HAL_DMA_STATE_READY;
 80024dc:	2201      	movs	r2, #1
        regs->IFCR = 0x3FU << hdma->StreamIndex;
 80024de:	60b3      	str	r3, [r6, #8]
        __HAL_UNLOCK(hdma);
 80024e0:	f888 4034 	strb.w	r4, [r8, #52]	; 0x34
        hdma->State = HAL_DMA_STATE_READY;
 80024e4:	f888 2035 	strb.w	r2, [r8, #53]	; 0x35
        if(hdma->XferAbortCallback != NULL)
 80024e8:	2900      	cmp	r1, #0
 80024ea:	d0a7      	beq.n	800243c <HAL_DMA_IRQHandler+0xec>
          hdma->XferAbortCallback(hdma);
 80024ec:	4640      	mov	r0, r8
}
 80024ee:	b002      	add	sp, #8
 80024f0:	e8bd 41f0 	ldmia.w	sp!, {r4, r5, r6, r7, r8, lr}
          hdma->XferAbortCallback(hdma);
 80024f4:	4708      	bx	r1
        if((hdma->Instance->CR & DMA_SxCR_CIRC) == RESET)
 80024f6:	f413 7380 	ands.w	r3, r3, #256	; 0x100
 80024fa:	f47f af6f 	bne.w	80023dc <HAL_DMA_IRQHandler+0x8c>
          hdma->Instance->CR  &= ~(DMA_IT_TC);
 80024fe:	680a      	ldr	r2, [r1, #0]
          hdma->State = HAL_DMA_STATE_READY;
 8002500:	2401      	movs	r4, #1
          hdma->Instance->CR  &= ~(DMA_IT_TC);
 8002502:	f022 0210 	bic.w	r2, r2, #16
 8002506:	600a      	str	r2, [r1, #0]
          __HAL_UNLOCK(hdma);
 8002508:	f888 3034 	strb.w	r3, [r8, #52]	; 0x34
          hdma->State = HAL_DMA_STATE_READY;
 800250c:	f888 4035 	strb.w	r4, [r8, #53]	; 0x35
 8002510:	e764      	b.n	80023dc <HAL_DMA_IRQHandler+0x8c>
          if(hdma->XferM1CpltCallback != NULL)
 8002512:	f8d8 3044 	ldr.w	r3, [r8, #68]	; 0x44
 8002516:	2b00      	cmp	r3, #0
 8002518:	f47f af63 	bne.w	80023e2 <HAL_DMA_IRQHandler+0x92>
 800251c:	e763      	b.n	80023e6 <HAL_DMA_IRQHandler+0x96>
        if((hdma->XferHalfCpltCallback != NULL) || (hdma->XferM1HalfCpltCallback != NULL))
 800251e:	f8d8 2048 	ldr.w	r2, [r8, #72]	; 0x48
 8002522:	2a00      	cmp	r2, #0
 8002524:	d1d0      	bne.n	80024c8 <HAL_DMA_IRQHandler+0x178>
 8002526:	e7d3      	b.n	80024d0 <HAL_DMA_IRQHandler+0x180>
 8002528:	20000000 	.word	0x20000000
 800252c:	1b4e81b5 	.word	0x1b4e81b5

08002530 <HAL_DMA_GetState>:
  return hdma->State;
 8002530:	f890 0035 	ldrb.w	r0, [r0, #53]	; 0x35
}
 8002534:	4770      	bx	lr
 8002536:	bf00      	nop

08002538 <HAL_EXTI_RegisterCallback>:
  */
HAL_StatusTypeDef HAL_EXTI_RegisterCallback(EXTI_HandleTypeDef *hexti, EXTI_CallbackIDTypeDef CallbackID, void (*pPendingCbfn)(void))
{
  HAL_StatusTypeDef status = HAL_OK;

  switch (CallbackID)
 8002538:	b911      	cbnz	r1, 8002540 <HAL_EXTI_RegisterCallback+0x8>
  {
    case  HAL_EXTI_COMMON_CB_ID:
      hexti->PendingCallback = pPendingCbfn;
 800253a:	6042      	str	r2, [r0, #4]
  HAL_StatusTypeDef status = HAL_OK;
 800253c:	4608      	mov	r0, r1
      break;
 800253e:	4770      	bx	lr

    default:
      status = HAL_ERROR;
 8002540:	2001      	movs	r0, #1
      break;
  }

  return status;
}
 8002542:	4770      	bx	lr

08002544 <HAL_EXTI_GetHandle>:
  * @param  ExtiLine Exti line number.
  *         This parameter can be from 0 to @ref EXTI_LINE_NB.
  * @retval HAL Status.
  */
HAL_StatusTypeDef HAL_EXTI_GetHandle(EXTI_HandleTypeDef *hexti, uint32_t ExtiLine)
{
 8002544:	b538      	push	{r3, r4, r5, lr}
  /* Check the parameters */
  assert_param(IS_EXTI_LINE(ExtiLine));
 8002546:	f021 63c0 	bic.w	r3, r1, #100663296	; 0x6000000
 800254a:	f023 031f 	bic.w	r3, r3, #31
{
 800254e:	460c      	mov	r4, r1
 8002550:	4605      	mov	r5, r0
  assert_param(IS_EXTI_LINE(ExtiLine));
 8002552:	b90b      	cbnz	r3, 8002558 <HAL_EXTI_GetHandle+0x14>
 8002554:	018b      	lsls	r3, r1, #6
 8002556:	d408      	bmi.n	800256a <HAL_EXTI_GetHandle+0x26>
 8002558:	480a      	ldr	r0, [pc, #40]	; (8002584 <HAL_EXTI_GetHandle+0x40>)
 800255a:	f44f 71cc 	mov.w	r1, #408	; 0x198
 800255e:	f7ff f89d 	bl	800169c <assert_failed>

  /* Check null pointer */
  if (hexti == NULL)
 8002562:	b165      	cbz	r5, 800257e <HAL_EXTI_GetHandle+0x3a>
    return HAL_ERROR;
  }
  else
  {
    /* Store line number as handle private field */
    hexti->Line = ExtiLine;
 8002564:	602c      	str	r4, [r5, #0]

    return HAL_OK;
 8002566:	2000      	movs	r0, #0
  }
}
 8002568:	bd38      	pop	{r3, r4, r5, pc}
  assert_param(IS_EXTI_LINE(ExtiLine));
 800256a:	f001 031f 	and.w	r3, r1, #31
 800256e:	2b16      	cmp	r3, #22
 8002570:	d9f7      	bls.n	8002562 <HAL_EXTI_GetHandle+0x1e>
 8002572:	4804      	ldr	r0, [pc, #16]	; (8002584 <HAL_EXTI_GetHandle+0x40>)
 8002574:	f44f 71cc 	mov.w	r1, #408	; 0x198
 8002578:	f7ff f890 	bl	800169c <assert_failed>
 800257c:	e7f1      	b.n	8002562 <HAL_EXTI_GetHandle+0x1e>
    return HAL_ERROR;
 800257e:	2001      	movs	r0, #1
}
 8002580:	bd38      	pop	{r3, r4, r5, pc}
 8002582:	bf00      	nop
 8002584:	08009630 	.word	0x08009630

08002588 <HAL_EXTI_IRQHandler>:
{
  uint32_t regval;
  uint32_t maskline;

  /* Compute line mask */
  maskline = (1uL << (hexti->Line & EXTI_PIN_MASK));
 8002588:	6803      	ldr	r3, [r0, #0]

  /* Get pending bit  */
  regval = (EXTI->PR & maskline);
 800258a:	4909      	ldr	r1, [pc, #36]	; (80025b0 <HAL_EXTI_IRQHandler+0x28>)
  maskline = (1uL << (hexti->Line & EXTI_PIN_MASK));
 800258c:	f003 021f 	and.w	r2, r3, #31
{
 8002590:	b410      	push	{r4}
  maskline = (1uL << (hexti->Line & EXTI_PIN_MASK));
 8002592:	2301      	movs	r3, #1
  regval = (EXTI->PR & maskline);
 8002594:	694c      	ldr	r4, [r1, #20]
  maskline = (1uL << (hexti->Line & EXTI_PIN_MASK));
 8002596:	4093      	lsls	r3, r2
  if (regval != 0x00u)
 8002598:	421c      	tst	r4, r3
 800259a:	d005      	beq.n	80025a8 <HAL_EXTI_IRQHandler+0x20>
  {
    /* Clear pending bit */
    EXTI->PR = maskline;

    /* Call callback */
    if (hexti->PendingCallback != NULL)
 800259c:	6842      	ldr	r2, [r0, #4]
    EXTI->PR = maskline;
 800259e:	614b      	str	r3, [r1, #20]
    if (hexti->PendingCallback != NULL)
 80025a0:	b112      	cbz	r2, 80025a8 <HAL_EXTI_IRQHandler+0x20>
    {
      hexti->PendingCallback();
    }
  }
}
 80025a2:	f85d 4b04 	ldr.w	r4, [sp], #4
      hexti->PendingCallback();
 80025a6:	4710      	bx	r2
}
 80025a8:	f85d 4b04 	ldr.w	r4, [sp], #4
 80025ac:	4770      	bx	lr
 80025ae:	bf00      	nop
 80025b0:	40013c00 	.word	0x40013c00

080025b4 <HAL_GPIO_Init>:
  * @param  GPIO_Init pointer to a GPIO_InitTypeDef structure that contains
  *         the configuration information for the specified GPIO peripheral.
  * @retval None
  */
void HAL_GPIO_Init(GPIO_TypeDef  *GPIOx, GPIO_InitTypeDef *GPIO_Init)
{
 80025b4:	e92d 4ff0 	stmdb	sp!, {r4, r5, r6, r7, r8, r9, sl, fp, lr}
  uint32_t ioposition = 0x00U;
  uint32_t iocurrent = 0x00U;
  uint32_t temp = 0x00U;

  /* Check the parameters */
  assert_param(IS_GPIO_ALL_INSTANCE(GPIOx));
 80025b8:	4b9c      	ldr	r3, [pc, #624]	; (800282c <HAL_GPIO_Init+0x278>)
 80025ba:	4298      	cmp	r0, r3
{
 80025bc:	b083      	sub	sp, #12
 80025be:	4605      	mov	r5, r0
 80025c0:	460f      	mov	r7, r1
  assert_param(IS_GPIO_ALL_INSTANCE(GPIOx));
 80025c2:	d017      	beq.n	80025f4 <HAL_GPIO_Init+0x40>
 80025c4:	f503 6380 	add.w	r3, r3, #1024	; 0x400
 80025c8:	4298      	cmp	r0, r3
 80025ca:	d013      	beq.n	80025f4 <HAL_GPIO_Init+0x40>
 80025cc:	f503 6380 	add.w	r3, r3, #1024	; 0x400
 80025d0:	4298      	cmp	r0, r3
 80025d2:	d00f      	beq.n	80025f4 <HAL_GPIO_Init+0x40>
 80025d4:	f503 6380 	add.w	r3, r3, #1024	; 0x400
 80025d8:	4298      	cmp	r0, r3
 80025da:	d00b      	beq.n	80025f4 <HAL_GPIO_Init+0x40>
 80025dc:	f503 6380 	add.w	r3, r3, #1024	; 0x400
 80025e0:	4298      	cmp	r0, r3
 80025e2:	d007      	beq.n	80025f4 <HAL_GPIO_Init+0x40>
 80025e4:	f503 6340 	add.w	r3, r3, #3072	; 0xc00
 80025e8:	4298      	cmp	r0, r3
 80025ea:	d003      	beq.n	80025f4 <HAL_GPIO_Init+0x40>
 80025ec:	4890      	ldr	r0, [pc, #576]	; (8002830 <HAL_GPIO_Init+0x27c>)
 80025ee:	21ac      	movs	r1, #172	; 0xac
 80025f0:	f7ff f854 	bl	800169c <assert_failed>
  assert_param(IS_GPIO_PIN(GPIO_Init->Pin));
 80025f4:	683b      	ldr	r3, [r7, #0]
 80025f6:	b29a      	uxth	r2, r3
 80025f8:	2a00      	cmp	r2, #0
 80025fa:	f000 80d2 	beq.w	80027a2 <HAL_GPIO_Init+0x1ee>
 80025fe:	0c1b      	lsrs	r3, r3, #16
 8002600:	041b      	lsls	r3, r3, #16
 8002602:	2b00      	cmp	r3, #0
 8002604:	f040 80cd 	bne.w	80027a2 <HAL_GPIO_Init+0x1ee>
  assert_param(IS_GPIO_MODE(GPIO_Init->Mode));
 8002608:	687b      	ldr	r3, [r7, #4]
 800260a:	2b03      	cmp	r3, #3
 800260c:	d917      	bls.n	800263e <HAL_GPIO_Init+0x8a>
 800260e:	f1a3 0211 	sub.w	r2, r3, #17
 8002612:	2a01      	cmp	r2, #1
 8002614:	d913      	bls.n	800263e <HAL_GPIO_Init+0x8a>
 8002616:	4987      	ldr	r1, [pc, #540]	; (8002834 <HAL_GPIO_Init+0x280>)
 8002618:	f423 1200 	bic.w	r2, r3, #2097152	; 0x200000
 800261c:	428a      	cmp	r2, r1
 800261e:	d00e      	beq.n	800263e <HAL_GPIO_Init+0x8a>
 8002620:	f501 1180 	add.w	r1, r1, #1048576	; 0x100000
 8002624:	428b      	cmp	r3, r1
 8002626:	d00a      	beq.n	800263e <HAL_GPIO_Init+0x8a>
 8002628:	f5a1 2170 	sub.w	r1, r1, #983040	; 0xf0000
 800262c:	428a      	cmp	r2, r1
 800262e:	d006      	beq.n	800263e <HAL_GPIO_Init+0x8a>
 8002630:	4a81      	ldr	r2, [pc, #516]	; (8002838 <HAL_GPIO_Init+0x284>)
 8002632:	4293      	cmp	r3, r2
 8002634:	d003      	beq.n	800263e <HAL_GPIO_Init+0x8a>
 8002636:	487e      	ldr	r0, [pc, #504]	; (8002830 <HAL_GPIO_Init+0x27c>)
 8002638:	21ae      	movs	r1, #174	; 0xae
 800263a:	f7ff f82f 	bl	800169c <assert_failed>
  assert_param(IS_GPIO_PULL(GPIO_Init->Pull));
 800263e:	68bb      	ldr	r3, [r7, #8]
 8002640:	2b02      	cmp	r3, #2
 8002642:	f200 80e9 	bhi.w	8002818 <HAL_GPIO_Init+0x264>
        /* Enable SYSCFG Clock */
        __HAL_RCC_SYSCFG_CLK_ENABLE();

        temp = SYSCFG->EXTICR[position >> 2U];
        temp &= ~(0x0FU << (4U * (position & 0x03U)));
        temp |= ((uint32_t)(GPIO_GET_INDEX(GPIOx)) << (4U * (position & 0x03U)));
 8002646:	f8df a208 	ldr.w	sl, [pc, #520]	; 8002850 <HAL_GPIO_Init+0x29c>
{
 800264a:	2400      	movs	r4, #0
 800264c:	e003      	b.n	8002656 <HAL_GPIO_Init+0xa2>
  for(position = 0U; position < GPIO_NUMBER; position++)
 800264e:	3401      	adds	r4, #1
 8002650:	2c10      	cmp	r4, #16
 8002652:	f000 80a3 	beq.w	800279c <HAL_GPIO_Init+0x1e8>
    iocurrent = (uint32_t)(GPIO_Init->Pin) & ioposition;
 8002656:	683b      	ldr	r3, [r7, #0]
    ioposition = 0x01U << position;
 8002658:	2601      	movs	r6, #1
 800265a:	40a6      	lsls	r6, r4
    iocurrent = (uint32_t)(GPIO_Init->Pin) & ioposition;
 800265c:	ea06 0803 	and.w	r8, r6, r3
    if(iocurrent == ioposition)
 8002660:	ea36 0303 	bics.w	r3, r6, r3
 8002664:	d1f3      	bne.n	800264e <HAL_GPIO_Init+0x9a>
      if(((GPIO_Init->Mode & GPIO_MODE) == MODE_OUTPUT) || \
 8002666:	6879      	ldr	r1, [r7, #4]
 8002668:	f001 0303 	and.w	r3, r1, #3
 800266c:	1e5a      	subs	r2, r3, #1
 800266e:	2a01      	cmp	r2, #1
 8002670:	f240 809c 	bls.w	80027ac <HAL_GPIO_Init+0x1f8>
 8002674:	ea4f 0b44 	mov.w	fp, r4, lsl #1
 8002678:	f04f 0903 	mov.w	r9, #3
 800267c:	fa09 f90b 	lsl.w	r9, r9, fp
 8002680:	ea6f 0909 	mvn.w	r9, r9
      if((GPIO_Init->Mode & GPIO_MODE) != MODE_ANALOG)
 8002684:	2b03      	cmp	r3, #3
 8002686:	d028      	beq.n	80026da <HAL_GPIO_Init+0x126>
        temp = GPIOx->PUPDR;
 8002688:	68e8      	ldr	r0, [r5, #12]
        temp |= ((GPIO_Init->Pull) << (position * 2U));
 800268a:	68ba      	ldr	r2, [r7, #8]
        temp &= ~(GPIO_PUPDR_PUPDR0 << (position * 2U));
 800268c:	ea00 0009 	and.w	r0, r0, r9
        temp |= ((GPIO_Init->Pull) << (position * 2U));
 8002690:	fa02 f20b 	lsl.w	r2, r2, fp
 8002694:	4302      	orrs	r2, r0
      if((GPIO_Init->Mode & GPIO_MODE) == MODE_AF)
 8002696:	2b02      	cmp	r3, #2
        GPIOx->PUPDR = temp;
 8002698:	60ea      	str	r2, [r5, #12]
      if((GPIO_Init->Mode & GPIO_MODE) == MODE_AF)
 800269a:	d11e      	bne.n	80026da <HAL_GPIO_Init+0x126>
        assert_param(IS_GPIO_AF(GPIO_Init->Alternate));
 800269c:	693a      	ldr	r2, [r7, #16]
 800269e:	2a0f      	cmp	r2, #15
 80026a0:	f240 80a0 	bls.w	80027e4 <HAL_GPIO_Init+0x230>
 80026a4:	21dc      	movs	r1, #220	; 0xdc
 80026a6:	4862      	ldr	r0, [pc, #392]	; (8002830 <HAL_GPIO_Init+0x27c>)
 80026a8:	f7fe fff8 	bl	800169c <assert_failed>
 80026ac:	6879      	ldr	r1, [r7, #4]
 80026ae:	693a      	ldr	r2, [r7, #16]
 80026b0:	f001 0303 	and.w	r3, r1, #3
        temp = GPIOx->AFR[position >> 3U];
 80026b4:	ea4f 0cd4 	mov.w	ip, r4, lsr #3
 80026b8:	eb05 0c8c 	add.w	ip, r5, ip, lsl #2
        temp &= ~(0xFU << ((uint32_t)(position & 0x07U) * 4U)) ;
 80026bc:	f004 0607 	and.w	r6, r4, #7
        temp = GPIOx->AFR[position >> 3U];
 80026c0:	f8dc 0020 	ldr.w	r0, [ip, #32]
        temp &= ~(0xFU << ((uint32_t)(position & 0x07U) * 4U)) ;
 80026c4:	00b6      	lsls	r6, r6, #2
 80026c6:	f04f 0e0f 	mov.w	lr, #15
 80026ca:	fa0e fe06 	lsl.w	lr, lr, r6
        temp |= ((uint32_t)(GPIO_Init->Alternate) << (((uint32_t)position & 0x07U) * 4U));
 80026ce:	40b2      	lsls	r2, r6
        temp &= ~(0xFU << ((uint32_t)(position & 0x07U) * 4U)) ;
 80026d0:	ea20 000e 	bic.w	r0, r0, lr
        temp |= ((uint32_t)(GPIO_Init->Alternate) << (((uint32_t)position & 0x07U) * 4U));
 80026d4:	4302      	orrs	r2, r0
        GPIOx->AFR[position >> 3U] = temp;
 80026d6:	f8cc 2020 	str.w	r2, [ip, #32]
      temp = GPIOx->MODER;
 80026da:	682a      	ldr	r2, [r5, #0]
      temp |= ((GPIO_Init->Mode & GPIO_MODE) << (position * 2U));
 80026dc:	fa03 f30b 	lsl.w	r3, r3, fp
      temp &= ~(GPIO_MODER_MODER0 << (position * 2U));
 80026e0:	ea02 0909 	and.w	r9, r2, r9
      temp |= ((GPIO_Init->Mode & GPIO_MODE) << (position * 2U));
 80026e4:	ea43 0309 	orr.w	r3, r3, r9
      GPIOx->MODER = temp;
 80026e8:	602b      	str	r3, [r5, #0]
      if((GPIO_Init->Mode & EXTI_MODE) == EXTI_MODE)
 80026ea:	00cb      	lsls	r3, r1, #3
 80026ec:	d5af      	bpl.n	800264e <HAL_GPIO_Init+0x9a>
        __HAL_RCC_SYSCFG_CLK_ENABLE();
 80026ee:	4b53      	ldr	r3, [pc, #332]	; (800283c <HAL_GPIO_Init+0x288>)
        temp |= ((uint32_t)(GPIO_GET_INDEX(GPIOx)) << (4U * (position & 0x03U)));
 80026f0:	4e4e      	ldr	r6, [pc, #312]	; (800282c <HAL_GPIO_Init+0x278>)
        __HAL_RCC_SYSCFG_CLK_ENABLE();
 80026f2:	2200      	movs	r2, #0
 80026f4:	9201      	str	r2, [sp, #4]
 80026f6:	6c5a      	ldr	r2, [r3, #68]	; 0x44
 80026f8:	f442 4280 	orr.w	r2, r2, #16384	; 0x4000
 80026fc:	645a      	str	r2, [r3, #68]	; 0x44
 80026fe:	6c5a      	ldr	r2, [r3, #68]	; 0x44
 8002700:	f024 0303 	bic.w	r3, r4, #3
 8002704:	f103 4380 	add.w	r3, r3, #1073741824	; 0x40000000
 8002708:	f402 4280 	and.w	r2, r2, #16384	; 0x4000
 800270c:	f503 339c 	add.w	r3, r3, #79872	; 0x13800
 8002710:	9201      	str	r2, [sp, #4]
        temp &= ~(0x0FU << (4U * (position & 0x03U)));
 8002712:	f004 0203 	and.w	r2, r4, #3
        __HAL_RCC_SYSCFG_CLK_ENABLE();
 8002716:	9801      	ldr	r0, [sp, #4]
        temp = SYSCFG->EXTICR[position >> 2U];
 8002718:	f8d3 c008 	ldr.w	ip, [r3, #8]
        temp &= ~(0x0FU << (4U * (position & 0x03U)));
 800271c:	0092      	lsls	r2, r2, #2
 800271e:	200f      	movs	r0, #15
 8002720:	4090      	lsls	r0, r2
        temp |= ((uint32_t)(GPIO_GET_INDEX(GPIOx)) << (4U * (position & 0x03U)));
 8002722:	42b5      	cmp	r5, r6
        temp &= ~(0x0FU << (4U * (position & 0x03U)));
 8002724:	ea2c 0000 	bic.w	r0, ip, r0
        temp |= ((uint32_t)(GPIO_GET_INDEX(GPIOx)) << (4U * (position & 0x03U)));
 8002728:	d00f      	beq.n	800274a <HAL_GPIO_Init+0x196>
 800272a:	4555      	cmp	r5, sl
 800272c:	d06a      	beq.n	8002804 <HAL_GPIO_Init+0x250>
 800272e:	4e44      	ldr	r6, [pc, #272]	; (8002840 <HAL_GPIO_Init+0x28c>)
 8002730:	42b5      	cmp	r5, r6
 8002732:	d06c      	beq.n	800280e <HAL_GPIO_Init+0x25a>
 8002734:	4e43      	ldr	r6, [pc, #268]	; (8002844 <HAL_GPIO_Init+0x290>)
 8002736:	42b5      	cmp	r5, r6
 8002738:	d073      	beq.n	8002822 <HAL_GPIO_Init+0x26e>
 800273a:	4e43      	ldr	r6, [pc, #268]	; (8002848 <HAL_GPIO_Init+0x294>)
 800273c:	42b5      	cmp	r5, r6
 800273e:	bf0c      	ite	eq
 8002740:	2604      	moveq	r6, #4
 8002742:	2607      	movne	r6, #7
 8002744:	fa06 f202 	lsl.w	r2, r6, r2
 8002748:	4310      	orrs	r0, r2
        SYSCFG->EXTICR[position >> 2U] = temp;

        /* Clear EXTI line configuration */
        temp = EXTI->IMR;
 800274a:	4a40      	ldr	r2, [pc, #256]	; (800284c <HAL_GPIO_Init+0x298>)
        SYSCFG->EXTICR[position >> 2U] = temp;
 800274c:	6098      	str	r0, [r3, #8]
        temp = EXTI->IMR;
 800274e:	6812      	ldr	r2, [r2, #0]
        temp &= ~((uint32_t)iocurrent);
        if((GPIO_Init->Mode & GPIO_MODE_IT) == GPIO_MODE_IT)
        {
          temp |= iocurrent;
        }
        EXTI->IMR = temp;
 8002750:	4b3e      	ldr	r3, [pc, #248]	; (800284c <HAL_GPIO_Init+0x298>)
        temp &= ~((uint32_t)iocurrent);
 8002752:	ea6f 0008 	mvn.w	r0, r8
        if((GPIO_Init->Mode & GPIO_MODE_IT) == GPIO_MODE_IT)
 8002756:	03ce      	lsls	r6, r1, #15
        temp &= ~((uint32_t)iocurrent);
 8002758:	bf54      	ite	pl
 800275a:	4002      	andpl	r2, r0
          temp |= iocurrent;
 800275c:	ea48 0202 	orrmi.w	r2, r8, r2
        EXTI->IMR = temp;
 8002760:	601a      	str	r2, [r3, #0]

        temp = EXTI->EMR;
 8002762:	685a      	ldr	r2, [r3, #4]
        temp &= ~((uint32_t)iocurrent);
        if((GPIO_Init->Mode & GPIO_MODE_EVT) == GPIO_MODE_EVT)
 8002764:	038b      	lsls	r3, r1, #14
        {
          temp |= iocurrent;
        }
        EXTI->EMR = temp;
 8002766:	4b39      	ldr	r3, [pc, #228]	; (800284c <HAL_GPIO_Init+0x298>)
        temp &= ~((uint32_t)iocurrent);
 8002768:	bf54      	ite	pl
 800276a:	4002      	andpl	r2, r0
          temp |= iocurrent;
 800276c:	ea48 0202 	orrmi.w	r2, r8, r2
        EXTI->EMR = temp;
 8002770:	605a      	str	r2, [r3, #4]

        /* Clear Rising Falling edge configuration */
        temp = EXTI->RTSR;
 8002772:	689a      	ldr	r2, [r3, #8]
        temp &= ~((uint32_t)iocurrent);
        if((GPIO_Init->Mode & RISING_EDGE) == RISING_EDGE)
        {
          temp |= iocurrent;
        }
        EXTI->RTSR = temp;
 8002774:	4b35      	ldr	r3, [pc, #212]	; (800284c <HAL_GPIO_Init+0x298>)
        if((GPIO_Init->Mode & RISING_EDGE) == RISING_EDGE)
 8002776:	02ce      	lsls	r6, r1, #11
        temp &= ~((uint32_t)iocurrent);
 8002778:	bf54      	ite	pl
 800277a:	4002      	andpl	r2, r0
          temp |= iocurrent;
 800277c:	ea48 0202 	orrmi.w	r2, r8, r2
        EXTI->RTSR = temp;
 8002780:	609a      	str	r2, [r3, #8]

        temp = EXTI->FTSR;
 8002782:	68db      	ldr	r3, [r3, #12]
        temp &= ~((uint32_t)iocurrent);
        if((GPIO_Init->Mode & FALLING_EDGE) == FALLING_EDGE)
 8002784:	028a      	lsls	r2, r1, #10
  for(position = 0U; position < GPIO_NUMBER; position++)
 8002786:	f104 0401 	add.w	r4, r4, #1
        {
          temp |= iocurrent;
        }
        EXTI->FTSR = temp;
 800278a:	4a30      	ldr	r2, [pc, #192]	; (800284c <HAL_GPIO_Init+0x298>)
        temp &= ~((uint32_t)iocurrent);
 800278c:	bf54      	ite	pl
 800278e:	4003      	andpl	r3, r0
          temp |= iocurrent;
 8002790:	ea48 0303 	orrmi.w	r3, r8, r3
  for(position = 0U; position < GPIO_NUMBER; position++)
 8002794:	2c10      	cmp	r4, #16
        EXTI->FTSR = temp;
 8002796:	60d3      	str	r3, [r2, #12]
  for(position = 0U; position < GPIO_NUMBER; position++)
 8002798:	f47f af5d 	bne.w	8002656 <HAL_GPIO_Init+0xa2>
      }
    }
  }
}
 800279c:	b003      	add	sp, #12
 800279e:	e8bd 8ff0 	ldmia.w	sp!, {r4, r5, r6, r7, r8, r9, sl, fp, pc}
  assert_param(IS_GPIO_PIN(GPIO_Init->Pin));
 80027a2:	4823      	ldr	r0, [pc, #140]	; (8002830 <HAL_GPIO_Init+0x27c>)
 80027a4:	21ad      	movs	r1, #173	; 0xad
 80027a6:	f7fe ff79 	bl	800169c <assert_failed>
 80027aa:	e72d      	b.n	8002608 <HAL_GPIO_Init+0x54>
        assert_param(IS_GPIO_SPEED(GPIO_Init->Speed));
 80027ac:	68fa      	ldr	r2, [r7, #12]
 80027ae:	2a03      	cmp	r2, #3
 80027b0:	d81f      	bhi.n	80027f2 <HAL_GPIO_Init+0x23e>
        temp = GPIOx->OSPEEDR; 
 80027b2:	68a8      	ldr	r0, [r5, #8]
        temp &= ~(GPIO_OSPEEDER_OSPEEDR0 << (position * 2U));
 80027b4:	ea4f 0b44 	mov.w	fp, r4, lsl #1
 80027b8:	f04f 0903 	mov.w	r9, #3
 80027bc:	fa09 f90b 	lsl.w	r9, r9, fp
 80027c0:	ea20 0009 	bic.w	r0, r0, r9
        temp |= (GPIO_Init->Speed << (position * 2U));
 80027c4:	fa02 f20b 	lsl.w	r2, r2, fp
 80027c8:	4302      	orrs	r2, r0
        GPIOx->OSPEEDR = temp;
 80027ca:	60aa      	str	r2, [r5, #8]
        temp = GPIOx->OTYPER;
 80027cc:	6868      	ldr	r0, [r5, #4]
        temp |= (((GPIO_Init->Mode & GPIO_OUTPUT_TYPE) >> 4U) << position);
 80027ce:	f3c1 1200 	ubfx	r2, r1, #4, #1
        temp &= ~(GPIO_OTYPER_OT_0 << position) ;
 80027d2:	ea20 0006 	bic.w	r0, r0, r6
        temp |= (((GPIO_Init->Mode & GPIO_OUTPUT_TYPE) >> 4U) << position);
 80027d6:	4616      	mov	r6, r2
 80027d8:	40a6      	lsls	r6, r4
 80027da:	4306      	orrs	r6, r0
        temp &= ~(GPIO_OSPEEDER_OSPEEDR0 << (position * 2U));
 80027dc:	ea6f 0909 	mvn.w	r9, r9
        GPIOx->OTYPER = temp;
 80027e0:	606e      	str	r6, [r5, #4]
 80027e2:	e74f      	b.n	8002684 <HAL_GPIO_Init+0xd0>
        assert_param(IS_GPIO_AF(GPIO_Init->Alternate));
 80027e4:	f249 70f7 	movw	r0, #38903	; 0x97f7
 80027e8:	40d0      	lsrs	r0, r2
 80027ea:	07c0      	lsls	r0, r0, #31
 80027ec:	f53f af62 	bmi.w	80026b4 <HAL_GPIO_Init+0x100>
 80027f0:	e758      	b.n	80026a4 <HAL_GPIO_Init+0xf0>
        assert_param(IS_GPIO_SPEED(GPIO_Init->Speed));
 80027f2:	21c1      	movs	r1, #193	; 0xc1
 80027f4:	480e      	ldr	r0, [pc, #56]	; (8002830 <HAL_GPIO_Init+0x27c>)
 80027f6:	f7fe ff51 	bl	800169c <assert_failed>
 80027fa:	6879      	ldr	r1, [r7, #4]
 80027fc:	68fa      	ldr	r2, [r7, #12]
 80027fe:	f001 0303 	and.w	r3, r1, #3
 8002802:	e7d6      	b.n	80027b2 <HAL_GPIO_Init+0x1fe>
 8002804:	2601      	movs	r6, #1
 8002806:	fa06 f202 	lsl.w	r2, r6, r2
 800280a:	4310      	orrs	r0, r2
 800280c:	e79d      	b.n	800274a <HAL_GPIO_Init+0x196>
 800280e:	2602      	movs	r6, #2
 8002810:	fa06 f202 	lsl.w	r2, r6, r2
 8002814:	4310      	orrs	r0, r2
 8002816:	e798      	b.n	800274a <HAL_GPIO_Init+0x196>
  assert_param(IS_GPIO_PULL(GPIO_Init->Pull));
 8002818:	4805      	ldr	r0, [pc, #20]	; (8002830 <HAL_GPIO_Init+0x27c>)
 800281a:	21af      	movs	r1, #175	; 0xaf
 800281c:	f7fe ff3e 	bl	800169c <assert_failed>
 8002820:	e711      	b.n	8002646 <HAL_GPIO_Init+0x92>
 8002822:	2603      	movs	r6, #3
 8002824:	fa06 f202 	lsl.w	r2, r6, r2
 8002828:	4310      	orrs	r0, r2
 800282a:	e78e      	b.n	800274a <HAL_GPIO_Init+0x196>
 800282c:	40020000 	.word	0x40020000
 8002830:	0800966c 	.word	0x0800966c
 8002834:	10110000 	.word	0x10110000
 8002838:	10220000 	.word	0x10220000
 800283c:	40023800 	.word	0x40023800
 8002840:	40020800 	.word	0x40020800
 8002844:	40020c00 	.word	0x40020c00
 8002848:	40021000 	.word	0x40021000
 800284c:	40013c00 	.word	0x40013c00
 8002850:	40020400 	.word	0x40020400

08002854 <HAL_GPIO_DeInit>:
  * @param  GPIO_Pin specifies the port bit to be written.
  *          This parameter can be one of GPIO_PIN_x where x can be (0..15).
  * @retval None
  */
void HAL_GPIO_DeInit(GPIO_TypeDef  *GPIOx, uint32_t GPIO_Pin)
{
 8002854:	e92d 4ff0 	stmdb	sp!, {r4, r5, r6, r7, r8, r9, sl, fp, lr}
  uint32_t ioposition = 0x00U;
  uint32_t iocurrent = 0x00U;
  uint32_t tmp = 0x00U;

  /* Check the parameters */
  assert_param(IS_GPIO_ALL_INSTANCE(GPIOx));
 8002858:	4b52      	ldr	r3, [pc, #328]	; (80029a4 <HAL_GPIO_DeInit+0x150>)
 800285a:	4298      	cmp	r0, r3
{
 800285c:	b083      	sub	sp, #12
 800285e:	4604      	mov	r4, r0
 8002860:	460e      	mov	r6, r1
  assert_param(IS_GPIO_ALL_INSTANCE(GPIOx));
 8002862:	d018      	beq.n	8002896 <HAL_GPIO_DeInit+0x42>
 8002864:	f503 6380 	add.w	r3, r3, #1024	; 0x400
 8002868:	4298      	cmp	r0, r3
 800286a:	d014      	beq.n	8002896 <HAL_GPIO_DeInit+0x42>
 800286c:	f503 6380 	add.w	r3, r3, #1024	; 0x400
 8002870:	4298      	cmp	r0, r3
 8002872:	d010      	beq.n	8002896 <HAL_GPIO_DeInit+0x42>
 8002874:	f503 6380 	add.w	r3, r3, #1024	; 0x400
 8002878:	4298      	cmp	r0, r3
 800287a:	d00c      	beq.n	8002896 <HAL_GPIO_DeInit+0x42>
 800287c:	f503 6380 	add.w	r3, r3, #1024	; 0x400
 8002880:	4298      	cmp	r0, r3
 8002882:	d008      	beq.n	8002896 <HAL_GPIO_DeInit+0x42>
 8002884:	f503 6340 	add.w	r3, r3, #3072	; 0xc00
 8002888:	4298      	cmp	r0, r3
 800288a:	d004      	beq.n	8002896 <HAL_GPIO_DeInit+0x42>
 800288c:	4846      	ldr	r0, [pc, #280]	; (80029a8 <HAL_GPIO_DeInit+0x154>)
 800288e:	f44f 7196 	mov.w	r1, #300	; 0x12c
 8002892:	f7fe ff03 	bl	800169c <assert_failed>
    if(iocurrent == ioposition)
    {
      /*------------------------- EXTI Mode Configuration --------------------*/
      tmp = SYSCFG->EXTICR[position >> 2U];
      tmp &= (0x0FU << (4U * (position & 0x03U)));
      if(tmp == ((uint32_t)(GPIO_GET_INDEX(GPIOx)) << (4U * (position & 0x03U))))
 8002896:	f8df b10c 	ldr.w	fp, [pc, #268]	; 80029a4 <HAL_GPIO_DeInit+0x150>
      {
        /* Clear EXTI line configuration */
        EXTI->IMR &= ~((uint32_t)iocurrent);
 800289a:	f8df e120 	ldr.w	lr, [pc, #288]	; 80029bc <HAL_GPIO_DeInit+0x168>
{
 800289e:	2300      	movs	r3, #0
    ioposition = 0x01U << position;
 80028a0:	f04f 0c01 	mov.w	ip, #1
      tmp &= (0x0FU << (4U * (position & 0x03U)));
 80028a4:	f04f 090f 	mov.w	r9, #15
        SYSCFG->EXTICR[position >> 2U] &= ~tmp;
      }

      /*------------------------- GPIO Mode Configuration --------------------*/
      /* Configure IO Direction in Input Floating Mode */
      GPIOx->MODER &= ~(GPIO_MODER_MODER0 << (position * 2U));
 80028a8:	f04f 0a03 	mov.w	sl, #3
 80028ac:	e002      	b.n	80028b4 <HAL_GPIO_DeInit+0x60>
  for(position = 0U; position < GPIO_NUMBER; position++)
 80028ae:	3301      	adds	r3, #1
 80028b0:	2b10      	cmp	r3, #16
 80028b2:	d068      	beq.n	8002986 <HAL_GPIO_DeInit+0x132>
    ioposition = 0x01U << position;
 80028b4:	fa0c f203 	lsl.w	r2, ip, r3
    if(iocurrent == ioposition)
 80028b8:	ea32 0106 	bics.w	r1, r2, r6
    iocurrent = (GPIO_Pin) & ioposition;
 80028bc:	ea02 0506 	and.w	r5, r2, r6
    if(iocurrent == ioposition)
 80028c0:	d1f5      	bne.n	80028ae <HAL_GPIO_DeInit+0x5a>
      tmp = SYSCFG->EXTICR[position >> 2U];
 80028c2:	f023 0003 	bic.w	r0, r3, #3
 80028c6:	f100 4080 	add.w	r0, r0, #1073741824	; 0x40000000
 80028ca:	f500 309c 	add.w	r0, r0, #79872	; 0x13800
      tmp &= (0x0FU << (4U * (position & 0x03U)));
 80028ce:	f003 0103 	and.w	r1, r3, #3
      tmp = SYSCFG->EXTICR[position >> 2U];
 80028d2:	6887      	ldr	r7, [r0, #8]
      tmp &= (0x0FU << (4U * (position & 0x03U)));
 80028d4:	0089      	lsls	r1, r1, #2
 80028d6:	fa09 f801 	lsl.w	r8, r9, r1
 80028da:	ea08 0707 	and.w	r7, r8, r7
      if(tmp == ((uint32_t)(GPIO_GET_INDEX(GPIOx)) << (4U * (position & 0x03U))))
 80028de:	455c      	cmp	r4, fp
      tmp &= (0x0FU << (4U * (position & 0x03U)));
 80028e0:	9701      	str	r7, [sp, #4]
      if(tmp == ((uint32_t)(GPIO_GET_INDEX(GPIOx)) << (4U * (position & 0x03U))))
 80028e2:	d053      	beq.n	800298c <HAL_GPIO_DeInit+0x138>
 80028e4:	4f31      	ldr	r7, [pc, #196]	; (80029ac <HAL_GPIO_DeInit+0x158>)
 80028e6:	42bc      	cmp	r4, r7
 80028e8:	d052      	beq.n	8002990 <HAL_GPIO_DeInit+0x13c>
 80028ea:	4f31      	ldr	r7, [pc, #196]	; (80029b0 <HAL_GPIO_DeInit+0x15c>)
 80028ec:	42bc      	cmp	r4, r7
 80028ee:	d052      	beq.n	8002996 <HAL_GPIO_DeInit+0x142>
 80028f0:	4f30      	ldr	r7, [pc, #192]	; (80029b4 <HAL_GPIO_DeInit+0x160>)
 80028f2:	42bc      	cmp	r4, r7
 80028f4:	d053      	beq.n	800299e <HAL_GPIO_DeInit+0x14a>
 80028f6:	4f30      	ldr	r7, [pc, #192]	; (80029b8 <HAL_GPIO_DeInit+0x164>)
 80028f8:	42bc      	cmp	r4, r7
 80028fa:	bf14      	ite	ne
 80028fc:	2707      	movne	r7, #7
 80028fe:	2704      	moveq	r7, #4
 8002900:	fa07 f101 	lsl.w	r1, r7, r1
 8002904:	9f01      	ldr	r7, [sp, #4]
 8002906:	428f      	cmp	r7, r1
 8002908:	d11b      	bne.n	8002942 <HAL_GPIO_DeInit+0xee>
        EXTI->IMR &= ~((uint32_t)iocurrent);
 800290a:	f8de 1000 	ldr.w	r1, [lr]
 800290e:	ea21 0105 	bic.w	r1, r1, r5
 8002912:	f8ce 1000 	str.w	r1, [lr]
        EXTI->EMR &= ~((uint32_t)iocurrent);
 8002916:	f8de 1004 	ldr.w	r1, [lr, #4]
 800291a:	ea21 0105 	bic.w	r1, r1, r5
 800291e:	f8ce 1004 	str.w	r1, [lr, #4]
        EXTI->RTSR &= ~((uint32_t)iocurrent);
 8002922:	f8de 1008 	ldr.w	r1, [lr, #8]
 8002926:	ea21 0105 	bic.w	r1, r1, r5
 800292a:	f8ce 1008 	str.w	r1, [lr, #8]
        EXTI->FTSR &= ~((uint32_t)iocurrent);
 800292e:	f8de 100c 	ldr.w	r1, [lr, #12]
 8002932:	ea21 0505 	bic.w	r5, r1, r5
 8002936:	f8ce 500c 	str.w	r5, [lr, #12]
        SYSCFG->EXTICR[position >> 2U] &= ~tmp;
 800293a:	6881      	ldr	r1, [r0, #8]
 800293c:	ea21 0108 	bic.w	r1, r1, r8
 8002940:	6081      	str	r1, [r0, #8]
      GPIOx->MODER &= ~(GPIO_MODER_MODER0 << (position * 2U));
 8002942:	6821      	ldr	r1, [r4, #0]
 8002944:	005d      	lsls	r5, r3, #1
 8002946:	fa0a f505 	lsl.w	r5, sl, r5

      /* Configure the default Alternate Function in current IO */
      GPIOx->AFR[position >> 3U] &= ~(0xFU << ((uint32_t)(position & 0x07U) * 4U)) ;
 800294a:	08d8      	lsrs	r0, r3, #3
      GPIOx->MODER &= ~(GPIO_MODER_MODER0 << (position * 2U));
 800294c:	ea21 0105 	bic.w	r1, r1, r5
 8002950:	eb04 0080 	add.w	r0, r4, r0, lsl #2
 8002954:	6021      	str	r1, [r4, #0]
      GPIOx->AFR[position >> 3U] &= ~(0xFU << ((uint32_t)(position & 0x07U) * 4U)) ;
 8002956:	f003 0107 	and.w	r1, r3, #7
 800295a:	6a07      	ldr	r7, [r0, #32]
 800295c:	0089      	lsls	r1, r1, #2
 800295e:	fa09 f101 	lsl.w	r1, r9, r1
 8002962:	ea27 0101 	bic.w	r1, r7, r1
 8002966:	6201      	str	r1, [r0, #32]

      /* Deactivate the Pull-up and Pull-down resistor for the current IO */
      GPIOx->PUPDR &= ~(GPIO_PUPDR_PUPDR0 << (position * 2U));
 8002968:	68e1      	ldr	r1, [r4, #12]
 800296a:	ea21 0105 	bic.w	r1, r1, r5
 800296e:	60e1      	str	r1, [r4, #12]

      /* Configure the default value IO Output Type */
      GPIOx->OTYPER  &= ~(GPIO_OTYPER_OT_0 << position) ;
 8002970:	6861      	ldr	r1, [r4, #4]
 8002972:	ea21 0202 	bic.w	r2, r1, r2
 8002976:	6062      	str	r2, [r4, #4]

      /* Configure the default value for IO Speed */
      GPIOx->OSPEEDR &= ~(GPIO_OSPEEDER_OSPEEDR0 << (position * 2U));
 8002978:	68a2      	ldr	r2, [r4, #8]
  for(position = 0U; position < GPIO_NUMBER; position++)
 800297a:	3301      	adds	r3, #1
      GPIOx->OSPEEDR &= ~(GPIO_OSPEEDER_OSPEEDR0 << (position * 2U));
 800297c:	ea22 0505 	bic.w	r5, r2, r5
  for(position = 0U; position < GPIO_NUMBER; position++)
 8002980:	2b10      	cmp	r3, #16
      GPIOx->OSPEEDR &= ~(GPIO_OSPEEDER_OSPEEDR0 << (position * 2U));
 8002982:	60a5      	str	r5, [r4, #8]
  for(position = 0U; position < GPIO_NUMBER; position++)
 8002984:	d196      	bne.n	80028b4 <HAL_GPIO_DeInit+0x60>
    }
  }
}
 8002986:	b003      	add	sp, #12
 8002988:	e8bd 8ff0 	ldmia.w	sp!, {r4, r5, r6, r7, r8, r9, sl, fp, pc}
 800298c:	2100      	movs	r1, #0
 800298e:	e7b9      	b.n	8002904 <HAL_GPIO_DeInit+0xb0>
 8002990:	fa0c f101 	lsl.w	r1, ip, r1
 8002994:	e7b6      	b.n	8002904 <HAL_GPIO_DeInit+0xb0>
 8002996:	2702      	movs	r7, #2
 8002998:	fa07 f101 	lsl.w	r1, r7, r1
 800299c:	e7b2      	b.n	8002904 <HAL_GPIO_DeInit+0xb0>
 800299e:	fa0a f101 	lsl.w	r1, sl, r1
 80029a2:	e7af      	b.n	8002904 <HAL_GPIO_DeInit+0xb0>
 80029a4:	40020000 	.word	0x40020000
 80029a8:	0800966c 	.word	0x0800966c
 80029ac:	40020400 	.word	0x40020400
 80029b0:	40020800 	.word	0x40020800
 80029b4:	40020c00 	.word	0x40020c00
 80029b8:	40021000 	.word	0x40021000
 80029bc:	40013c00 	.word	0x40013c00

080029c0 <HAL_GPIO_ReadPin>:
  * @param  GPIO_Pin specifies the port bit to read.
  *         This parameter can be GPIO_PIN_x where x can be (0..15).
  * @retval The input port pin value.
  */
GPIO_PinState HAL_GPIO_ReadPin(GPIO_TypeDef* GPIOx, uint16_t GPIO_Pin)
{
 80029c0:	b538      	push	{r3, r4, r5, lr}
 80029c2:	4605      	mov	r5, r0
  GPIO_PinState bitstatus;

  /* Check the parameters */
  assert_param(IS_GPIO_PIN(GPIO_Pin));
 80029c4:	460c      	mov	r4, r1
 80029c6:	b129      	cbz	r1, 80029d4 <HAL_GPIO_ReadPin+0x14>

  if((GPIOx->IDR & GPIO_Pin) != (uint32_t)GPIO_PIN_RESET)
 80029c8:	692b      	ldr	r3, [r5, #16]
 80029ca:	421c      	tst	r4, r3
  else
  {
    bitstatus = GPIO_PIN_RESET;
  }
  return bitstatus;
}
 80029cc:	bf14      	ite	ne
 80029ce:	2001      	movne	r0, #1
 80029d0:	2000      	moveq	r0, #0
 80029d2:	bd38      	pop	{r3, r4, r5, pc}
  assert_param(IS_GPIO_PIN(GPIO_Pin));
 80029d4:	4802      	ldr	r0, [pc, #8]	; (80029e0 <HAL_GPIO_ReadPin+0x20>)
 80029d6:	f44f 71bd 	mov.w	r1, #378	; 0x17a
 80029da:	f7fe fe5f 	bl	800169c <assert_failed>
 80029de:	e7f3      	b.n	80029c8 <HAL_GPIO_ReadPin+0x8>
 80029e0:	0800966c 	.word	0x0800966c

080029e4 <HAL_GPIO_WritePin>:
  *            @arg GPIO_PIN_RESET: to clear the port pin
  *            @arg GPIO_PIN_SET: to set the port pin
  * @retval None
  */
void HAL_GPIO_WritePin(GPIO_TypeDef* GPIOx, uint16_t GPIO_Pin, GPIO_PinState PinState)
{
 80029e4:	b570      	push	{r4, r5, r6, lr}
 80029e6:	4606      	mov	r6, r0
 80029e8:	4615      	mov	r5, r2
  /* Check the parameters */
  assert_param(IS_GPIO_PIN(GPIO_Pin));
 80029ea:	460c      	mov	r4, r1
 80029ec:	b161      	cbz	r1, 8002a08 <HAL_GPIO_WritePin+0x24>
  assert_param(IS_GPIO_PIN_ACTION(PinState));
 80029ee:	2d01      	cmp	r5, #1
 80029f0:	d803      	bhi.n	80029fa <HAL_GPIO_WritePin+0x16>

  if(PinState != GPIO_PIN_RESET)
 80029f2:	b905      	cbnz	r5, 80029f6 <HAL_GPIO_WritePin+0x12>
  {
    GPIOx->BSRR = GPIO_Pin;
  }
  else
  {
    GPIOx->BSRR = (uint32_t)GPIO_Pin << 16U;
 80029f4:	0424      	lsls	r4, r4, #16
 80029f6:	61b4      	str	r4, [r6, #24]
  }
}
 80029f8:	bd70      	pop	{r4, r5, r6, pc}
  assert_param(IS_GPIO_PIN_ACTION(PinState));
 80029fa:	4806      	ldr	r0, [pc, #24]	; (8002a14 <HAL_GPIO_WritePin+0x30>)
 80029fc:	f44f 71ce 	mov.w	r1, #412	; 0x19c
 8002a00:	f7fe fe4c 	bl	800169c <assert_failed>
    GPIOx->BSRR = (uint32_t)GPIO_Pin << 16U;
 8002a04:	61b4      	str	r4, [r6, #24]
}
 8002a06:	bd70      	pop	{r4, r5, r6, pc}
  assert_param(IS_GPIO_PIN(GPIO_Pin));
 8002a08:	4802      	ldr	r0, [pc, #8]	; (8002a14 <HAL_GPIO_WritePin+0x30>)
 8002a0a:	f240 119b 	movw	r1, #411	; 0x19b
 8002a0e:	f7fe fe45 	bl	800169c <assert_failed>
 8002a12:	e7ec      	b.n	80029ee <HAL_GPIO_WritePin+0xa>
 8002a14:	0800966c 	.word	0x0800966c

08002a18 <HAL_GPIO_TogglePin>:
  *                      x can be (A..I) to select the GPIO peripheral for STM32F40XX and STM32F427X devices.
  * @param  GPIO_Pin Specifies the pins to be toggled.
  * @retval None
  */
void HAL_GPIO_TogglePin(GPIO_TypeDef* GPIOx, uint16_t GPIO_Pin)
{
 8002a18:	b538      	push	{r3, r4, r5, lr}
 8002a1a:	4605      	mov	r5, r0
  uint32_t odr;

  /* Check the parameters */
  assert_param(IS_GPIO_PIN(GPIO_Pin));
 8002a1c:	460c      	mov	r4, r1
 8002a1e:	b141      	cbz	r1, 8002a32 <HAL_GPIO_TogglePin+0x1a>

  /* get current Ouput Data Register value */
  odr = GPIOx->ODR;
 8002a20:	6969      	ldr	r1, [r5, #20]

  /* Set selected pins that were at low level, and reset ones that were high */
  GPIOx->BSRR = ((odr & GPIO_Pin) << GPIO_NUMBER) | (~odr & GPIO_Pin);
 8002a22:	ea04 0301 	and.w	r3, r4, r1
 8002a26:	ea24 0401 	bic.w	r4, r4, r1
 8002a2a:	ea44 4403 	orr.w	r4, r4, r3, lsl #16
 8002a2e:	61ac      	str	r4, [r5, #24]
}
 8002a30:	bd38      	pop	{r3, r4, r5, pc}
  assert_param(IS_GPIO_PIN(GPIO_Pin));
 8002a32:	4803      	ldr	r0, [pc, #12]	; (8002a40 <HAL_GPIO_TogglePin+0x28>)
 8002a34:	f44f 71da 	mov.w	r1, #436	; 0x1b4
 8002a38:	f7fe fe30 	bl	800169c <assert_failed>
 8002a3c:	e7f0      	b.n	8002a20 <HAL_GPIO_TogglePin+0x8>
 8002a3e:	bf00      	nop
 8002a40:	0800966c 	.word	0x0800966c

08002a44 <HAL_GPIO_EXTI_Callback>:
  /* Prevent unused argument(s) compilation warning */
  UNUSED(GPIO_Pin);
  /* NOTE: This function Should not be modified, when the callback is needed,
           the HAL_GPIO_EXTI_Callback could be implemented in the user file
   */
}
 8002a44:	4770      	bx	lr
 8002a46:	bf00      	nop

08002a48 <HAL_GPIO_EXTI_IRQHandler>:
  if(__HAL_GPIO_EXTI_GET_IT(GPIO_Pin) != RESET)
 8002a48:	4a04      	ldr	r2, [pc, #16]	; (8002a5c <HAL_GPIO_EXTI_IRQHandler+0x14>)
 8002a4a:	6951      	ldr	r1, [r2, #20]
 8002a4c:	4201      	tst	r1, r0
 8002a4e:	d100      	bne.n	8002a52 <HAL_GPIO_EXTI_IRQHandler+0xa>
 8002a50:	4770      	bx	lr
{
 8002a52:	b508      	push	{r3, lr}
    __HAL_GPIO_EXTI_CLEAR_IT(GPIO_Pin);
 8002a54:	6150      	str	r0, [r2, #20]
    HAL_GPIO_EXTI_Callback(GPIO_Pin);
 8002a56:	f7ff fff5 	bl	8002a44 <HAL_GPIO_EXTI_Callback>
}
 8002a5a:	bd08      	pop	{r3, pc}
 8002a5c:	40013c00 	.word	0x40013c00

08002a60 <HAL_I2C_Init>:
{
  uint32_t freqrange;
  uint32_t pclk1;

  /* Check the I2C handle allocation */
  if (hi2c == NULL)
 8002a60:	2800      	cmp	r0, #0
 8002a62:	f000 8135 	beq.w	8002cd0 <HAL_I2C_Init+0x270>
{
 8002a66:	b5f8      	push	{r3, r4, r5, r6, r7, lr}
  {
    return HAL_ERROR;
  }

  /* Check the parameters */
  assert_param(IS_I2C_ALL_INSTANCE(hi2c->Instance));
 8002a68:	4a9a      	ldr	r2, [pc, #616]	; (8002cd4 <HAL_I2C_Init+0x274>)
 8002a6a:	6803      	ldr	r3, [r0, #0]
 8002a6c:	4293      	cmp	r3, r2
 8002a6e:	4604      	mov	r4, r0
 8002a70:	d00c      	beq.n	8002a8c <HAL_I2C_Init+0x2c>
 8002a72:	f502 6280 	add.w	r2, r2, #1024	; 0x400
 8002a76:	4293      	cmp	r3, r2
 8002a78:	d008      	beq.n	8002a8c <HAL_I2C_Init+0x2c>
 8002a7a:	f502 6280 	add.w	r2, r2, #1024	; 0x400
 8002a7e:	4293      	cmp	r3, r2
 8002a80:	d004      	beq.n	8002a8c <HAL_I2C_Init+0x2c>
 8002a82:	4895      	ldr	r0, [pc, #596]	; (8002cd8 <HAL_I2C_Init+0x278>)
 8002a84:	f240 11bf 	movw	r1, #447	; 0x1bf
 8002a88:	f7fe fe08 	bl	800169c <assert_failed>
  assert_param(IS_I2C_CLOCK_SPEED(hi2c->Init.ClockSpeed));
 8002a8c:	6863      	ldr	r3, [r4, #4]
 8002a8e:	4a93      	ldr	r2, [pc, #588]	; (8002cdc <HAL_I2C_Init+0x27c>)
 8002a90:	3b01      	subs	r3, #1
 8002a92:	4293      	cmp	r3, r2
 8002a94:	f200 8103 	bhi.w	8002c9e <HAL_I2C_Init+0x23e>
  assert_param(IS_I2C_DUTY_CYCLE(hi2c->Init.DutyCycle));
 8002a98:	68a3      	ldr	r3, [r4, #8]
 8002a9a:	f433 4380 	bics.w	r3, r3, #16384	; 0x4000
 8002a9e:	f040 80d9 	bne.w	8002c54 <HAL_I2C_Init+0x1f4>
  assert_param(IS_I2C_OWN_ADDRESS1(hi2c->Init.OwnAddress1));
 8002aa2:	68e3      	ldr	r3, [r4, #12]
 8002aa4:	f423 737f 	bic.w	r3, r3, #1020	; 0x3fc
 8002aa8:	f023 0303 	bic.w	r3, r3, #3
 8002aac:	2b00      	cmp	r3, #0
 8002aae:	f040 80de 	bne.w	8002c6e <HAL_I2C_Init+0x20e>
  assert_param(IS_I2C_ADDRESSING_MODE(hi2c->Init.AddressingMode));
 8002ab2:	6923      	ldr	r3, [r4, #16]
 8002ab4:	f423 4300 	bic.w	r3, r3, #32768	; 0x8000
 8002ab8:	f5b3 4f80 	cmp.w	r3, #16384	; 0x4000
 8002abc:	d004      	beq.n	8002ac8 <HAL_I2C_Init+0x68>
 8002abe:	4886      	ldr	r0, [pc, #536]	; (8002cd8 <HAL_I2C_Init+0x278>)
 8002ac0:	f240 11c3 	movw	r1, #451	; 0x1c3
 8002ac4:	f7fe fdea 	bl	800169c <assert_failed>
  assert_param(IS_I2C_DUAL_ADDRESS(hi2c->Init.DualAddressMode));
 8002ac8:	6963      	ldr	r3, [r4, #20]
 8002aca:	2b01      	cmp	r3, #1
 8002acc:	f200 80d5 	bhi.w	8002c7a <HAL_I2C_Init+0x21a>
  assert_param(IS_I2C_OWN_ADDRESS2(hi2c->Init.OwnAddress2));
 8002ad0:	69a3      	ldr	r3, [r4, #24]
 8002ad2:	f033 03fe 	bics.w	r3, r3, #254	; 0xfe
 8002ad6:	f040 80da 	bne.w	8002c8e <HAL_I2C_Init+0x22e>
  assert_param(IS_I2C_GENERAL_CALL(hi2c->Init.GeneralCallMode));
 8002ada:	69e3      	ldr	r3, [r4, #28]
 8002adc:	f033 0340 	bics.w	r3, r3, #64	; 0x40
 8002ae0:	d004      	beq.n	8002aec <HAL_I2C_Init+0x8c>
 8002ae2:	487d      	ldr	r0, [pc, #500]	; (8002cd8 <HAL_I2C_Init+0x278>)
 8002ae4:	f44f 71e3 	mov.w	r1, #454	; 0x1c6
 8002ae8:	f7fe fdd8 	bl	800169c <assert_failed>
  assert_param(IS_I2C_NO_STRETCH(hi2c->Init.NoStretchMode));
 8002aec:	6a23      	ldr	r3, [r4, #32]
 8002aee:	f033 0380 	bics.w	r3, r3, #128	; 0x80
 8002af2:	f040 809d 	bne.w	8002c30 <HAL_I2C_Init+0x1d0>

  if (hi2c->State == HAL_I2C_STATE_RESET)
 8002af6:	f894 303d 	ldrb.w	r3, [r4, #61]	; 0x3d
 8002afa:	f003 02ff 	and.w	r2, r3, #255	; 0xff
 8002afe:	2b00      	cmp	r3, #0
 8002b00:	f000 80a2 	beq.w	8002c48 <HAL_I2C_Init+0x1e8>
  }

  hi2c->State = HAL_I2C_STATE_BUSY;

  /* Disable the selected I2C peripheral */
  __HAL_I2C_DISABLE(hi2c);
 8002b04:	6823      	ldr	r3, [r4, #0]
  hi2c->State = HAL_I2C_STATE_BUSY;
 8002b06:	2224      	movs	r2, #36	; 0x24
 8002b08:	f884 203d 	strb.w	r2, [r4, #61]	; 0x3d
  __HAL_I2C_DISABLE(hi2c);
 8002b0c:	681a      	ldr	r2, [r3, #0]
 8002b0e:	f022 0201 	bic.w	r2, r2, #1
 8002b12:	601a      	str	r2, [r3, #0]

  /*Reset I2C*/
  hi2c->Instance->CR1 |= I2C_CR1_SWRST;
 8002b14:	681a      	ldr	r2, [r3, #0]
 8002b16:	f442 4200 	orr.w	r2, r2, #32768	; 0x8000
 8002b1a:	601a      	str	r2, [r3, #0]
  hi2c->Instance->CR1 &= ~I2C_CR1_SWRST;
 8002b1c:	681a      	ldr	r2, [r3, #0]
 8002b1e:	f422 4200 	bic.w	r2, r2, #32768	; 0x8000
 8002b22:	601a      	str	r2, [r3, #0]

  /* Get PCLK1 frequency */
  pclk1 = HAL_RCC_GetPCLK1Freq();
 8002b24:	f001 fafc 	bl	8004120 <HAL_RCC_GetPCLK1Freq>

  /* Check the minimum allowed PCLK1 frequency */
  if (I2C_MIN_PCLK_FREQ(pclk1, hi2c->Init.ClockSpeed) == 1U)
 8002b28:	6865      	ldr	r5, [r4, #4]
 8002b2a:	4b6d      	ldr	r3, [pc, #436]	; (8002ce0 <HAL_I2C_Init+0x280>)
 8002b2c:	429d      	cmp	r5, r3
 8002b2e:	d84e      	bhi.n	8002bce <HAL_I2C_Init+0x16e>
 8002b30:	4b6c      	ldr	r3, [pc, #432]	; (8002ce4 <HAL_I2C_Init+0x284>)
 8002b32:	4298      	cmp	r0, r3
 8002b34:	f240 80b1 	bls.w	8002c9a <HAL_I2C_Init+0x23a>
  /* Calculate frequency range */
  freqrange = I2C_FREQRANGE(pclk1);

  /*---------------------------- I2Cx CR2 Configuration ----------------------*/
  /* Configure I2Cx: Frequency range */
  MODIFY_REG(hi2c->Instance->CR2, I2C_CR2_FREQ, freqrange);
 8002b38:	6822      	ldr	r2, [r4, #0]
  freqrange = I2C_FREQRANGE(pclk1);
 8002b3a:	4b6b      	ldr	r3, [pc, #428]	; (8002ce8 <HAL_I2C_Init+0x288>)
  MODIFY_REG(hi2c->Instance->CR2, I2C_CR2_FREQ, freqrange);
 8002b3c:	6851      	ldr	r1, [r2, #4]
  freqrange = I2C_FREQRANGE(pclk1);
 8002b3e:	fba3 6300 	umull	r6, r3, r3, r0
  MODIFY_REG(hi2c->Instance->CR2, I2C_CR2_FREQ, freqrange);
 8002b42:	f021 013f 	bic.w	r1, r1, #63	; 0x3f
 8002b46:	ea41 4193 	orr.w	r1, r1, r3, lsr #18
 8002b4a:	6051      	str	r1, [r2, #4]

  /*---------------------------- I2Cx TRISE Configuration --------------------*/
  /* Configure I2Cx: Rise Time */
  MODIFY_REG(hi2c->Instance->TRISE, I2C_TRISE_TRISE, I2C_RISE_TIME(freqrange, hi2c->Init.ClockSpeed));
 8002b4c:	6a11      	ldr	r1, [r2, #32]
  freqrange = I2C_FREQRANGE(pclk1);
 8002b4e:	0c9b      	lsrs	r3, r3, #18
  MODIFY_REG(hi2c->Instance->TRISE, I2C_TRISE_TRISE, I2C_RISE_TIME(freqrange, hi2c->Init.ClockSpeed));
 8002b50:	f021 013f 	bic.w	r1, r1, #63	; 0x3f
 8002b54:	3301      	adds	r3, #1
 8002b56:	430b      	orrs	r3, r1
 8002b58:	6213      	str	r3, [r2, #32]

  /*---------------------------- I2Cx CCR Configuration ----------------------*/
  /* Configure I2Cx: Speed */
  MODIFY_REG(hi2c->Instance->CCR, (I2C_CCR_FS | I2C_CCR_DUTY | I2C_CCR_CCR), I2C_SPEED(pclk1, hi2c->Init.ClockSpeed, hi2c->Init.DutyCycle));
 8002b5a:	69d1      	ldr	r1, [r2, #28]
 8002b5c:	3801      	subs	r0, #1
 8002b5e:	006b      	lsls	r3, r5, #1
 8002b60:	fbb0 f3f3 	udiv	r3, r0, r3
 8002b64:	f640 70fc 	movw	r0, #4092	; 0xffc
 8002b68:	3301      	adds	r3, #1
 8002b6a:	f421 414f 	bic.w	r1, r1, #52992	; 0xcf00
 8002b6e:	4203      	tst	r3, r0
 8002b70:	f021 01ff 	bic.w	r1, r1, #255	; 0xff
 8002b74:	f040 8099 	bne.w	8002caa <HAL_I2C_Init+0x24a>
 8002b78:	2304      	movs	r3, #4
 8002b7a:	430b      	orrs	r3, r1
 8002b7c:	61d3      	str	r3, [r2, #28]

  /*---------------------------- I2Cx CR1 Configuration ----------------------*/
  /* Configure I2Cx: Generalcall and NoStretch mode */
  MODIFY_REG(hi2c->Instance->CR1, (I2C_CR1_ENGC | I2C_CR1_NOSTRETCH), (hi2c->Init.GeneralCallMode | hi2c->Init.NoStretchMode));
 8002b7e:	e9d4 3507 	ldrd	r3, r5, [r4, #28]
 8002b82:	6810      	ldr	r0, [r2, #0]

  /*---------------------------- I2Cx OAR1 Configuration ---------------------*/
  /* Configure I2Cx: Own Address1 and addressing mode */
  MODIFY_REG(hi2c->Instance->OAR1, (I2C_OAR1_ADDMODE | I2C_OAR1_ADD8_9 | I2C_OAR1_ADD1_7 | I2C_OAR1_ADD0), (hi2c->Init.AddressingMode | hi2c->Init.OwnAddress1));
 8002b84:	6921      	ldr	r1, [r4, #16]
  MODIFY_REG(hi2c->Instance->CR1, (I2C_CR1_ENGC | I2C_CR1_NOSTRETCH), (hi2c->Init.GeneralCallMode | hi2c->Init.NoStretchMode));
 8002b86:	f020 00c0 	bic.w	r0, r0, #192	; 0xc0
 8002b8a:	432b      	orrs	r3, r5
 8002b8c:	4303      	orrs	r3, r0
 8002b8e:	6013      	str	r3, [r2, #0]
  MODIFY_REG(hi2c->Instance->OAR1, (I2C_OAR1_ADDMODE | I2C_OAR1_ADD8_9 | I2C_OAR1_ADD1_7 | I2C_OAR1_ADD0), (hi2c->Init.AddressingMode | hi2c->Init.OwnAddress1));
 8002b90:	6890      	ldr	r0, [r2, #8]
 8002b92:	68e5      	ldr	r5, [r4, #12]

  /*---------------------------- I2Cx OAR2 Configuration ---------------------*/
  /* Configure I2Cx: Dual mode and Own Address2 */
  MODIFY_REG(hi2c->Instance->OAR2, (I2C_OAR2_ENDUAL | I2C_OAR2_ADD2), (hi2c->Init.DualAddressMode | hi2c->Init.OwnAddress2));
 8002b94:	6963      	ldr	r3, [r4, #20]
  MODIFY_REG(hi2c->Instance->OAR1, (I2C_OAR1_ADDMODE | I2C_OAR1_ADD8_9 | I2C_OAR1_ADD1_7 | I2C_OAR1_ADD0), (hi2c->Init.AddressingMode | hi2c->Init.OwnAddress1));
 8002b96:	f420 4003 	bic.w	r0, r0, #33536	; 0x8300
 8002b9a:	f020 00ff 	bic.w	r0, r0, #255	; 0xff
 8002b9e:	4329      	orrs	r1, r5
 8002ba0:	4301      	orrs	r1, r0
 8002ba2:	6091      	str	r1, [r2, #8]
  MODIFY_REG(hi2c->Instance->OAR2, (I2C_OAR2_ENDUAL | I2C_OAR2_ADD2), (hi2c->Init.DualAddressMode | hi2c->Init.OwnAddress2));
 8002ba4:	68d1      	ldr	r1, [r2, #12]
 8002ba6:	69a0      	ldr	r0, [r4, #24]
 8002ba8:	f021 01ff 	bic.w	r1, r1, #255	; 0xff
 8002bac:	4303      	orrs	r3, r0
 8002bae:	430b      	orrs	r3, r1
 8002bb0:	60d3      	str	r3, [r2, #12]

  /* Enable the selected I2C peripheral */
  __HAL_I2C_ENABLE(hi2c);
 8002bb2:	6811      	ldr	r1, [r2, #0]

  hi2c->ErrorCode = HAL_I2C_ERROR_NONE;
 8002bb4:	2300      	movs	r3, #0
  __HAL_I2C_ENABLE(hi2c);
 8002bb6:	f041 0101 	orr.w	r1, r1, #1
  hi2c->State = HAL_I2C_STATE_READY;
 8002bba:	2520      	movs	r5, #32
  __HAL_I2C_ENABLE(hi2c);
 8002bbc:	6011      	str	r1, [r2, #0]
  hi2c->ErrorCode = HAL_I2C_ERROR_NONE;
 8002bbe:	6423      	str	r3, [r4, #64]	; 0x40
  hi2c->State = HAL_I2C_STATE_READY;
 8002bc0:	f884 503d 	strb.w	r5, [r4, #61]	; 0x3d
  hi2c->PreviousState = I2C_STATE_NONE;
 8002bc4:	6323      	str	r3, [r4, #48]	; 0x30
  hi2c->Mode = HAL_I2C_MODE_NONE;
 8002bc6:	f884 303e 	strb.w	r3, [r4, #62]	; 0x3e

  return HAL_OK;
 8002bca:	4618      	mov	r0, r3
}
 8002bcc:	bdf8      	pop	{r3, r4, r5, r6, r7, pc}
  if (I2C_MIN_PCLK_FREQ(pclk1, hi2c->Init.ClockSpeed) == 1U)
 8002bce:	4b47      	ldr	r3, [pc, #284]	; (8002cec <HAL_I2C_Init+0x28c>)
 8002bd0:	4298      	cmp	r0, r3
 8002bd2:	d962      	bls.n	8002c9a <HAL_I2C_Init+0x23a>
  MODIFY_REG(hi2c->Instance->CR2, I2C_CR2_FREQ, freqrange);
 8002bd4:	6822      	ldr	r2, [r4, #0]
  freqrange = I2C_FREQRANGE(pclk1);
 8002bd6:	4944      	ldr	r1, [pc, #272]	; (8002ce8 <HAL_I2C_Init+0x288>)
  MODIFY_REG(hi2c->Instance->CR2, I2C_CR2_FREQ, freqrange);
 8002bd8:	6856      	ldr	r6, [r2, #4]
  MODIFY_REG(hi2c->Instance->TRISE, I2C_TRISE_TRISE, I2C_RISE_TIME(freqrange, hi2c->Init.ClockSpeed));
 8002bda:	4f45      	ldr	r7, [pc, #276]	; (8002cf0 <HAL_I2C_Init+0x290>)
  freqrange = I2C_FREQRANGE(pclk1);
 8002bdc:	fba1 3100 	umull	r3, r1, r1, r0
  MODIFY_REG(hi2c->Instance->CR2, I2C_CR2_FREQ, freqrange);
 8002be0:	f026 063f 	bic.w	r6, r6, #63	; 0x3f
 8002be4:	ea46 4691 	orr.w	r6, r6, r1, lsr #18
  MODIFY_REG(hi2c->Instance->TRISE, I2C_TRISE_TRISE, I2C_RISE_TIME(freqrange, hi2c->Init.ClockSpeed));
 8002be8:	f44f 7396 	mov.w	r3, #300	; 0x12c
  freqrange = I2C_FREQRANGE(pclk1);
 8002bec:	0c89      	lsrs	r1, r1, #18
  MODIFY_REG(hi2c->Instance->CR2, I2C_CR2_FREQ, freqrange);
 8002bee:	6056      	str	r6, [r2, #4]
  MODIFY_REG(hi2c->Instance->TRISE, I2C_TRISE_TRISE, I2C_RISE_TIME(freqrange, hi2c->Init.ClockSpeed));
 8002bf0:	fb03 f301 	mul.w	r3, r3, r1
 8002bf4:	fba7 1303 	umull	r1, r3, r7, r3
 8002bf8:	6a11      	ldr	r1, [r2, #32]
  MODIFY_REG(hi2c->Instance->CCR, (I2C_CCR_FS | I2C_CCR_DUTY | I2C_CCR_CCR), I2C_SPEED(pclk1, hi2c->Init.ClockSpeed, hi2c->Init.DutyCycle));
 8002bfa:	68a6      	ldr	r6, [r4, #8]
  MODIFY_REG(hi2c->Instance->TRISE, I2C_TRISE_TRISE, I2C_RISE_TIME(freqrange, hi2c->Init.ClockSpeed));
 8002bfc:	099b      	lsrs	r3, r3, #6
 8002bfe:	f021 013f 	bic.w	r1, r1, #63	; 0x3f
 8002c02:	3301      	adds	r3, #1
 8002c04:	430b      	orrs	r3, r1
 8002c06:	6213      	str	r3, [r2, #32]
  MODIFY_REG(hi2c->Instance->CCR, (I2C_CCR_FS | I2C_CCR_DUTY | I2C_CCR_CCR), I2C_SPEED(pclk1, hi2c->Init.ClockSpeed, hi2c->Init.DutyCycle));
 8002c08:	69d1      	ldr	r1, [r2, #28]
 8002c0a:	f421 414f 	bic.w	r1, r1, #52992	; 0xcf00
 8002c0e:	f021 01ff 	bic.w	r1, r1, #255	; 0xff
 8002c12:	2e00      	cmp	r6, #0
 8002c14:	d14c      	bne.n	8002cb0 <HAL_I2C_Init+0x250>
 8002c16:	3801      	subs	r0, #1
 8002c18:	eb05 0345 	add.w	r3, r5, r5, lsl #1
 8002c1c:	fbb0 f3f3 	udiv	r3, r0, r3
 8002c20:	3301      	adds	r3, #1
 8002c22:	f3c3 030b 	ubfx	r3, r3, #0, #12
 8002c26:	2b00      	cmp	r3, #0
 8002c28:	d050      	beq.n	8002ccc <HAL_I2C_Init+0x26c>
 8002c2a:	f443 4300 	orr.w	r3, r3, #32768	; 0x8000
 8002c2e:	e7a4      	b.n	8002b7a <HAL_I2C_Init+0x11a>
  assert_param(IS_I2C_NO_STRETCH(hi2c->Init.NoStretchMode));
 8002c30:	4829      	ldr	r0, [pc, #164]	; (8002cd8 <HAL_I2C_Init+0x278>)
 8002c32:	f240 11c7 	movw	r1, #455	; 0x1c7
 8002c36:	f7fe fd31 	bl	800169c <assert_failed>
  if (hi2c->State == HAL_I2C_STATE_RESET)
 8002c3a:	f894 303d 	ldrb.w	r3, [r4, #61]	; 0x3d
 8002c3e:	f003 02ff 	and.w	r2, r3, #255	; 0xff
 8002c42:	2b00      	cmp	r3, #0
 8002c44:	f47f af5e 	bne.w	8002b04 <HAL_I2C_Init+0xa4>
    hi2c->Lock = HAL_UNLOCKED;
 8002c48:	f884 203c 	strb.w	r2, [r4, #60]	; 0x3c
    HAL_I2C_MspInit(hi2c);
 8002c4c:	4620      	mov	r0, r4
 8002c4e:	f7fe fc69 	bl	8001524 <HAL_I2C_MspInit>
 8002c52:	e757      	b.n	8002b04 <HAL_I2C_Init+0xa4>
  assert_param(IS_I2C_DUTY_CYCLE(hi2c->Init.DutyCycle));
 8002c54:	4820      	ldr	r0, [pc, #128]	; (8002cd8 <HAL_I2C_Init+0x278>)
 8002c56:	f240 11c1 	movw	r1, #449	; 0x1c1
 8002c5a:	f7fe fd1f 	bl	800169c <assert_failed>
  assert_param(IS_I2C_OWN_ADDRESS1(hi2c->Init.OwnAddress1));
 8002c5e:	68e3      	ldr	r3, [r4, #12]
 8002c60:	f423 737f 	bic.w	r3, r3, #1020	; 0x3fc
 8002c64:	f023 0303 	bic.w	r3, r3, #3
 8002c68:	2b00      	cmp	r3, #0
 8002c6a:	f43f af22 	beq.w	8002ab2 <HAL_I2C_Init+0x52>
 8002c6e:	481a      	ldr	r0, [pc, #104]	; (8002cd8 <HAL_I2C_Init+0x278>)
 8002c70:	f44f 71e1 	mov.w	r1, #450	; 0x1c2
 8002c74:	f7fe fd12 	bl	800169c <assert_failed>
 8002c78:	e71b      	b.n	8002ab2 <HAL_I2C_Init+0x52>
  assert_param(IS_I2C_DUAL_ADDRESS(hi2c->Init.DualAddressMode));
 8002c7a:	4817      	ldr	r0, [pc, #92]	; (8002cd8 <HAL_I2C_Init+0x278>)
 8002c7c:	f44f 71e2 	mov.w	r1, #452	; 0x1c4
 8002c80:	f7fe fd0c 	bl	800169c <assert_failed>
  assert_param(IS_I2C_OWN_ADDRESS2(hi2c->Init.OwnAddress2));
 8002c84:	69a3      	ldr	r3, [r4, #24]
 8002c86:	f033 03fe 	bics.w	r3, r3, #254	; 0xfe
 8002c8a:	f43f af26 	beq.w	8002ada <HAL_I2C_Init+0x7a>
 8002c8e:	4812      	ldr	r0, [pc, #72]	; (8002cd8 <HAL_I2C_Init+0x278>)
 8002c90:	f240 11c5 	movw	r1, #453	; 0x1c5
 8002c94:	f7fe fd02 	bl	800169c <assert_failed>
 8002c98:	e71f      	b.n	8002ada <HAL_I2C_Init+0x7a>
    return HAL_ERROR;
 8002c9a:	2001      	movs	r0, #1
}
 8002c9c:	bdf8      	pop	{r3, r4, r5, r6, r7, pc}
  assert_param(IS_I2C_CLOCK_SPEED(hi2c->Init.ClockSpeed));
 8002c9e:	480e      	ldr	r0, [pc, #56]	; (8002cd8 <HAL_I2C_Init+0x278>)
 8002ca0:	f44f 71e0 	mov.w	r1, #448	; 0x1c0
 8002ca4:	f7fe fcfa 	bl	800169c <assert_failed>
 8002ca8:	e6f6      	b.n	8002a98 <HAL_I2C_Init+0x38>
  MODIFY_REG(hi2c->Instance->CCR, (I2C_CCR_FS | I2C_CCR_DUTY | I2C_CCR_CCR), I2C_SPEED(pclk1, hi2c->Init.ClockSpeed, hi2c->Init.DutyCycle));
 8002caa:	f3c3 030b 	ubfx	r3, r3, #0, #12
 8002cae:	e764      	b.n	8002b7a <HAL_I2C_Init+0x11a>
 8002cb0:	eb05 0385 	add.w	r3, r5, r5, lsl #2
 8002cb4:	eb03 0383 	add.w	r3, r3, r3, lsl #2
 8002cb8:	3801      	subs	r0, #1
 8002cba:	fbb0 f3f3 	udiv	r3, r0, r3
 8002cbe:	3301      	adds	r3, #1
 8002cc0:	f3c3 030b 	ubfx	r3, r3, #0, #12
 8002cc4:	b113      	cbz	r3, 8002ccc <HAL_I2C_Init+0x26c>
 8002cc6:	f443 4340 	orr.w	r3, r3, #49152	; 0xc000
 8002cca:	e756      	b.n	8002b7a <HAL_I2C_Init+0x11a>
 8002ccc:	2301      	movs	r3, #1
 8002cce:	e754      	b.n	8002b7a <HAL_I2C_Init+0x11a>
    return HAL_ERROR;
 8002cd0:	2001      	movs	r0, #1
}
 8002cd2:	4770      	bx	lr
 8002cd4:	40005400 	.word	0x40005400
 8002cd8:	080096a8 	.word	0x080096a8
 8002cdc:	00061a7f 	.word	0x00061a7f
 8002ce0:	000186a0 	.word	0x000186a0
 8002ce4:	001e847f 	.word	0x001e847f
 8002ce8:	431bde83 	.word	0x431bde83
 8002cec:	003d08ff 	.word	0x003d08ff
 8002cf0:	10624dd3 	.word	0x10624dd3

08002cf4 <HAL_I2C_MasterTxCpltCallback>:
 8002cf4:	4770      	bx	lr
 8002cf6:	bf00      	nop

08002cf8 <HAL_I2C_MasterRxCpltCallback>:
 8002cf8:	4770      	bx	lr
 8002cfa:	bf00      	nop

08002cfc <HAL_I2C_SlaveTxCpltCallback>:
 8002cfc:	4770      	bx	lr
 8002cfe:	bf00      	nop

08002d00 <HAL_I2C_SlaveRxCpltCallback>:
 8002d00:	4770      	bx	lr
 8002d02:	bf00      	nop

08002d04 <HAL_I2C_AddrCallback>:
  UNUSED(AddrMatchCode);

  /* NOTE : This function should not be modified, when the callback is needed,
            the HAL_I2C_AddrCallback() could be implemented in the user file
   */
}
 8002d04:	4770      	bx	lr
 8002d06:	bf00      	nop

08002d08 <HAL_I2C_ListenCpltCallback>:
 8002d08:	4770      	bx	lr
 8002d0a:	bf00      	nop

08002d0c <HAL_I2C_MemTxCpltCallback>:
 8002d0c:	4770      	bx	lr
 8002d0e:	bf00      	nop

08002d10 <I2C_MemoryTransmit_TXE_BTF>:
  * @param  hi2c Pointer to a I2C_HandleTypeDef structure that contains
  *         the configuration information for I2C module
  * @retval None
  */
static void I2C_MemoryTransmit_TXE_BTF(I2C_HandleTypeDef *hi2c)
{
 8002d10:	b538      	push	{r3, r4, r5, lr}
  /* Declaration of temporary variables to prevent undefined behavior of volatile usage */
  HAL_I2C_StateTypeDef CurrentState = hi2c->State;
 8002d12:	f890 203d 	ldrb.w	r2, [r0, #61]	; 0x3d

  if (hi2c->EventCount == 0U)
 8002d16:	6d01      	ldr	r1, [r0, #80]	; 0x50
{
 8002d18:	4603      	mov	r3, r0
  if (hi2c->EventCount == 0U)
 8002d1a:	b959      	cbnz	r1, 8002d34 <I2C_MemoryTransmit_TXE_BTF+0x24>
  {
    /* If Memory address size is 8Bit */
    if (hi2c->MemaddSize == I2C_MEMADD_SIZE_8BIT)
 8002d1c:	6cc2      	ldr	r2, [r0, #76]	; 0x4c
    {
      /* Send Memory Address */
      hi2c->Instance->DR = I2C_MEM_ADD_LSB(hi2c->Memaddress);
 8002d1e:	6801      	ldr	r1, [r0, #0]
    if (hi2c->MemaddSize == I2C_MEMADD_SIZE_8BIT)
 8002d20:	2a01      	cmp	r2, #1
      hi2c->Instance->DR = I2C_MEM_ADD_LSB(hi2c->Memaddress);
 8002d22:	6c82      	ldr	r2, [r0, #72]	; 0x48
    if (hi2c->MemaddSize == I2C_MEMADD_SIZE_8BIT)
 8002d24:	d032      	beq.n	8002d8c <I2C_MemoryTransmit_TXE_BTF+0x7c>
    }
    /* If Memory address size is 16Bit */
    else
    {
      /* Send MSB of Memory Address */
      hi2c->Instance->DR = I2C_MEM_ADD_MSB(hi2c->Memaddress);
 8002d26:	f3c2 2207 	ubfx	r2, r2, #8, #8
 8002d2a:	610a      	str	r2, [r1, #16]

      hi2c->EventCount++;
 8002d2c:	6d02      	ldr	r2, [r0, #80]	; 0x50
 8002d2e:	3201      	adds	r2, #1
 8002d30:	6502      	str	r2, [r0, #80]	; 0x50
  }
  else
  {
    /* Do nothing */
  }
}
 8002d32:	bd38      	pop	{r3, r4, r5, pc}
  else if (hi2c->EventCount == 1U)
 8002d34:	6d01      	ldr	r1, [r0, #80]	; 0x50
 8002d36:	2901      	cmp	r1, #1
 8002d38:	d020      	beq.n	8002d7c <I2C_MemoryTransmit_TXE_BTF+0x6c>
  else if (hi2c->EventCount == 2U)
 8002d3a:	6d01      	ldr	r1, [r0, #80]	; 0x50
 8002d3c:	2902      	cmp	r1, #2
 8002d3e:	d1f8      	bne.n	8002d32 <I2C_MemoryTransmit_TXE_BTF+0x22>
 8002d40:	b2d2      	uxtb	r2, r2
    if (CurrentState == HAL_I2C_STATE_BUSY_RX)
 8002d42:	2a22      	cmp	r2, #34	; 0x22
 8002d44:	d02c      	beq.n	8002da0 <I2C_MemoryTransmit_TXE_BTF+0x90>
    else if ((hi2c->XferCount > 0U) && (CurrentState == HAL_I2C_STATE_BUSY_TX))
 8002d46:	8d41      	ldrh	r1, [r0, #42]	; 0x2a
 8002d48:	b289      	uxth	r1, r1
 8002d4a:	bb29      	cbnz	r1, 8002d98 <I2C_MemoryTransmit_TXE_BTF+0x88>
    else if ((hi2c->XferCount == 0U) && (CurrentState == HAL_I2C_STATE_BUSY_TX))
 8002d4c:	8d41      	ldrh	r1, [r0, #42]	; 0x2a
 8002d4e:	b289      	uxth	r1, r1
 8002d50:	2900      	cmp	r1, #0
 8002d52:	d1ee      	bne.n	8002d32 <I2C_MemoryTransmit_TXE_BTF+0x22>
 8002d54:	2a21      	cmp	r2, #33	; 0x21
 8002d56:	d1ec      	bne.n	8002d32 <I2C_MemoryTransmit_TXE_BTF+0x22>
      __HAL_I2C_DISABLE_IT(hi2c, I2C_IT_EVT | I2C_IT_BUF | I2C_IT_ERR);
 8002d58:	6802      	ldr	r2, [r0, #0]
 8002d5a:	6854      	ldr	r4, [r2, #4]
 8002d5c:	f424 64e0 	bic.w	r4, r4, #1792	; 0x700
 8002d60:	6054      	str	r4, [r2, #4]
      SET_BIT(hi2c->Instance->CR1, I2C_CR1_STOP);
 8002d62:	6814      	ldr	r4, [r2, #0]
      hi2c->State = HAL_I2C_STATE_READY;
 8002d64:	2520      	movs	r5, #32
      SET_BIT(hi2c->Instance->CR1, I2C_CR1_STOP);
 8002d66:	f444 7400 	orr.w	r4, r4, #512	; 0x200
 8002d6a:	6014      	str	r4, [r2, #0]
      hi2c->PreviousState = I2C_STATE_NONE;
 8002d6c:	6301      	str	r1, [r0, #48]	; 0x30
      hi2c->State = HAL_I2C_STATE_READY;
 8002d6e:	f880 503d 	strb.w	r5, [r0, #61]	; 0x3d
      hi2c->Mode = HAL_I2C_MODE_NONE;
 8002d72:	f880 103e 	strb.w	r1, [r0, #62]	; 0x3e
      HAL_I2C_MemTxCpltCallback(hi2c);
 8002d76:	f7ff ffc9 	bl	8002d0c <HAL_I2C_MemTxCpltCallback>
}
 8002d7a:	bd38      	pop	{r3, r4, r5, pc}
    hi2c->Instance->DR = I2C_MEM_ADD_LSB(hi2c->Memaddress);
 8002d7c:	6c82      	ldr	r2, [r0, #72]	; 0x48
 8002d7e:	6801      	ldr	r1, [r0, #0]
 8002d80:	b2d2      	uxtb	r2, r2
 8002d82:	610a      	str	r2, [r1, #16]
    hi2c->EventCount++;
 8002d84:	6d02      	ldr	r2, [r0, #80]	; 0x50
 8002d86:	3201      	adds	r2, #1
 8002d88:	6502      	str	r2, [r0, #80]	; 0x50
}
 8002d8a:	bd38      	pop	{r3, r4, r5, pc}
      hi2c->Instance->DR = I2C_MEM_ADD_LSB(hi2c->Memaddress);
 8002d8c:	b2d2      	uxtb	r2, r2
 8002d8e:	610a      	str	r2, [r1, #16]
      hi2c->EventCount += 2U;
 8002d90:	6d02      	ldr	r2, [r0, #80]	; 0x50
 8002d92:	3202      	adds	r2, #2
 8002d94:	6502      	str	r2, [r0, #80]	; 0x50
}
 8002d96:	bd38      	pop	{r3, r4, r5, pc}
    else if ((hi2c->XferCount > 0U) && (CurrentState == HAL_I2C_STATE_BUSY_TX))
 8002d98:	2a21      	cmp	r2, #33	; 0x21
 8002d9a:	d007      	beq.n	8002dac <I2C_MemoryTransmit_TXE_BTF+0x9c>
    else if ((hi2c->XferCount == 0U) && (CurrentState == HAL_I2C_STATE_BUSY_TX))
 8002d9c:	8d5b      	ldrh	r3, [r3, #42]	; 0x2a
}
 8002d9e:	bd38      	pop	{r3, r4, r5, pc}
      hi2c->Instance->CR1 |= I2C_CR1_START;
 8002da0:	6802      	ldr	r2, [r0, #0]
 8002da2:	6813      	ldr	r3, [r2, #0]
 8002da4:	f443 7380 	orr.w	r3, r3, #256	; 0x100
 8002da8:	6013      	str	r3, [r2, #0]
}
 8002daa:	bd38      	pop	{r3, r4, r5, pc}
      hi2c->Instance->DR = *hi2c->pBuffPtr;
 8002dac:	6a41      	ldr	r1, [r0, #36]	; 0x24
 8002dae:	6802      	ldr	r2, [r0, #0]
 8002db0:	f811 0b01 	ldrb.w	r0, [r1], #1
 8002db4:	6110      	str	r0, [r2, #16]
      hi2c->XferCount--;
 8002db6:	8d5a      	ldrh	r2, [r3, #42]	; 0x2a
      hi2c->pBuffPtr++;
 8002db8:	6259      	str	r1, [r3, #36]	; 0x24
      hi2c->XferCount--;
 8002dba:	3a01      	subs	r2, #1
 8002dbc:	b292      	uxth	r2, r2
 8002dbe:	855a      	strh	r2, [r3, #42]	; 0x2a
}
 8002dc0:	bd38      	pop	{r3, r4, r5, pc}
 8002dc2:	bf00      	nop

08002dc4 <HAL_I2C_MemRxCpltCallback>:
 8002dc4:	4770      	bx	lr
 8002dc6:	bf00      	nop

08002dc8 <HAL_I2C_ErrorCallback>:
 8002dc8:	4770      	bx	lr
 8002dca:	bf00      	nop

08002dcc <HAL_I2C_AbortCpltCallback>:
 8002dcc:	4770      	bx	lr
 8002dce:	bf00      	nop

08002dd0 <I2C_DMAAbort>:
  *        (To be called at end of DMA Abort procedure).
  * @param hdma DMA handle.
  * @retval None
  */
static void I2C_DMAAbort(DMA_HandleTypeDef *hdma)
{
 8002dd0:	b570      	push	{r4, r5, r6, lr}
  /* Declaration of temporary variable to prevent undefined behavior of volatile usage */
  HAL_I2C_StateTypeDef CurrentState = hi2c->State;

  /* During abort treatment, check that there is no pending STOP request */
  /* Wait until STOP flag is reset */
  count = I2C_TIMEOUT_FLAG * (SystemCoreClock / 25U / 1000U);
 8002dd2:	4b3a      	ldr	r3, [pc, #232]	; (8002ebc <I2C_DMAAbort+0xec>)
 8002dd4:	4a3a      	ldr	r2, [pc, #232]	; (8002ec0 <I2C_DMAAbort+0xf0>)
 8002dd6:	681b      	ldr	r3, [r3, #0]
  I2C_HandleTypeDef *hi2c = (I2C_HandleTypeDef *)((DMA_HandleTypeDef *)hdma)->Parent; /* Derogation MISRAC2012-Rule-11.5 */
 8002dd8:	6b80      	ldr	r0, [r0, #56]	; 0x38
{
 8002dda:	b082      	sub	sp, #8
  count = I2C_TIMEOUT_FLAG * (SystemCoreClock / 25U / 1000U);
 8002ddc:	08db      	lsrs	r3, r3, #3
 8002dde:	fba2 2303 	umull	r2, r3, r2, r3
  __IO uint32_t count = 0U;
 8002de2:	2200      	movs	r2, #0
 8002de4:	9201      	str	r2, [sp, #4]
  count = I2C_TIMEOUT_FLAG * (SystemCoreClock / 25U / 1000U);
 8002de6:	0a1b      	lsrs	r3, r3, #8
  HAL_I2C_StateTypeDef CurrentState = hi2c->State;
 8002de8:	f890 103d 	ldrb.w	r1, [r0, #61]	; 0x3d
 8002dec:	6802      	ldr	r2, [r0, #0]
  count = I2C_TIMEOUT_FLAG * (SystemCoreClock / 25U / 1000U);
 8002dee:	eb03 0383 	add.w	r3, r3, r3, lsl #2
 8002df2:	ebc3 03c3 	rsb	r3, r3, r3, lsl #3
 8002df6:	9301      	str	r3, [sp, #4]
  HAL_I2C_StateTypeDef CurrentState = hi2c->State;
 8002df8:	b2c9      	uxtb	r1, r1
  count = I2C_TIMEOUT_FLAG * (SystemCoreClock / 25U / 1000U);
 8002dfa:	e005      	b.n	8002e08 <I2C_DMAAbort+0x38>
    if (count == 0U)
    {
      hi2c->ErrorCode |= HAL_I2C_ERROR_TIMEOUT;
      break;
    }
    count--;
 8002dfc:	9b01      	ldr	r3, [sp, #4]
 8002dfe:	3b01      	subs	r3, #1
 8002e00:	9301      	str	r3, [sp, #4]
  }
  while (READ_BIT(hi2c->Instance->CR1, I2C_CR1_STOP) == I2C_CR1_STOP);
 8002e02:	6813      	ldr	r3, [r2, #0]
 8002e04:	059b      	lsls	r3, r3, #22
 8002e06:	d506      	bpl.n	8002e16 <I2C_DMAAbort+0x46>
    if (count == 0U)
 8002e08:	9b01      	ldr	r3, [sp, #4]
 8002e0a:	2b00      	cmp	r3, #0
 8002e0c:	d1f6      	bne.n	8002dfc <I2C_DMAAbort+0x2c>
      hi2c->ErrorCode |= HAL_I2C_ERROR_TIMEOUT;
 8002e0e:	6c03      	ldr	r3, [r0, #64]	; 0x40
 8002e10:	f043 0320 	orr.w	r3, r3, #32
 8002e14:	6403      	str	r3, [r0, #64]	; 0x40
  /* Clear Complete callback */
  if (hi2c->hdmatx != NULL)
  {
    hi2c->hdmatx->XferCpltCallback = NULL;
  }
  if (hi2c->hdmarx != NULL)
 8002e16:	e9d0 430d 	ldrd	r4, r3, [r0, #52]	; 0x34
  if (hi2c->hdmatx != NULL)
 8002e1a:	b344      	cbz	r4, 8002e6e <I2C_DMAAbort+0x9e>
    hi2c->hdmatx->XferCpltCallback = NULL;
 8002e1c:	2500      	movs	r5, #0
 8002e1e:	63e5      	str	r5, [r4, #60]	; 0x3c
  if (hi2c->hdmarx != NULL)
 8002e20:	b1f3      	cbz	r3, 8002e60 <I2C_DMAAbort+0x90>
  {
    hi2c->hdmarx->XferCpltCallback = NULL;
  }

  /* Disable Acknowledge */
  CLEAR_BIT(hi2c->Instance->CR1, I2C_CR1_ACK);
 8002e22:	6816      	ldr	r6, [r2, #0]
    hi2c->hdmarx->XferCpltCallback = NULL;
 8002e24:	63dd      	str	r5, [r3, #60]	; 0x3c
  CLEAR_BIT(hi2c->Instance->CR1, I2C_CR1_ACK);
 8002e26:	f426 6680 	bic.w	r6, r6, #1024	; 0x400
 8002e2a:	6016      	str	r6, [r2, #0]

  hi2c->XferCount = 0U;
 8002e2c:	8545      	strh	r5, [r0, #42]	; 0x2a

  /* Reset XferAbortCallback */
  if (hi2c->hdmatx != NULL)
  {
    hi2c->hdmatx->XferAbortCallback = NULL;
 8002e2e:	6525      	str	r5, [r4, #80]	; 0x50
  }
  if (hi2c->hdmarx != NULL)
  {
    hi2c->hdmarx->XferAbortCallback = NULL;
 8002e30:	2400      	movs	r4, #0
 8002e32:	651c      	str	r4, [r3, #80]	; 0x50
  }

  /* Disable I2C peripheral to prevent dummy data in buffer */
  __HAL_I2C_DISABLE(hi2c);
 8002e34:	6813      	ldr	r3, [r2, #0]
 8002e36:	f023 0301 	bic.w	r3, r3, #1
 8002e3a:	6013      	str	r3, [r2, #0]

  /* Check if come from abort from user */
  if (hi2c->State == HAL_I2C_STATE_ABORT)
 8002e3c:	f890 303d 	ldrb.w	r3, [r0, #61]	; 0x3d
 8002e40:	2b60      	cmp	r3, #96	; 0x60
 8002e42:	d029      	beq.n	8002e98 <I2C_DMAAbort+0xc8>
    HAL_I2C_AbortCpltCallback(hi2c);
#endif /* USE_HAL_I2C_REGISTER_CALLBACKS */
  }
  else
  {
    if (((uint32_t)CurrentState & (uint32_t)HAL_I2C_STATE_LISTEN) == (uint32_t)HAL_I2C_STATE_LISTEN)
 8002e44:	f001 0128 	and.w	r1, r1, #40	; 0x28
 8002e48:	2928      	cmp	r1, #40	; 0x28
 8002e4a:	d018      	beq.n	8002e7e <I2C_DMAAbort+0xae>
      hi2c->PreviousState = I2C_STATE_NONE;
      hi2c->State = HAL_I2C_STATE_LISTEN;
    }
    else
    {
      hi2c->State = HAL_I2C_STATE_READY;
 8002e4c:	2220      	movs	r2, #32
      hi2c->Mode = HAL_I2C_MODE_NONE;
 8002e4e:	2300      	movs	r3, #0
      hi2c->State = HAL_I2C_STATE_READY;
 8002e50:	f880 203d 	strb.w	r2, [r0, #61]	; 0x3d
      hi2c->Mode = HAL_I2C_MODE_NONE;
 8002e54:	f880 303e 	strb.w	r3, [r0, #62]	; 0x3e

    /* Call the corresponding callback to inform upper layer of End of Transfer */
#if (USE_HAL_I2C_REGISTER_CALLBACKS == 1)
    hi2c->ErrorCallback(hi2c);
#else
    HAL_I2C_ErrorCallback(hi2c);
 8002e58:	f7ff ffb6 	bl	8002dc8 <HAL_I2C_ErrorCallback>
#endif /* USE_HAL_I2C_REGISTER_CALLBACKS */
  }
}
 8002e5c:	b002      	add	sp, #8
 8002e5e:	bd70      	pop	{r4, r5, r6, pc}
  CLEAR_BIT(hi2c->Instance->CR1, I2C_CR1_ACK);
 8002e60:	6815      	ldr	r5, [r2, #0]
 8002e62:	f425 6580 	bic.w	r5, r5, #1024	; 0x400
 8002e66:	6015      	str	r5, [r2, #0]
  hi2c->XferCount = 0U;
 8002e68:	8543      	strh	r3, [r0, #42]	; 0x2a
    hi2c->hdmatx->XferAbortCallback = NULL;
 8002e6a:	6523      	str	r3, [r4, #80]	; 0x50
  if (hi2c->hdmarx != NULL)
 8002e6c:	e7e2      	b.n	8002e34 <I2C_DMAAbort+0x64>
  if (hi2c->hdmarx != NULL)
 8002e6e:	b1f3      	cbz	r3, 8002eae <I2C_DMAAbort+0xde>
  CLEAR_BIT(hi2c->Instance->CR1, I2C_CR1_ACK);
 8002e70:	6815      	ldr	r5, [r2, #0]
    hi2c->hdmarx->XferCpltCallback = NULL;
 8002e72:	63dc      	str	r4, [r3, #60]	; 0x3c
  CLEAR_BIT(hi2c->Instance->CR1, I2C_CR1_ACK);
 8002e74:	f425 6580 	bic.w	r5, r5, #1024	; 0x400
 8002e78:	6015      	str	r5, [r2, #0]
  hi2c->XferCount = 0U;
 8002e7a:	8544      	strh	r4, [r0, #42]	; 0x2a
  if (hi2c->hdmatx != NULL)
 8002e7c:	e7d8      	b.n	8002e30 <I2C_DMAAbort+0x60>
      __HAL_I2C_ENABLE(hi2c);
 8002e7e:	6813      	ldr	r3, [r2, #0]
 8002e80:	f043 0301 	orr.w	r3, r3, #1
 8002e84:	6013      	str	r3, [r2, #0]
      SET_BIT(hi2c->Instance->CR1, I2C_CR1_ACK);
 8002e86:	6813      	ldr	r3, [r2, #0]
      hi2c->PreviousState = I2C_STATE_NONE;
 8002e88:	2400      	movs	r4, #0
      SET_BIT(hi2c->Instance->CR1, I2C_CR1_ACK);
 8002e8a:	f443 6380 	orr.w	r3, r3, #1024	; 0x400
 8002e8e:	6013      	str	r3, [r2, #0]
      hi2c->PreviousState = I2C_STATE_NONE;
 8002e90:	6304      	str	r4, [r0, #48]	; 0x30
      hi2c->State = HAL_I2C_STATE_LISTEN;
 8002e92:	f880 103d 	strb.w	r1, [r0, #61]	; 0x3d
 8002e96:	e7df      	b.n	8002e58 <I2C_DMAAbort+0x88>
    hi2c->Mode          = HAL_I2C_MODE_NONE;
 8002e98:	2300      	movs	r3, #0
    hi2c->State         = HAL_I2C_STATE_READY;
 8002e9a:	2220      	movs	r2, #32
 8002e9c:	f880 203d 	strb.w	r2, [r0, #61]	; 0x3d
    hi2c->Mode          = HAL_I2C_MODE_NONE;
 8002ea0:	f880 303e 	strb.w	r3, [r0, #62]	; 0x3e
    hi2c->ErrorCode     = HAL_I2C_ERROR_NONE;
 8002ea4:	6403      	str	r3, [r0, #64]	; 0x40
    HAL_I2C_AbortCpltCallback(hi2c);
 8002ea6:	f7ff ff91 	bl	8002dcc <HAL_I2C_AbortCpltCallback>
}
 8002eaa:	b002      	add	sp, #8
 8002eac:	bd70      	pop	{r4, r5, r6, pc}
  CLEAR_BIT(hi2c->Instance->CR1, I2C_CR1_ACK);
 8002eae:	6814      	ldr	r4, [r2, #0]
 8002eb0:	f424 6480 	bic.w	r4, r4, #1024	; 0x400
 8002eb4:	6014      	str	r4, [r2, #0]
  hi2c->XferCount = 0U;
 8002eb6:	8543      	strh	r3, [r0, #42]	; 0x2a
  if (hi2c->hdmatx != NULL)
 8002eb8:	e7bc      	b.n	8002e34 <I2C_DMAAbort+0x64>
 8002eba:	bf00      	nop
 8002ebc:	20000000 	.word	0x20000000
 8002ec0:	14f8b589 	.word	0x14f8b589

08002ec4 <I2C_ITError>:
{
 8002ec4:	b510      	push	{r4, lr}
  HAL_I2C_StateTypeDef CurrentState = hi2c->State;
 8002ec6:	f890 203d 	ldrb.w	r2, [r0, #61]	; 0x3d
  HAL_I2C_ModeTypeDef CurrentMode = hi2c->Mode;
 8002eca:	f890 303e 	ldrb.w	r3, [r0, #62]	; 0x3e
  if (((CurrentMode == HAL_I2C_MODE_MASTER) || (CurrentMode == HAL_I2C_MODE_MEM)) && (CurrentState == HAL_I2C_STATE_BUSY_RX))
 8002ece:	2b10      	cmp	r3, #16
{
 8002ed0:	4604      	mov	r4, r0
  HAL_I2C_StateTypeDef CurrentState = hi2c->State;
 8002ed2:	b2d2      	uxtb	r2, r2
  if (((CurrentMode == HAL_I2C_MODE_MASTER) || (CurrentMode == HAL_I2C_MODE_MEM)) && (CurrentState == HAL_I2C_STATE_BUSY_RX))
 8002ed4:	d039      	beq.n	8002f4a <I2C_ITError+0x86>
 8002ed6:	b2d9      	uxtb	r1, r3
 8002ed8:	2940      	cmp	r1, #64	; 0x40
 8002eda:	d036      	beq.n	8002f4a <I2C_ITError+0x86>
  if (((uint32_t)CurrentState & (uint32_t)HAL_I2C_STATE_LISTEN) == (uint32_t)HAL_I2C_STATE_LISTEN)
 8002edc:	f002 0128 	and.w	r1, r2, #40	; 0x28
 8002ee0:	2928      	cmp	r1, #40	; 0x28
 8002ee2:	d03d      	beq.n	8002f60 <I2C_ITError+0x9c>
 8002ee4:	6823      	ldr	r3, [r4, #0]
    if ((READ_BIT(hi2c->Instance->CR2, I2C_CR2_DMAEN) != I2C_CR2_DMAEN) && (CurrentState != HAL_I2C_STATE_ABORT))
 8002ee6:	6859      	ldr	r1, [r3, #4]
 8002ee8:	0508      	lsls	r0, r1, #20
 8002eea:	d407      	bmi.n	8002efc <I2C_ITError+0x38>
 8002eec:	2a60      	cmp	r2, #96	; 0x60
 8002eee:	d005      	beq.n	8002efc <I2C_ITError+0x38>
      hi2c->State = HAL_I2C_STATE_READY;
 8002ef0:	2120      	movs	r1, #32
      hi2c->Mode = HAL_I2C_MODE_NONE;
 8002ef2:	2200      	movs	r2, #0
      hi2c->State = HAL_I2C_STATE_READY;
 8002ef4:	f884 103d 	strb.w	r1, [r4, #61]	; 0x3d
      hi2c->Mode = HAL_I2C_MODE_NONE;
 8002ef8:	f884 203e 	strb.w	r2, [r4, #62]	; 0x3e
    hi2c->PreviousState = I2C_STATE_NONE;
 8002efc:	2200      	movs	r2, #0
 8002efe:	6322      	str	r2, [r4, #48]	; 0x30
  if (READ_BIT(hi2c->Instance->CR2, I2C_CR2_DMAEN) == I2C_CR2_DMAEN)
 8002f00:	685a      	ldr	r2, [r3, #4]
 8002f02:	f412 6200 	ands.w	r2, r2, #2048	; 0x800
 8002f06:	d134      	bne.n	8002f72 <I2C_ITError+0xae>
  else if (hi2c->State == HAL_I2C_STATE_ABORT)
 8002f08:	f894 103d 	ldrb.w	r1, [r4, #61]	; 0x3d
 8002f0c:	2960      	cmp	r1, #96	; 0x60
 8002f0e:	d075      	beq.n	8002ffc <I2C_ITError+0x138>
    if (__HAL_I2C_GET_FLAG(hi2c, I2C_FLAG_RXNE) == SET)
 8002f10:	695a      	ldr	r2, [r3, #20]
 8002f12:	0650      	lsls	r0, r2, #25
 8002f14:	d505      	bpl.n	8002f22 <I2C_ITError+0x5e>
      *hi2c->pBuffPtr = (uint8_t)hi2c->Instance->DR;
 8002f16:	6a62      	ldr	r2, [r4, #36]	; 0x24
 8002f18:	691b      	ldr	r3, [r3, #16]
 8002f1a:	7013      	strb	r3, [r2, #0]
      hi2c->pBuffPtr++;
 8002f1c:	6a63      	ldr	r3, [r4, #36]	; 0x24
 8002f1e:	3301      	adds	r3, #1
 8002f20:	6263      	str	r3, [r4, #36]	; 0x24
    HAL_I2C_ErrorCallback(hi2c);
 8002f22:	4620      	mov	r0, r4
 8002f24:	f7ff ff50 	bl	8002dc8 <HAL_I2C_ErrorCallback>
  CurrentError = hi2c->ErrorCode;
 8002f28:	6c23      	ldr	r3, [r4, #64]	; 0x40
  if (((CurrentError & HAL_I2C_ERROR_BERR) == HAL_I2C_ERROR_BERR) || \
 8002f2a:	0719      	lsls	r1, r3, #28
 8002f2c:	d004      	beq.n	8002f38 <I2C_ITError+0x74>
    __HAL_I2C_DISABLE_IT(hi2c, I2C_IT_EVT | I2C_IT_BUF | I2C_IT_ERR);
 8002f2e:	6822      	ldr	r2, [r4, #0]
 8002f30:	6853      	ldr	r3, [r2, #4]
 8002f32:	f423 63e0 	bic.w	r3, r3, #1792	; 0x700
 8002f36:	6053      	str	r3, [r2, #4]
  CurrentState = hi2c->State;
 8002f38:	f894 303d 	ldrb.w	r3, [r4, #61]	; 0x3d
  if (((hi2c->ErrorCode & HAL_I2C_ERROR_AF) == HAL_I2C_ERROR_AF) && (CurrentState == HAL_I2C_STATE_LISTEN))
 8002f3c:	6c22      	ldr	r2, [r4, #64]	; 0x40
 8002f3e:	0752      	lsls	r2, r2, #29
  CurrentState = hi2c->State;
 8002f40:	b2db      	uxtb	r3, r3
  if (((hi2c->ErrorCode & HAL_I2C_ERROR_AF) == HAL_I2C_ERROR_AF) && (CurrentState == HAL_I2C_STATE_LISTEN))
 8002f42:	d501      	bpl.n	8002f48 <I2C_ITError+0x84>
 8002f44:	2b28      	cmp	r3, #40	; 0x28
 8002f46:	d02f      	beq.n	8002fa8 <I2C_ITError+0xe4>
}
 8002f48:	bd10      	pop	{r4, pc}
  if (((CurrentMode == HAL_I2C_MODE_MASTER) || (CurrentMode == HAL_I2C_MODE_MEM)) && (CurrentState == HAL_I2C_STATE_BUSY_RX))
 8002f4a:	2a22      	cmp	r2, #34	; 0x22
 8002f4c:	d1c6      	bne.n	8002edc <I2C_ITError+0x18>
    hi2c->Instance->CR1 &= ~I2C_CR1_POS;
 8002f4e:	6823      	ldr	r3, [r4, #0]
 8002f50:	681a      	ldr	r2, [r3, #0]
 8002f52:	f422 6200 	bic.w	r2, r2, #2048	; 0x800
 8002f56:	601a      	str	r2, [r3, #0]
    if ((READ_BIT(hi2c->Instance->CR2, I2C_CR2_DMAEN) != I2C_CR2_DMAEN) && (CurrentState != HAL_I2C_STATE_ABORT))
 8002f58:	685a      	ldr	r2, [r3, #4]
 8002f5a:	0512      	lsls	r2, r2, #20
 8002f5c:	d5c8      	bpl.n	8002ef0 <I2C_ITError+0x2c>
 8002f5e:	e7cd      	b.n	8002efc <I2C_ITError+0x38>
    hi2c->PreviousState = I2C_STATE_NONE;
 8002f60:	2300      	movs	r3, #0
 8002f62:	6323      	str	r3, [r4, #48]	; 0x30
  if (READ_BIT(hi2c->Instance->CR2, I2C_CR2_DMAEN) == I2C_CR2_DMAEN)
 8002f64:	6823      	ldr	r3, [r4, #0]
    hi2c->State = HAL_I2C_STATE_LISTEN;
 8002f66:	f884 103d 	strb.w	r1, [r4, #61]	; 0x3d
  if (READ_BIT(hi2c->Instance->CR2, I2C_CR2_DMAEN) == I2C_CR2_DMAEN)
 8002f6a:	685a      	ldr	r2, [r3, #4]
 8002f6c:	f412 6200 	ands.w	r2, r2, #2048	; 0x800
 8002f70:	d0ca      	beq.n	8002f08 <I2C_ITError+0x44>
    hi2c->Instance->CR2 &= ~I2C_CR2_DMAEN;
 8002f72:	685a      	ldr	r2, [r3, #4]
    if (hi2c->hdmatx->State != HAL_DMA_STATE_READY)
 8002f74:	6b60      	ldr	r0, [r4, #52]	; 0x34
    hi2c->Instance->CR2 &= ~I2C_CR2_DMAEN;
 8002f76:	f422 6200 	bic.w	r2, r2, #2048	; 0x800
 8002f7a:	605a      	str	r2, [r3, #4]
    if (hi2c->hdmatx->State != HAL_DMA_STATE_READY)
 8002f7c:	f890 3035 	ldrb.w	r3, [r0, #53]	; 0x35
 8002f80:	2b01      	cmp	r3, #1
 8002f82:	d01e      	beq.n	8002fc2 <I2C_ITError+0xfe>
      hi2c->hdmatx->XferAbortCallback = I2C_DMAAbort;
 8002f84:	4b28      	ldr	r3, [pc, #160]	; (8003028 <I2C_ITError+0x164>)
 8002f86:	6503      	str	r3, [r0, #80]	; 0x50
      if (HAL_DMA_Abort_IT(hi2c->hdmatx) != HAL_OK)
 8002f88:	f7ff f9d0 	bl	800232c <HAL_DMA_Abort_IT>
 8002f8c:	2800      	cmp	r0, #0
 8002f8e:	d0cb      	beq.n	8002f28 <I2C_ITError+0x64>
        __HAL_I2C_DISABLE(hi2c);
 8002f90:	6822      	ldr	r2, [r4, #0]
        hi2c->hdmatx->XferAbortCallback(hi2c->hdmatx);
 8002f92:	6b60      	ldr	r0, [r4, #52]	; 0x34
        __HAL_I2C_DISABLE(hi2c);
 8002f94:	6813      	ldr	r3, [r2, #0]
        hi2c->State = HAL_I2C_STATE_READY;
 8002f96:	2120      	movs	r1, #32
        __HAL_I2C_DISABLE(hi2c);
 8002f98:	f023 0301 	bic.w	r3, r3, #1
 8002f9c:	6013      	str	r3, [r2, #0]
        hi2c->State = HAL_I2C_STATE_READY;
 8002f9e:	f884 103d 	strb.w	r1, [r4, #61]	; 0x3d
        hi2c->hdmatx->XferAbortCallback(hi2c->hdmatx);
 8002fa2:	6d03      	ldr	r3, [r0, #80]	; 0x50
 8002fa4:	4798      	blx	r3
 8002fa6:	e7bf      	b.n	8002f28 <I2C_ITError+0x64>
    hi2c->XferOptions   = I2C_NO_OPTION_FRAME;
 8002fa8:	4b20      	ldr	r3, [pc, #128]	; (800302c <I2C_ITError+0x168>)
 8002faa:	62e3      	str	r3, [r4, #44]	; 0x2c
    hi2c->State         = HAL_I2C_STATE_READY;
 8002fac:	2220      	movs	r2, #32
    hi2c->PreviousState = I2C_STATE_NONE;
 8002fae:	2300      	movs	r3, #0
 8002fb0:	6323      	str	r3, [r4, #48]	; 0x30
    HAL_I2C_ListenCpltCallback(hi2c);
 8002fb2:	4620      	mov	r0, r4
    hi2c->State         = HAL_I2C_STATE_READY;
 8002fb4:	f884 203d 	strb.w	r2, [r4, #61]	; 0x3d
    hi2c->Mode          = HAL_I2C_MODE_NONE;
 8002fb8:	f884 303e 	strb.w	r3, [r4, #62]	; 0x3e
    HAL_I2C_ListenCpltCallback(hi2c);
 8002fbc:	f7ff fea4 	bl	8002d08 <HAL_I2C_ListenCpltCallback>
}
 8002fc0:	bd10      	pop	{r4, pc}
      hi2c->hdmarx->XferAbortCallback = I2C_DMAAbort;
 8002fc2:	6ba0      	ldr	r0, [r4, #56]	; 0x38
 8002fc4:	4b18      	ldr	r3, [pc, #96]	; (8003028 <I2C_ITError+0x164>)
 8002fc6:	6503      	str	r3, [r0, #80]	; 0x50
      if (HAL_DMA_Abort_IT(hi2c->hdmarx) != HAL_OK)
 8002fc8:	f7ff f9b0 	bl	800232c <HAL_DMA_Abort_IT>
 8002fcc:	2800      	cmp	r0, #0
 8002fce:	d0ab      	beq.n	8002f28 <I2C_ITError+0x64>
        if (__HAL_I2C_GET_FLAG(hi2c, I2C_FLAG_RXNE) == SET)
 8002fd0:	6823      	ldr	r3, [r4, #0]
 8002fd2:	695a      	ldr	r2, [r3, #20]
 8002fd4:	0651      	lsls	r1, r2, #25
 8002fd6:	d506      	bpl.n	8002fe6 <I2C_ITError+0x122>
          *hi2c->pBuffPtr = (uint8_t)hi2c->Instance->DR;
 8002fd8:	6a62      	ldr	r2, [r4, #36]	; 0x24
 8002fda:	691b      	ldr	r3, [r3, #16]
 8002fdc:	7013      	strb	r3, [r2, #0]
          hi2c->pBuffPtr++;
 8002fde:	6a62      	ldr	r2, [r4, #36]	; 0x24
 8002fe0:	6823      	ldr	r3, [r4, #0]
 8002fe2:	3201      	adds	r2, #1
 8002fe4:	6262      	str	r2, [r4, #36]	; 0x24
        __HAL_I2C_DISABLE(hi2c);
 8002fe6:	681a      	ldr	r2, [r3, #0]
        hi2c->hdmarx->XferAbortCallback(hi2c->hdmarx);
 8002fe8:	6ba0      	ldr	r0, [r4, #56]	; 0x38
        __HAL_I2C_DISABLE(hi2c);
 8002fea:	f022 0201 	bic.w	r2, r2, #1
        hi2c->State = HAL_I2C_STATE_READY;
 8002fee:	2120      	movs	r1, #32
        __HAL_I2C_DISABLE(hi2c);
 8002ff0:	601a      	str	r2, [r3, #0]
        hi2c->State = HAL_I2C_STATE_READY;
 8002ff2:	f884 103d 	strb.w	r1, [r4, #61]	; 0x3d
        hi2c->hdmarx->XferAbortCallback(hi2c->hdmarx);
 8002ff6:	6d03      	ldr	r3, [r0, #80]	; 0x50
 8002ff8:	4798      	blx	r3
 8002ffa:	e795      	b.n	8002f28 <I2C_ITError+0x64>
    hi2c->State = HAL_I2C_STATE_READY;
 8002ffc:	2120      	movs	r1, #32
 8002ffe:	f884 103d 	strb.w	r1, [r4, #61]	; 0x3d
    hi2c->ErrorCode = HAL_I2C_ERROR_NONE;
 8003002:	6422      	str	r2, [r4, #64]	; 0x40
    if (__HAL_I2C_GET_FLAG(hi2c, I2C_FLAG_RXNE) == SET)
 8003004:	695a      	ldr	r2, [r3, #20]
 8003006:	0652      	lsls	r2, r2, #25
 8003008:	d506      	bpl.n	8003018 <I2C_ITError+0x154>
      *hi2c->pBuffPtr = (uint8_t)hi2c->Instance->DR;
 800300a:	6a62      	ldr	r2, [r4, #36]	; 0x24
 800300c:	691b      	ldr	r3, [r3, #16]
 800300e:	7013      	strb	r3, [r2, #0]
      hi2c->pBuffPtr++;
 8003010:	6a62      	ldr	r2, [r4, #36]	; 0x24
 8003012:	6823      	ldr	r3, [r4, #0]
 8003014:	3201      	adds	r2, #1
 8003016:	6262      	str	r2, [r4, #36]	; 0x24
    __HAL_I2C_DISABLE(hi2c);
 8003018:	681a      	ldr	r2, [r3, #0]
 800301a:	f022 0201 	bic.w	r2, r2, #1
 800301e:	601a      	str	r2, [r3, #0]
    HAL_I2C_AbortCpltCallback(hi2c);
 8003020:	4620      	mov	r0, r4
 8003022:	f7ff fed3 	bl	8002dcc <HAL_I2C_AbortCpltCallback>
 8003026:	e77f      	b.n	8002f28 <I2C_ITError+0x64>
 8003028:	08002dd1 	.word	0x08002dd1
 800302c:	ffff0000 	.word	0xffff0000

08003030 <HAL_I2C_EV_IRQHandler>:
{
 8003030:	b570      	push	{r4, r5, r6, lr}
  uint32_t itsources                = READ_REG(hi2c->Instance->CR2);
 8003032:	6803      	ldr	r3, [r0, #0]
{
 8003034:	4604      	mov	r4, r0
  uint32_t itsources                = READ_REG(hi2c->Instance->CR2);
 8003036:	6858      	ldr	r0, [r3, #4]
  uint32_t CurrentXferOptions       = hi2c->XferOptions;
 8003038:	6ae6      	ldr	r6, [r4, #44]	; 0x2c
  HAL_I2C_ModeTypeDef CurrentMode   = hi2c->Mode;
 800303a:	f894 103e 	ldrb.w	r1, [r4, #62]	; 0x3e
  HAL_I2C_StateTypeDef CurrentState = hi2c->State;
 800303e:	f894 203d 	ldrb.w	r2, [r4, #61]	; 0x3d
  if ((CurrentMode == HAL_I2C_MODE_MASTER) || (CurrentMode == HAL_I2C_MODE_MEM))
 8003042:	2910      	cmp	r1, #16
{
 8003044:	b08c      	sub	sp, #48	; 0x30
  HAL_I2C_ModeTypeDef CurrentMode   = hi2c->Mode;
 8003046:	b2cd      	uxtb	r5, r1
  if ((CurrentMode == HAL_I2C_MODE_MASTER) || (CurrentMode == HAL_I2C_MODE_MEM))
 8003048:	d021      	beq.n	800308e <HAL_I2C_EV_IRQHandler+0x5e>
 800304a:	2d40      	cmp	r5, #64	; 0x40
 800304c:	d01f      	beq.n	800308e <HAL_I2C_EV_IRQHandler+0x5e>
    if (hi2c->ErrorCode != HAL_I2C_ERROR_NONE)
 800304e:	6c21      	ldr	r1, [r4, #64]	; 0x40
 8003050:	b2d2      	uxtb	r2, r2
 8003052:	2900      	cmp	r1, #0
 8003054:	f000 8093 	beq.w	800317e <HAL_I2C_EV_IRQHandler+0x14e>
      sr1itflags   = READ_REG(hi2c->Instance->SR1);
 8003058:	6959      	ldr	r1, [r3, #20]
  uint32_t sr2itflags               = 0U;
 800305a:	2500      	movs	r5, #0
    if ((I2C_CHECK_FLAG(sr1itflags, I2C_FLAG_ADDR) != RESET) && (I2C_CHECK_IT_SOURCE(itsources, I2C_IT_EVT) != RESET))
 800305c:	f011 0f02 	tst.w	r1, #2
 8003060:	f3c1 0640 	ubfx	r6, r1, #1, #1
 8003064:	d056      	beq.n	8003114 <HAL_I2C_EV_IRQHandler+0xe4>
 8003066:	0586      	lsls	r6, r0, #22
 8003068:	d556      	bpl.n	8003118 <HAL_I2C_EV_IRQHandler+0xe8>
      if (hi2c->ErrorCode != HAL_I2C_ERROR_NONE)
 800306a:	6c22      	ldr	r2, [r4, #64]	; 0x40
 800306c:	b102      	cbz	r2, 8003070 <HAL_I2C_EV_IRQHandler+0x40>
        sr2itflags   = READ_REG(hi2c->Instance->SR2);
 800306e:	699d      	ldr	r5, [r3, #24]
  if (((uint32_t)hi2c->State & (uint32_t)HAL_I2C_STATE_LISTEN) == (uint32_t)HAL_I2C_STATE_LISTEN)
 8003070:	f894 203d 	ldrb.w	r2, [r4, #61]	; 0x3d
 8003074:	f002 0228 	and.w	r2, r2, #40	; 0x28
 8003078:	2a28      	cmp	r2, #40	; 0x28
 800307a:	f000 8217 	beq.w	80034ac <HAL_I2C_EV_IRQHandler+0x47c>
    __HAL_I2C_CLEAR_FLAG(hi2c, I2C_FLAG_ADDR);
 800307e:	f06f 0102 	mvn.w	r1, #2
    __HAL_UNLOCK(hi2c);
 8003082:	2200      	movs	r2, #0
    __HAL_I2C_CLEAR_FLAG(hi2c, I2C_FLAG_ADDR);
 8003084:	6159      	str	r1, [r3, #20]
    __HAL_UNLOCK(hi2c);
 8003086:	f884 203c 	strb.w	r2, [r4, #60]	; 0x3c
}
 800308a:	b00c      	add	sp, #48	; 0x30
 800308c:	bd70      	pop	{r4, r5, r6, pc}
    sr2itflags   = READ_REG(hi2c->Instance->SR2);
 800308e:	6999      	ldr	r1, [r3, #24]
    sr1itflags   = READ_REG(hi2c->Instance->SR1);
 8003090:	695a      	ldr	r2, [r3, #20]
    if ((I2C_CHECK_FLAG(sr1itflags, I2C_FLAG_SB) == RESET) && (IS_I2C_TRANSFER_OTHER_OPTIONS_REQUEST(CurrentXferOptions) == 1U))
 8003092:	f012 0f01 	tst.w	r2, #1
 8003096:	d11a      	bne.n	80030ce <HAL_I2C_EV_IRQHandler+0x9e>
 8003098:	f5b6 0f2a 	cmp.w	r6, #11141120	; 0xaa0000
 800309c:	d0f5      	beq.n	800308a <HAL_I2C_EV_IRQHandler+0x5a>
 800309e:	f1b6 4f2a 	cmp.w	r6, #2852126720	; 0xaa000000
 80030a2:	d0f2      	beq.n	800308a <HAL_I2C_EV_IRQHandler+0x5a>
    else if ((I2C_CHECK_FLAG(sr1itflags, I2C_FLAG_ADD10) != RESET) && (I2C_CHECK_IT_SOURCE(itsources, I2C_IT_EVT) != RESET))
 80030a4:	0716      	lsls	r6, r2, #28
 80030a6:	d56d      	bpl.n	8003184 <HAL_I2C_EV_IRQHandler+0x154>
 80030a8:	0586      	lsls	r6, r0, #22
 80030aa:	f140 8083 	bpl.w	80031b4 <HAL_I2C_EV_IRQHandler+0x184>
  hi2c->Instance->DR = I2C_10BIT_ADDRESS(hi2c->Devaddress);
 80030ae:	6c62      	ldr	r2, [r4, #68]	; 0x44
  if (((hi2c->hdmatx != NULL) && (hi2c->hdmatx->XferCpltCallback != NULL))
 80030b0:	6b61      	ldr	r1, [r4, #52]	; 0x34
 80030b2:	b2d2      	uxtb	r2, r2
  hi2c->Instance->DR = I2C_10BIT_ADDRESS(hi2c->Devaddress);
 80030b4:	611a      	str	r2, [r3, #16]
  if (((hi2c->hdmatx != NULL) && (hi2c->hdmatx->XferCpltCallback != NULL))
 80030b6:	2900      	cmp	r1, #0
 80030b8:	f000 81df 	beq.w	800347a <HAL_I2C_EV_IRQHandler+0x44a>
 80030bc:	6bca      	ldr	r2, [r1, #60]	; 0x3c
 80030be:	2a00      	cmp	r2, #0
 80030c0:	f000 81db 	beq.w	800347a <HAL_I2C_EV_IRQHandler+0x44a>
    SET_BIT(hi2c->Instance->CR2, I2C_CR2_DMAEN);
 80030c4:	685a      	ldr	r2, [r3, #4]
 80030c6:	f442 6200 	orr.w	r2, r2, #2048	; 0x800
 80030ca:	605a      	str	r2, [r3, #4]
 80030cc:	e7dd      	b.n	800308a <HAL_I2C_EV_IRQHandler+0x5a>
    if ((I2C_CHECK_FLAG(sr1itflags, I2C_FLAG_SB) != RESET) && (I2C_CHECK_IT_SOURCE(itsources, I2C_IT_EVT) != RESET))
 80030ce:	0586      	lsls	r6, r0, #22
 80030d0:	d56e      	bpl.n	80031b0 <HAL_I2C_EV_IRQHandler+0x180>
static void I2C_ConvertOtherXferOptions(I2C_HandleTypeDef *hi2c)
{
  /* if user set XferOptions to I2C_OTHER_FRAME            */
  /* it request implicitly to generate a restart condition */
  /* set XferOptions to I2C_FIRST_FRAME                    */
  if (hi2c->XferOptions == I2C_OTHER_FRAME)
 80030d2:	6ae2      	ldr	r2, [r4, #44]	; 0x2c
 80030d4:	f5b2 0f2a 	cmp.w	r2, #11141120	; 0xaa0000
 80030d8:	f000 81e5 	beq.w	80034a6 <HAL_I2C_EV_IRQHandler+0x476>
  }
  /* else if user set XferOptions to I2C_OTHER_AND_LAST_FRAME */
  /* it request implicitly to generate a restart condition    */
  /* then generate a stop condition at the end of transfer    */
  /* set XferOptions to I2C_FIRST_AND_LAST_FRAME              */
  else if (hi2c->XferOptions == I2C_OTHER_AND_LAST_FRAME)
 80030dc:	6ae2      	ldr	r2, [r4, #44]	; 0x2c
 80030de:	f1b2 4f2a 	cmp.w	r2, #2852126720	; 0xaa000000
  {
    hi2c->XferOptions = I2C_FIRST_AND_LAST_FRAME;
 80030e2:	bf04      	itt	eq
 80030e4:	2208      	moveq	r2, #8
 80030e6:	62e2      	streq	r2, [r4, #44]	; 0x2c
  if (hi2c->Mode == HAL_I2C_MODE_MEM)
 80030e8:	f894 203e 	ldrb.w	r2, [r4, #62]	; 0x3e
 80030ec:	2a40      	cmp	r2, #64	; 0x40
 80030ee:	f000 81d3 	beq.w	8003498 <HAL_I2C_EV_IRQHandler+0x468>
    if (hi2c->Init.AddressingMode == I2C_ADDRESSINGMODE_7BIT)
 80030f2:	6922      	ldr	r2, [r4, #16]
 80030f4:	f5b2 4f80 	cmp.w	r2, #16384	; 0x4000
 80030f8:	f000 81ae 	beq.w	8003458 <HAL_I2C_EV_IRQHandler+0x428>
      if (hi2c->EventCount == 0U)
 80030fc:	6d22      	ldr	r2, [r4, #80]	; 0x50
 80030fe:	2a00      	cmp	r2, #0
 8003100:	f040 81e8 	bne.w	80034d4 <HAL_I2C_EV_IRQHandler+0x4a4>
        hi2c->Instance->DR = I2C_10BIT_HEADER_WRITE(hi2c->Devaddress);
 8003104:	6c62      	ldr	r2, [r4, #68]	; 0x44
 8003106:	11d2      	asrs	r2, r2, #7
 8003108:	f002 0206 	and.w	r2, r2, #6
 800310c:	f042 02f0 	orr.w	r2, r2, #240	; 0xf0
 8003110:	611a      	str	r2, [r3, #16]
 8003112:	e7ba      	b.n	800308a <HAL_I2C_EV_IRQHandler+0x5a>
    else if ((I2C_CHECK_FLAG(sr1itflags, I2C_FLAG_STOPF) != RESET) && (I2C_CHECK_IT_SOURCE(itsources, I2C_IT_EVT) != RESET))
 8003114:	06cd      	lsls	r5, r1, #27
 8003116:	d47c      	bmi.n	8003212 <HAL_I2C_EV_IRQHandler+0x1e2>
    else if ((CurrentState == HAL_I2C_STATE_BUSY_TX) || (CurrentState == HAL_I2C_STATE_BUSY_TX_LISTEN))
 8003118:	f002 02f7 	and.w	r2, r2, #247	; 0xf7
 800311c:	2a21      	cmp	r2, #33	; 0x21
 800311e:	f000 80f5 	beq.w	800330c <HAL_I2C_EV_IRQHandler+0x2dc>
      if ((I2C_CHECK_FLAG(sr1itflags, I2C_FLAG_RXNE) != RESET) && (I2C_CHECK_IT_SOURCE(itsources, I2C_IT_BUF) != RESET) && (I2C_CHECK_FLAG(sr1itflags, I2C_FLAG_BTF) == RESET))
 8003122:	064a      	lsls	r2, r1, #25
 8003124:	f140 8132 	bpl.w	800338c <HAL_I2C_EV_IRQHandler+0x35c>
 8003128:	0546      	lsls	r6, r0, #21
 800312a:	f140 812f 	bpl.w	800338c <HAL_I2C_EV_IRQHandler+0x35c>
 800312e:	074d      	lsls	r5, r1, #29
 8003130:	f100 812f 	bmi.w	8003392 <HAL_I2C_EV_IRQHandler+0x362>
  HAL_I2C_StateTypeDef CurrentState = hi2c->State;
 8003134:	f894 103d 	ldrb.w	r1, [r4, #61]	; 0x3d
  if (hi2c->XferCount != 0U)
 8003138:	8d62      	ldrh	r2, [r4, #42]	; 0x2a
 800313a:	b292      	uxth	r2, r2
  HAL_I2C_StateTypeDef CurrentState = hi2c->State;
 800313c:	b2c9      	uxtb	r1, r1
  if (hi2c->XferCount != 0U)
 800313e:	2a00      	cmp	r2, #0
 8003140:	d0a3      	beq.n	800308a <HAL_I2C_EV_IRQHandler+0x5a>
    *hi2c->pBuffPtr = (uint8_t)hi2c->Instance->DR;
 8003142:	6a62      	ldr	r2, [r4, #36]	; 0x24
 8003144:	691b      	ldr	r3, [r3, #16]
 8003146:	7013      	strb	r3, [r2, #0]
    hi2c->XferCount--;
 8003148:	8d63      	ldrh	r3, [r4, #42]	; 0x2a
    hi2c->pBuffPtr++;
 800314a:	6a62      	ldr	r2, [r4, #36]	; 0x24
    hi2c->XferCount--;
 800314c:	3b01      	subs	r3, #1
 800314e:	b29b      	uxth	r3, r3
 8003150:	8563      	strh	r3, [r4, #42]	; 0x2a
    if ((hi2c->XferCount == 0U) && (CurrentState == HAL_I2C_STATE_BUSY_RX_LISTEN))
 8003152:	8d63      	ldrh	r3, [r4, #42]	; 0x2a
    hi2c->pBuffPtr++;
 8003154:	3201      	adds	r2, #1
    if ((hi2c->XferCount == 0U) && (CurrentState == HAL_I2C_STATE_BUSY_RX_LISTEN))
 8003156:	b29b      	uxth	r3, r3
    hi2c->pBuffPtr++;
 8003158:	6262      	str	r2, [r4, #36]	; 0x24
    if ((hi2c->XferCount == 0U) && (CurrentState == HAL_I2C_STATE_BUSY_RX_LISTEN))
 800315a:	2b00      	cmp	r3, #0
 800315c:	d195      	bne.n	800308a <HAL_I2C_EV_IRQHandler+0x5a>
 800315e:	292a      	cmp	r1, #42	; 0x2a
 8003160:	d193      	bne.n	800308a <HAL_I2C_EV_IRQHandler+0x5a>
      __HAL_I2C_DISABLE_IT(hi2c, I2C_IT_BUF);
 8003162:	6822      	ldr	r2, [r4, #0]
 8003164:	6853      	ldr	r3, [r2, #4]
      hi2c->PreviousState = I2C_STATE_SLAVE_BUSY_RX;
 8003166:	2522      	movs	r5, #34	; 0x22
      __HAL_I2C_DISABLE_IT(hi2c, I2C_IT_BUF);
 8003168:	f423 6380 	bic.w	r3, r3, #1024	; 0x400
      hi2c->State = HAL_I2C_STATE_LISTEN;
 800316c:	2128      	movs	r1, #40	; 0x28
      __HAL_I2C_DISABLE_IT(hi2c, I2C_IT_BUF);
 800316e:	6053      	str	r3, [r2, #4]
      HAL_I2C_SlaveRxCpltCallback(hi2c);
 8003170:	4620      	mov	r0, r4
      hi2c->PreviousState = I2C_STATE_SLAVE_BUSY_RX;
 8003172:	6325      	str	r5, [r4, #48]	; 0x30
      hi2c->State = HAL_I2C_STATE_LISTEN;
 8003174:	f884 103d 	strb.w	r1, [r4, #61]	; 0x3d
      HAL_I2C_SlaveRxCpltCallback(hi2c);
 8003178:	f7ff fdc2 	bl	8002d00 <HAL_I2C_SlaveRxCpltCallback>
 800317c:	e785      	b.n	800308a <HAL_I2C_EV_IRQHandler+0x5a>
      sr2itflags   = READ_REG(hi2c->Instance->SR2);
 800317e:	699d      	ldr	r5, [r3, #24]
      sr1itflags   = READ_REG(hi2c->Instance->SR1);
 8003180:	6959      	ldr	r1, [r3, #20]
 8003182:	e76b      	b.n	800305c <HAL_I2C_EV_IRQHandler+0x2c>
    else if ((I2C_CHECK_FLAG(sr1itflags, I2C_FLAG_ADDR) != RESET) && (I2C_CHECK_IT_SOURCE(itsources, I2C_IT_EVT) != RESET))
 8003184:	0796      	lsls	r6, r2, #30
 8003186:	d515      	bpl.n	80031b4 <HAL_I2C_EV_IRQHandler+0x184>
 8003188:	0586      	lsls	r6, r0, #22
 800318a:	d513      	bpl.n	80031b4 <HAL_I2C_EV_IRQHandler+0x184>
  HAL_I2C_ModeTypeDef CurrentMode       = hi2c->Mode;
 800318c:	f894 203e 	ldrb.w	r2, [r4, #62]	; 0x3e
  uint32_t CurrentXferOptions           = hi2c->XferOptions;
 8003190:	6ae0      	ldr	r0, [r4, #44]	; 0x2c
  uint32_t Prev_State                   = hi2c->PreviousState;
 8003192:	6b25      	ldr	r5, [r4, #48]	; 0x30
  if (hi2c->State == HAL_I2C_STATE_BUSY_RX)
 8003194:	f894 103d 	ldrb.w	r1, [r4, #61]	; 0x3d
 8003198:	2922      	cmp	r1, #34	; 0x22
  HAL_I2C_ModeTypeDef CurrentMode       = hi2c->Mode;
 800319a:	b2d2      	uxtb	r2, r2
  if (hi2c->State == HAL_I2C_STATE_BUSY_RX)
 800319c:	f000 81ae 	beq.w	80034fc <HAL_I2C_EV_IRQHandler+0x4cc>
    __HAL_I2C_CLEAR_ADDRFLAG(hi2c);
 80031a0:	2200      	movs	r2, #0
 80031a2:	9209      	str	r2, [sp, #36]	; 0x24
 80031a4:	695a      	ldr	r2, [r3, #20]
 80031a6:	9209      	str	r2, [sp, #36]	; 0x24
 80031a8:	699b      	ldr	r3, [r3, #24]
 80031aa:	9309      	str	r3, [sp, #36]	; 0x24
 80031ac:	9b09      	ldr	r3, [sp, #36]	; 0x24
 80031ae:	e76c      	b.n	800308a <HAL_I2C_EV_IRQHandler+0x5a>
    else if ((I2C_CHECK_FLAG(sr1itflags, I2C_FLAG_ADD10) != RESET) && (I2C_CHECK_IT_SOURCE(itsources, I2C_IT_EVT) != RESET))
 80031b0:	0716      	lsls	r6, r2, #28
 80031b2:	d5e7      	bpl.n	8003184 <HAL_I2C_EV_IRQHandler+0x154>
    else if (I2C_CHECK_FLAG(sr2itflags, I2C_FLAG_TRA) != RESET)
 80031b4:	f011 0f04 	tst.w	r1, #4
      if (READ_BIT(hi2c->Instance->CR2, I2C_CR2_DMAEN) != I2C_CR2_DMAEN)
 80031b8:	6859      	ldr	r1, [r3, #4]
    else if (I2C_CHECK_FLAG(sr2itflags, I2C_FLAG_TRA) != RESET)
 80031ba:	f000 80f3 	beq.w	80033a4 <HAL_I2C_EV_IRQHandler+0x374>
      if (READ_BIT(hi2c->Instance->CR2, I2C_CR2_DMAEN) != I2C_CR2_DMAEN)
 80031be:	050e      	lsls	r6, r1, #20
 80031c0:	f53f af63 	bmi.w	800308a <HAL_I2C_EV_IRQHandler+0x5a>
        if ((I2C_CHECK_FLAG(sr1itflags, I2C_FLAG_TXE) != RESET) && (I2C_CHECK_IT_SOURCE(itsources, I2C_IT_BUF) != RESET) && (I2C_CHECK_FLAG(sr1itflags, I2C_FLAG_BTF) == RESET))
 80031c4:	0611      	lsls	r1, r2, #24
 80031c6:	f140 8113 	bpl.w	80033f0 <HAL_I2C_EV_IRQHandler+0x3c0>
 80031ca:	0546      	lsls	r6, r0, #21
 80031cc:	f140 8110 	bpl.w	80033f0 <HAL_I2C_EV_IRQHandler+0x3c0>
 80031d0:	0751      	lsls	r1, r2, #29
 80031d2:	f100 8110 	bmi.w	80033f6 <HAL_I2C_EV_IRQHandler+0x3c6>
  HAL_I2C_StateTypeDef CurrentState = hi2c->State;
 80031d6:	f894 203d 	ldrb.w	r2, [r4, #61]	; 0x3d
  if ((hi2c->XferSize == 0U) && (CurrentState == HAL_I2C_STATE_BUSY_TX))
 80031da:	8d20      	ldrh	r0, [r4, #40]	; 0x28
  HAL_I2C_ModeTypeDef CurrentMode   = hi2c->Mode;
 80031dc:	f894 103e 	ldrb.w	r1, [r4, #62]	; 0x3e
  uint32_t CurrentXferOptions       = hi2c->XferOptions;
 80031e0:	6ae5      	ldr	r5, [r4, #44]	; 0x2c
  HAL_I2C_StateTypeDef CurrentState = hi2c->State;
 80031e2:	b2d2      	uxtb	r2, r2
  HAL_I2C_ModeTypeDef CurrentMode   = hi2c->Mode;
 80031e4:	b2c9      	uxtb	r1, r1
  if ((hi2c->XferSize == 0U) && (CurrentState == HAL_I2C_STATE_BUSY_TX))
 80031e6:	2800      	cmp	r0, #0
 80031e8:	f040 8235 	bne.w	8003656 <HAL_I2C_EV_IRQHandler+0x626>
 80031ec:	2a21      	cmp	r2, #33	; 0x21
 80031ee:	f000 8325 	beq.w	800383c <HAL_I2C_EV_IRQHandler+0x80c>
  else if ((CurrentState == HAL_I2C_STATE_BUSY_TX) || \
 80031f2:	2940      	cmp	r1, #64	; 0x40
 80031f4:	f47f af49 	bne.w	800308a <HAL_I2C_EV_IRQHandler+0x5a>
           ((CurrentMode == HAL_I2C_MODE_MEM) && (CurrentState == HAL_I2C_STATE_BUSY_RX)))
 80031f8:	2a22      	cmp	r2, #34	; 0x22
 80031fa:	f47f af46 	bne.w	800308a <HAL_I2C_EV_IRQHandler+0x5a>
    if (hi2c->XferCount == 0U)
 80031fe:	8d62      	ldrh	r2, [r4, #42]	; 0x2a
 8003200:	b292      	uxth	r2, r2
 8003202:	2a00      	cmp	r2, #0
 8003204:	f040 82a4 	bne.w	8003750 <HAL_I2C_EV_IRQHandler+0x720>
      __HAL_I2C_DISABLE_IT(hi2c, I2C_IT_BUF);
 8003208:	685a      	ldr	r2, [r3, #4]
 800320a:	f422 6280 	bic.w	r2, r2, #1024	; 0x400
 800320e:	605a      	str	r2, [r3, #4]
 8003210:	e73b      	b.n	800308a <HAL_I2C_EV_IRQHandler+0x5a>
    else if ((I2C_CHECK_FLAG(sr1itflags, I2C_FLAG_STOPF) != RESET) && (I2C_CHECK_IT_SOURCE(itsources, I2C_IT_EVT) != RESET))
 8003212:	0585      	lsls	r5, r0, #22
 8003214:	d580      	bpl.n	8003118 <HAL_I2C_EV_IRQHandler+0xe8>
  HAL_I2C_StateTypeDef CurrentState = hi2c->State;
 8003216:	f894 503d 	ldrb.w	r5, [r4, #61]	; 0x3d
  __HAL_I2C_DISABLE_IT(hi2c, I2C_IT_EVT | I2C_IT_BUF | I2C_IT_ERR);
 800321a:	685a      	ldr	r2, [r3, #4]
 800321c:	f422 62e0 	bic.w	r2, r2, #1792	; 0x700
 8003220:	605a      	str	r2, [r3, #4]
  __HAL_I2C_CLEAR_STOPFLAG(hi2c);
 8003222:	960b      	str	r6, [sp, #44]	; 0x2c
 8003224:	695a      	ldr	r2, [r3, #20]
 8003226:	920b      	str	r2, [sp, #44]	; 0x2c
 8003228:	681a      	ldr	r2, [r3, #0]
 800322a:	f042 0201 	orr.w	r2, r2, #1
 800322e:	601a      	str	r2, [r3, #0]
 8003230:	9a0b      	ldr	r2, [sp, #44]	; 0x2c
  CLEAR_BIT(hi2c->Instance->CR1, I2C_CR1_ACK);
 8003232:	681a      	ldr	r2, [r3, #0]
 8003234:	f422 6280 	bic.w	r2, r2, #1024	; 0x400
 8003238:	601a      	str	r2, [r3, #0]
  if ((hi2c->Instance->CR2 & I2C_CR2_DMAEN) == I2C_CR2_DMAEN)
 800323a:	685a      	ldr	r2, [r3, #4]
 800323c:	0510      	lsls	r0, r2, #20
  HAL_I2C_StateTypeDef CurrentState = hi2c->State;
 800323e:	b2ed      	uxtb	r5, r5
  if ((hi2c->Instance->CR2 & I2C_CR2_DMAEN) == I2C_CR2_DMAEN)
 8003240:	d521      	bpl.n	8003286 <HAL_I2C_EV_IRQHandler+0x256>
    if ((CurrentState == HAL_I2C_STATE_BUSY_RX) || (CurrentState == HAL_I2C_STATE_BUSY_RX_LISTEN))
 8003242:	f005 02f7 	and.w	r2, r5, #247	; 0xf7
 8003246:	2a22      	cmp	r2, #34	; 0x22
 8003248:	f000 8175 	beq.w	8003536 <HAL_I2C_EV_IRQHandler+0x506>
      hi2c->XferCount = (uint16_t)(__HAL_DMA_GET_COUNTER(hi2c->hdmatx));
 800324c:	6b60      	ldr	r0, [r4, #52]	; 0x34
 800324e:	6802      	ldr	r2, [r0, #0]
 8003250:	6852      	ldr	r2, [r2, #4]
 8003252:	b292      	uxth	r2, r2
 8003254:	8562      	strh	r2, [r4, #42]	; 0x2a
      if (hi2c->XferCount != 0U)
 8003256:	8d62      	ldrh	r2, [r4, #42]	; 0x2a
 8003258:	b292      	uxth	r2, r2
 800325a:	b11a      	cbz	r2, 8003264 <HAL_I2C_EV_IRQHandler+0x234>
        hi2c->ErrorCode |= HAL_I2C_ERROR_AF;
 800325c:	6c22      	ldr	r2, [r4, #64]	; 0x40
 800325e:	f042 0204 	orr.w	r2, r2, #4
 8003262:	6422      	str	r2, [r4, #64]	; 0x40
      CLEAR_BIT(hi2c->Instance->CR2, I2C_CR2_DMAEN);
 8003264:	685a      	ldr	r2, [r3, #4]
 8003266:	f422 6200 	bic.w	r2, r2, #2048	; 0x800
 800326a:	605a      	str	r2, [r3, #4]
      if (HAL_DMA_GetState(hi2c->hdmatx) != HAL_DMA_STATE_READY)
 800326c:	f7ff f960 	bl	8002530 <HAL_DMA_GetState>
 8003270:	2801      	cmp	r0, #1
 8003272:	d008      	beq.n	8003286 <HAL_I2C_EV_IRQHandler+0x256>
        hi2c->hdmatx->XferAbortCallback = I2C_DMAAbort;
 8003274:	6b60      	ldr	r0, [r4, #52]	; 0x34
 8003276:	4ba0      	ldr	r3, [pc, #640]	; (80034f8 <HAL_I2C_EV_IRQHandler+0x4c8>)
 8003278:	6503      	str	r3, [r0, #80]	; 0x50
        if (HAL_DMA_Abort_IT(hi2c->hdmatx) != HAL_OK)
 800327a:	f7ff f857 	bl	800232c <HAL_DMA_Abort_IT>
 800327e:	b110      	cbz	r0, 8003286 <HAL_I2C_EV_IRQHandler+0x256>
          hi2c->hdmatx->XferAbortCallback(hi2c->hdmatx);
 8003280:	6b60      	ldr	r0, [r4, #52]	; 0x34
 8003282:	6d03      	ldr	r3, [r0, #80]	; 0x50
 8003284:	4798      	blx	r3
  if (hi2c->XferCount != 0U)
 8003286:	8d63      	ldrh	r3, [r4, #42]	; 0x2a
 8003288:	b29b      	uxth	r3, r3
 800328a:	b313      	cbz	r3, 80032d2 <HAL_I2C_EV_IRQHandler+0x2a2>
    if (__HAL_I2C_GET_FLAG(hi2c, I2C_FLAG_BTF) == SET)
 800328c:	6823      	ldr	r3, [r4, #0]
 800328e:	695a      	ldr	r2, [r3, #20]
 8003290:	0751      	lsls	r1, r2, #29
 8003292:	d50a      	bpl.n	80032aa <HAL_I2C_EV_IRQHandler+0x27a>
      *hi2c->pBuffPtr = (uint8_t)hi2c->Instance->DR;
 8003294:	6a62      	ldr	r2, [r4, #36]	; 0x24
 8003296:	691b      	ldr	r3, [r3, #16]
 8003298:	7013      	strb	r3, [r2, #0]
      hi2c->XferCount--;
 800329a:	8d62      	ldrh	r2, [r4, #42]	; 0x2a
      hi2c->pBuffPtr++;
 800329c:	6a61      	ldr	r1, [r4, #36]	; 0x24
 800329e:	6823      	ldr	r3, [r4, #0]
      hi2c->XferCount--;
 80032a0:	3a01      	subs	r2, #1
 80032a2:	b292      	uxth	r2, r2
      hi2c->pBuffPtr++;
 80032a4:	3101      	adds	r1, #1
      hi2c->XferCount--;
 80032a6:	8562      	strh	r2, [r4, #42]	; 0x2a
      hi2c->pBuffPtr++;
 80032a8:	6261      	str	r1, [r4, #36]	; 0x24
    if (__HAL_I2C_GET_FLAG(hi2c, I2C_FLAG_RXNE) == SET)
 80032aa:	695a      	ldr	r2, [r3, #20]
 80032ac:	0652      	lsls	r2, r2, #25
 80032ae:	d509      	bpl.n	80032c4 <HAL_I2C_EV_IRQHandler+0x294>
      *hi2c->pBuffPtr = (uint8_t)hi2c->Instance->DR;
 80032b0:	6a62      	ldr	r2, [r4, #36]	; 0x24
 80032b2:	691b      	ldr	r3, [r3, #16]
 80032b4:	7013      	strb	r3, [r2, #0]
      hi2c->XferCount--;
 80032b6:	8d63      	ldrh	r3, [r4, #42]	; 0x2a
      hi2c->pBuffPtr++;
 80032b8:	6a62      	ldr	r2, [r4, #36]	; 0x24
      hi2c->XferCount--;
 80032ba:	3b01      	subs	r3, #1
 80032bc:	b29b      	uxth	r3, r3
      hi2c->pBuffPtr++;
 80032be:	3201      	adds	r2, #1
      hi2c->XferCount--;
 80032c0:	8563      	strh	r3, [r4, #42]	; 0x2a
      hi2c->pBuffPtr++;
 80032c2:	6262      	str	r2, [r4, #36]	; 0x24
    if (hi2c->XferCount != 0U)
 80032c4:	8d63      	ldrh	r3, [r4, #42]	; 0x2a
 80032c6:	b29b      	uxth	r3, r3
 80032c8:	b11b      	cbz	r3, 80032d2 <HAL_I2C_EV_IRQHandler+0x2a2>
      hi2c->ErrorCode |= HAL_I2C_ERROR_AF;
 80032ca:	6c23      	ldr	r3, [r4, #64]	; 0x40
 80032cc:	f043 0304 	orr.w	r3, r3, #4
 80032d0:	6423      	str	r3, [r4, #64]	; 0x40
  if (hi2c->ErrorCode != HAL_I2C_ERROR_NONE)
 80032d2:	6c23      	ldr	r3, [r4, #64]	; 0x40
 80032d4:	2b00      	cmp	r3, #0
 80032d6:	f040 80d9 	bne.w	800348c <HAL_I2C_EV_IRQHandler+0x45c>
    if (CurrentState == HAL_I2C_STATE_BUSY_RX_LISTEN)
 80032da:	2d2a      	cmp	r5, #42	; 0x2a
 80032dc:	f000 814c 	beq.w	8003578 <HAL_I2C_EV_IRQHandler+0x548>
    if (hi2c->State == HAL_I2C_STATE_LISTEN)
 80032e0:	f894 303d 	ldrb.w	r3, [r4, #61]	; 0x3d
 80032e4:	2b28      	cmp	r3, #40	; 0x28
 80032e6:	f000 814f 	beq.w	8003588 <HAL_I2C_EV_IRQHandler+0x558>
      if ((hi2c->PreviousState  == I2C_STATE_SLAVE_BUSY_RX) || (CurrentState == HAL_I2C_STATE_BUSY_RX))
 80032ea:	6b23      	ldr	r3, [r4, #48]	; 0x30
 80032ec:	2b22      	cmp	r3, #34	; 0x22
 80032ee:	d002      	beq.n	80032f6 <HAL_I2C_EV_IRQHandler+0x2c6>
 80032f0:	2d22      	cmp	r5, #34	; 0x22
 80032f2:	f47f aeca 	bne.w	800308a <HAL_I2C_EV_IRQHandler+0x5a>
        hi2c->PreviousState = I2C_STATE_NONE;
 80032f6:	2300      	movs	r3, #0
        hi2c->State = HAL_I2C_STATE_READY;
 80032f8:	2220      	movs	r2, #32
        hi2c->PreviousState = I2C_STATE_NONE;
 80032fa:	6323      	str	r3, [r4, #48]	; 0x30
        HAL_I2C_SlaveRxCpltCallback(hi2c);
 80032fc:	4620      	mov	r0, r4
        hi2c->State = HAL_I2C_STATE_READY;
 80032fe:	f884 203d 	strb.w	r2, [r4, #61]	; 0x3d
        hi2c->Mode = HAL_I2C_MODE_NONE;
 8003302:	f884 303e 	strb.w	r3, [r4, #62]	; 0x3e
        HAL_I2C_SlaveRxCpltCallback(hi2c);
 8003306:	f7ff fcfb 	bl	8002d00 <HAL_I2C_SlaveRxCpltCallback>
 800330a:	e6be      	b.n	800308a <HAL_I2C_EV_IRQHandler+0x5a>
      if ((I2C_CHECK_FLAG(sr1itflags, I2C_FLAG_TXE) != RESET) && (I2C_CHECK_IT_SOURCE(itsources, I2C_IT_BUF) != RESET) && (I2C_CHECK_FLAG(sr1itflags, I2C_FLAG_BTF) == RESET))
 800330c:	060e      	lsls	r6, r1, #24
 800330e:	d528      	bpl.n	8003362 <HAL_I2C_EV_IRQHandler+0x332>
 8003310:	0545      	lsls	r5, r0, #21
 8003312:	d526      	bpl.n	8003362 <HAL_I2C_EV_IRQHandler+0x332>
 8003314:	074e      	lsls	r6, r1, #29
 8003316:	d427      	bmi.n	8003368 <HAL_I2C_EV_IRQHandler+0x338>
  HAL_I2C_StateTypeDef CurrentState = hi2c->State;
 8003318:	f894 003d 	ldrb.w	r0, [r4, #61]	; 0x3d
  if (hi2c->XferCount != 0U)
 800331c:	8d61      	ldrh	r1, [r4, #42]	; 0x2a
 800331e:	b289      	uxth	r1, r1
  HAL_I2C_StateTypeDef CurrentState = hi2c->State;
 8003320:	b2c0      	uxtb	r0, r0
  if (hi2c->XferCount != 0U)
 8003322:	2900      	cmp	r1, #0
 8003324:	f43f aeb1 	beq.w	800308a <HAL_I2C_EV_IRQHandler+0x5a>
    hi2c->Instance->DR = *hi2c->pBuffPtr;
 8003328:	6a65      	ldr	r5, [r4, #36]	; 0x24
 800332a:	f815 1b01 	ldrb.w	r1, [r5], #1
 800332e:	6119      	str	r1, [r3, #16]
    hi2c->XferCount--;
 8003330:	8d61      	ldrh	r1, [r4, #42]	; 0x2a
    hi2c->pBuffPtr++;
 8003332:	6265      	str	r5, [r4, #36]	; 0x24
    hi2c->XferCount--;
 8003334:	3901      	subs	r1, #1
 8003336:	b289      	uxth	r1, r1
 8003338:	8561      	strh	r1, [r4, #42]	; 0x2a
    if ((hi2c->XferCount == 0U) && (CurrentState == HAL_I2C_STATE_BUSY_TX_LISTEN))
 800333a:	8d61      	ldrh	r1, [r4, #42]	; 0x2a
 800333c:	b289      	uxth	r1, r1
 800333e:	2900      	cmp	r1, #0
 8003340:	f47f aea3 	bne.w	800308a <HAL_I2C_EV_IRQHandler+0x5a>
 8003344:	2829      	cmp	r0, #41	; 0x29
 8003346:	f47f aea0 	bne.w	800308a <HAL_I2C_EV_IRQHandler+0x5a>
      __HAL_I2C_DISABLE_IT(hi2c, I2C_IT_BUF);
 800334a:	6859      	ldr	r1, [r3, #4]
      hi2c->State = HAL_I2C_STATE_LISTEN;
 800334c:	2528      	movs	r5, #40	; 0x28
      __HAL_I2C_DISABLE_IT(hi2c, I2C_IT_BUF);
 800334e:	f421 6180 	bic.w	r1, r1, #1024	; 0x400
 8003352:	6059      	str	r1, [r3, #4]
      HAL_I2C_SlaveTxCpltCallback(hi2c);
 8003354:	4620      	mov	r0, r4
      hi2c->PreviousState = I2C_STATE_SLAVE_BUSY_TX;
 8003356:	6322      	str	r2, [r4, #48]	; 0x30
      hi2c->State = HAL_I2C_STATE_LISTEN;
 8003358:	f884 503d 	strb.w	r5, [r4, #61]	; 0x3d
      HAL_I2C_SlaveTxCpltCallback(hi2c);
 800335c:	f7ff fcce 	bl	8002cfc <HAL_I2C_SlaveTxCpltCallback>
 8003360:	e693      	b.n	800308a <HAL_I2C_EV_IRQHandler+0x5a>
      else if ((I2C_CHECK_FLAG(sr1itflags, I2C_FLAG_BTF) != RESET) && (I2C_CHECK_IT_SOURCE(itsources, I2C_IT_EVT) != RESET))
 8003362:	074d      	lsls	r5, r1, #29
 8003364:	f57f ae91 	bpl.w	800308a <HAL_I2C_EV_IRQHandler+0x5a>
 8003368:	0581      	lsls	r1, r0, #22
 800336a:	f57f ae8e 	bpl.w	800308a <HAL_I2C_EV_IRQHandler+0x5a>
  if (hi2c->XferCount != 0U)
 800336e:	8d62      	ldrh	r2, [r4, #42]	; 0x2a
 8003370:	b292      	uxth	r2, r2
 8003372:	2a00      	cmp	r2, #0
 8003374:	f43f ae89 	beq.w	800308a <HAL_I2C_EV_IRQHandler+0x5a>
    hi2c->Instance->DR = *hi2c->pBuffPtr;
 8003378:	6a62      	ldr	r2, [r4, #36]	; 0x24
 800337a:	f812 1b01 	ldrb.w	r1, [r2], #1
 800337e:	6119      	str	r1, [r3, #16]
    hi2c->XferCount--;
 8003380:	8d63      	ldrh	r3, [r4, #42]	; 0x2a
    hi2c->pBuffPtr++;
 8003382:	6262      	str	r2, [r4, #36]	; 0x24
    hi2c->XferCount--;
 8003384:	3b01      	subs	r3, #1
 8003386:	b29b      	uxth	r3, r3
 8003388:	8563      	strh	r3, [r4, #42]	; 0x2a
 800338a:	e67e      	b.n	800308a <HAL_I2C_EV_IRQHandler+0x5a>
      else if ((I2C_CHECK_FLAG(sr1itflags, I2C_FLAG_BTF) != RESET) && (I2C_CHECK_IT_SOURCE(itsources, I2C_IT_EVT) != RESET))
 800338c:	0749      	lsls	r1, r1, #29
 800338e:	f57f ae7c 	bpl.w	800308a <HAL_I2C_EV_IRQHandler+0x5a>
 8003392:	0582      	lsls	r2, r0, #22
 8003394:	f57f ae79 	bpl.w	800308a <HAL_I2C_EV_IRQHandler+0x5a>
  if (hi2c->XferCount != 0U)
 8003398:	8d62      	ldrh	r2, [r4, #42]	; 0x2a
 800339a:	b292      	uxth	r2, r2
 800339c:	2a00      	cmp	r2, #0
 800339e:	f43f ae74 	beq.w	800308a <HAL_I2C_EV_IRQHandler+0x5a>
 80033a2:	e01a      	b.n	80033da <HAL_I2C_EV_IRQHandler+0x3aa>
      if (READ_BIT(hi2c->Instance->CR2, I2C_CR2_DMAEN) != I2C_CR2_DMAEN)
 80033a4:	050d      	lsls	r5, r1, #20
 80033a6:	f53f ae70 	bmi.w	800308a <HAL_I2C_EV_IRQHandler+0x5a>
        if ((I2C_CHECK_FLAG(sr1itflags, I2C_FLAG_RXNE) != RESET) && (I2C_CHECK_IT_SOURCE(itsources, I2C_IT_BUF) != RESET) && (I2C_CHECK_FLAG(sr1itflags, I2C_FLAG_BTF) == RESET))
 80033aa:	0651      	lsls	r1, r2, #25
 80033ac:	d42f      	bmi.n	800340e <HAL_I2C_EV_IRQHandler+0x3de>
        else if ((I2C_CHECK_FLAG(sr1itflags, I2C_FLAG_BTF) != RESET) && (I2C_CHECK_IT_SOURCE(itsources, I2C_IT_EVT) != RESET))
 80033ae:	0751      	lsls	r1, r2, #29
 80033b0:	f57f ae6b 	bpl.w	800308a <HAL_I2C_EV_IRQHandler+0x5a>
 80033b4:	0582      	lsls	r2, r0, #22
 80033b6:	f57f ae68 	bpl.w	800308a <HAL_I2C_EV_IRQHandler+0x5a>
  uint32_t CurrentXferOptions = hi2c->XferOptions;
 80033ba:	6ae1      	ldr	r1, [r4, #44]	; 0x2c
  if (hi2c->XferCount == 4U)
 80033bc:	8d62      	ldrh	r2, [r4, #42]	; 0x2a
 80033be:	b292      	uxth	r2, r2
 80033c0:	2a04      	cmp	r2, #4
 80033c2:	f000 8139 	beq.w	8003638 <HAL_I2C_EV_IRQHandler+0x608>
  else if (hi2c->XferCount == 3U)
 80033c6:	8d62      	ldrh	r2, [r4, #42]	; 0x2a
 80033c8:	b292      	uxth	r2, r2
 80033ca:	2a03      	cmp	r2, #3
 80033cc:	f000 8155 	beq.w	800367a <HAL_I2C_EV_IRQHandler+0x64a>
  else if (hi2c->XferCount == 2U)
 80033d0:	8d62      	ldrh	r2, [r4, #42]	; 0x2a
 80033d2:	b292      	uxth	r2, r2
 80033d4:	2a02      	cmp	r2, #2
 80033d6:	f000 8181 	beq.w	80036dc <HAL_I2C_EV_IRQHandler+0x6ac>
    *hi2c->pBuffPtr = (uint8_t)hi2c->Instance->DR;
 80033da:	6a62      	ldr	r2, [r4, #36]	; 0x24
 80033dc:	691b      	ldr	r3, [r3, #16]
 80033de:	7013      	strb	r3, [r2, #0]
    hi2c->XferCount--;
 80033e0:	8d63      	ldrh	r3, [r4, #42]	; 0x2a
    hi2c->pBuffPtr++;
 80033e2:	6a62      	ldr	r2, [r4, #36]	; 0x24
    hi2c->XferCount--;
 80033e4:	3b01      	subs	r3, #1
 80033e6:	b29b      	uxth	r3, r3
    hi2c->pBuffPtr++;
 80033e8:	3201      	adds	r2, #1
    hi2c->XferCount--;
 80033ea:	8563      	strh	r3, [r4, #42]	; 0x2a
    hi2c->pBuffPtr++;
 80033ec:	6262      	str	r2, [r4, #36]	; 0x24
      }
 80033ee:	e64c      	b.n	800308a <HAL_I2C_EV_IRQHandler+0x5a>
        else if ((I2C_CHECK_FLAG(sr1itflags, I2C_FLAG_BTF) != RESET) && (I2C_CHECK_IT_SOURCE(itsources, I2C_IT_EVT) != RESET))
 80033f0:	0752      	lsls	r2, r2, #29
 80033f2:	f57f ae4a 	bpl.w	800308a <HAL_I2C_EV_IRQHandler+0x5a>
 80033f6:	0586      	lsls	r6, r0, #22
 80033f8:	f57f ae47 	bpl.w	800308a <HAL_I2C_EV_IRQHandler+0x5a>
          if (CurrentMode == HAL_I2C_MODE_MASTER)
 80033fc:	2d10      	cmp	r5, #16
 80033fe:	f000 80f7 	beq.w	80035f0 <HAL_I2C_EV_IRQHandler+0x5c0>
        I2C_MemoryTransmit_TXE_BTF(hi2c);
 8003402:	4620      	mov	r0, r4
}
 8003404:	b00c      	add	sp, #48	; 0x30
 8003406:	e8bd 4070 	ldmia.w	sp!, {r4, r5, r6, lr}
        I2C_MemoryTransmit_TXE_BTF(hi2c);
 800340a:	f7ff bc81 	b.w	8002d10 <I2C_MemoryTransmit_TXE_BTF>
        if ((I2C_CHECK_FLAG(sr1itflags, I2C_FLAG_RXNE) != RESET) && (I2C_CHECK_IT_SOURCE(itsources, I2C_IT_BUF) != RESET) && (I2C_CHECK_FLAG(sr1itflags, I2C_FLAG_BTF) == RESET))
 800340e:	0546      	lsls	r6, r0, #21
 8003410:	d5cd      	bpl.n	80033ae <HAL_I2C_EV_IRQHandler+0x37e>
 8003412:	0755      	lsls	r5, r2, #29
 8003414:	f3c2 0180 	ubfx	r1, r2, #2, #1
 8003418:	d4cc      	bmi.n	80033b4 <HAL_I2C_EV_IRQHandler+0x384>
  if (hi2c->State == HAL_I2C_STATE_BUSY_RX)
 800341a:	f894 203d 	ldrb.w	r2, [r4, #61]	; 0x3d
 800341e:	2a22      	cmp	r2, #34	; 0x22
 8003420:	f47f ae33 	bne.w	800308a <HAL_I2C_EV_IRQHandler+0x5a>
    tmp = hi2c->XferCount;
 8003424:	8d62      	ldrh	r2, [r4, #42]	; 0x2a
 8003426:	b292      	uxth	r2, r2
    if (tmp > 3U)
 8003428:	2a03      	cmp	r2, #3
 800342a:	f240 8197 	bls.w	800375c <HAL_I2C_EV_IRQHandler+0x72c>
      *hi2c->pBuffPtr = (uint8_t)hi2c->Instance->DR;
 800342e:	6a62      	ldr	r2, [r4, #36]	; 0x24
 8003430:	691b      	ldr	r3, [r3, #16]
 8003432:	7013      	strb	r3, [r2, #0]
      hi2c->XferCount--;
 8003434:	8d63      	ldrh	r3, [r4, #42]	; 0x2a
      hi2c->pBuffPtr++;
 8003436:	6a62      	ldr	r2, [r4, #36]	; 0x24
      hi2c->XferCount--;
 8003438:	3b01      	subs	r3, #1
 800343a:	b29b      	uxth	r3, r3
 800343c:	8563      	strh	r3, [r4, #42]	; 0x2a
      if (hi2c->XferCount == (uint16_t)3)
 800343e:	8d63      	ldrh	r3, [r4, #42]	; 0x2a
 8003440:	b29b      	uxth	r3, r3
      hi2c->pBuffPtr++;
 8003442:	3201      	adds	r2, #1
      if (hi2c->XferCount == (uint16_t)3)
 8003444:	2b03      	cmp	r3, #3
      hi2c->pBuffPtr++;
 8003446:	6262      	str	r2, [r4, #36]	; 0x24
      if (hi2c->XferCount == (uint16_t)3)
 8003448:	f47f ae1f 	bne.w	800308a <HAL_I2C_EV_IRQHandler+0x5a>
        __HAL_I2C_DISABLE_IT(hi2c, I2C_IT_BUF);
 800344c:	6822      	ldr	r2, [r4, #0]
 800344e:	6853      	ldr	r3, [r2, #4]
 8003450:	f423 6380 	bic.w	r3, r3, #1024	; 0x400
 8003454:	6053      	str	r3, [r2, #4]
 8003456:	e618      	b.n	800308a <HAL_I2C_EV_IRQHandler+0x5a>
      if (hi2c->State == HAL_I2C_STATE_BUSY_TX)
 8003458:	f894 203d 	ldrb.w	r2, [r4, #61]	; 0x3d
 800345c:	2a21      	cmp	r2, #33	; 0x21
        hi2c->Instance->DR = I2C_7BIT_ADD_WRITE(hi2c->Devaddress);
 800345e:	6c62      	ldr	r2, [r4, #68]	; 0x44
        hi2c->Instance->DR = I2C_7BIT_ADD_READ(hi2c->Devaddress);
 8003460:	bf16      	itet	ne
 8003462:	f042 0201 	orrne.w	r2, r2, #1
        hi2c->Instance->DR = I2C_7BIT_ADD_WRITE(hi2c->Devaddress);
 8003466:	f002 02fe 	andeq.w	r2, r2, #254	; 0xfe
        hi2c->Instance->DR = I2C_7BIT_ADD_READ(hi2c->Devaddress);
 800346a:	b2d2      	uxtbne	r2, r2
 800346c:	611a      	str	r2, [r3, #16]
      if (((hi2c->hdmatx != NULL) && (hi2c->hdmatx->XferCpltCallback != NULL))
 800346e:	6b62      	ldr	r2, [r4, #52]	; 0x34
 8003470:	b11a      	cbz	r2, 800347a <HAL_I2C_EV_IRQHandler+0x44a>
 8003472:	6bd2      	ldr	r2, [r2, #60]	; 0x3c
 8003474:	2a00      	cmp	r2, #0
 8003476:	f47f ae25 	bne.w	80030c4 <HAL_I2C_EV_IRQHandler+0x94>
      || ((hi2c->hdmarx != NULL) && (hi2c->hdmarx->XferCpltCallback != NULL)))
 800347a:	6ba2      	ldr	r2, [r4, #56]	; 0x38
 800347c:	2a00      	cmp	r2, #0
 800347e:	f43f ae04 	beq.w	800308a <HAL_I2C_EV_IRQHandler+0x5a>
 8003482:	6bd2      	ldr	r2, [r2, #60]	; 0x3c
 8003484:	2a00      	cmp	r2, #0
 8003486:	f47f ae1d 	bne.w	80030c4 <HAL_I2C_EV_IRQHandler+0x94>
 800348a:	e5fe      	b.n	800308a <HAL_I2C_EV_IRQHandler+0x5a>
    I2C_ITError(hi2c);
 800348c:	4620      	mov	r0, r4
}
 800348e:	b00c      	add	sp, #48	; 0x30
 8003490:	e8bd 4070 	ldmia.w	sp!, {r4, r5, r6, lr}
    I2C_ITError(hi2c);
 8003494:	f7ff bd16 	b.w	8002ec4 <I2C_ITError>
    if (hi2c->EventCount == 0U)
 8003498:	6d22      	ldr	r2, [r4, #80]	; 0x50
 800349a:	bb3a      	cbnz	r2, 80034ec <HAL_I2C_EV_IRQHandler+0x4bc>
      hi2c->Instance->DR = I2C_7BIT_ADD_WRITE(hi2c->Devaddress);
 800349c:	6c62      	ldr	r2, [r4, #68]	; 0x44
 800349e:	f002 02fe 	and.w	r2, r2, #254	; 0xfe
 80034a2:	611a      	str	r2, [r3, #16]
 80034a4:	e5f1      	b.n	800308a <HAL_I2C_EV_IRQHandler+0x5a>
    hi2c->XferOptions = I2C_FIRST_FRAME;
 80034a6:	2201      	movs	r2, #1
 80034a8:	62e2      	str	r2, [r4, #44]	; 0x2c
 80034aa:	e61d      	b.n	80030e8 <HAL_I2C_EV_IRQHandler+0xb8>
    __HAL_I2C_DISABLE_IT(hi2c, (I2C_IT_BUF));
 80034ac:	685a      	ldr	r2, [r3, #4]
 80034ae:	f422 6280 	bic.w	r2, r2, #1024	; 0x400
 80034b2:	605a      	str	r2, [r3, #4]
    if (I2C_CHECK_FLAG(IT2Flags, I2C_FLAG_DUALF) == RESET)
 80034b4:	062e      	lsls	r6, r5, #24
    if (I2C_CHECK_FLAG(IT2Flags, I2C_FLAG_TRA) == RESET)
 80034b6:	ea6f 0195 	mvn.w	r1, r5, lsr #2
    __HAL_UNLOCK(hi2c);
 80034ba:	f04f 0300 	mov.w	r3, #0
      SlaveAddrCode = (uint16_t)hi2c->Init.OwnAddress1;
 80034be:	bf54      	ite	pl
 80034c0:	89a2      	ldrhpl	r2, [r4, #12]
      SlaveAddrCode = (uint16_t)hi2c->Init.OwnAddress2;
 80034c2:	8b22      	ldrhmi	r2, [r4, #24]
    __HAL_UNLOCK(hi2c);
 80034c4:	f884 303c 	strb.w	r3, [r4, #60]	; 0x3c
    if (I2C_CHECK_FLAG(IT2Flags, I2C_FLAG_TRA) == RESET)
 80034c8:	f001 0101 	and.w	r1, r1, #1
    HAL_I2C_AddrCallback(hi2c, TransferDirection, SlaveAddrCode);
 80034cc:	4620      	mov	r0, r4
 80034ce:	f7ff fc19 	bl	8002d04 <HAL_I2C_AddrCallback>
 80034d2:	e5da      	b.n	800308a <HAL_I2C_EV_IRQHandler+0x5a>
      else if (hi2c->EventCount == 1U)
 80034d4:	6d22      	ldr	r2, [r4, #80]	; 0x50
 80034d6:	2a01      	cmp	r2, #1
 80034d8:	f47f add7 	bne.w	800308a <HAL_I2C_EV_IRQHandler+0x5a>
        hi2c->Instance->DR = I2C_10BIT_HEADER_READ(hi2c->Devaddress);
 80034dc:	6c62      	ldr	r2, [r4, #68]	; 0x44
 80034de:	11d2      	asrs	r2, r2, #7
 80034e0:	f002 0206 	and.w	r2, r2, #6
 80034e4:	f042 02f1 	orr.w	r2, r2, #241	; 0xf1
 80034e8:	611a      	str	r2, [r3, #16]
 80034ea:	e5ce      	b.n	800308a <HAL_I2C_EV_IRQHandler+0x5a>
      hi2c->Instance->DR = I2C_7BIT_ADD_READ(hi2c->Devaddress);
 80034ec:	6c62      	ldr	r2, [r4, #68]	; 0x44
 80034ee:	f042 0201 	orr.w	r2, r2, #1
 80034f2:	b2d2      	uxtb	r2, r2
 80034f4:	611a      	str	r2, [r3, #16]
 80034f6:	e5c8      	b.n	800308a <HAL_I2C_EV_IRQHandler+0x5a>
 80034f8:	08002dd1 	.word	0x08002dd1
    if ((hi2c->EventCount == 0U) && (CurrentMode == HAL_I2C_MODE_MEM))
 80034fc:	6d21      	ldr	r1, [r4, #80]	; 0x50
 80034fe:	b911      	cbnz	r1, 8003506 <HAL_I2C_EV_IRQHandler+0x4d6>
 8003500:	2a40      	cmp	r2, #64	; 0x40
 8003502:	f000 80a1 	beq.w	8003648 <HAL_I2C_EV_IRQHandler+0x618>
    else if ((hi2c->EventCount == 0U) && (hi2c->Init.AddressingMode == I2C_ADDRESSINGMODE_10BIT))
 8003506:	6d22      	ldr	r2, [r4, #80]	; 0x50
 8003508:	b922      	cbnz	r2, 8003514 <HAL_I2C_EV_IRQHandler+0x4e4>
 800350a:	6921      	ldr	r1, [r4, #16]
 800350c:	f5b1 4f40 	cmp.w	r1, #49152	; 0xc000
 8003510:	f000 80a5 	beq.w	800365e <HAL_I2C_EV_IRQHandler+0x62e>
      if (hi2c->XferCount == 0U)
 8003514:	8d62      	ldrh	r2, [r4, #42]	; 0x2a
 8003516:	b292      	uxth	r2, r2
 8003518:	2a00      	cmp	r2, #0
 800351a:	d142      	bne.n	80035a2 <HAL_I2C_EV_IRQHandler+0x572>
        __HAL_I2C_CLEAR_ADDRFLAG(hi2c);
 800351c:	9202      	str	r2, [sp, #8]
 800351e:	695a      	ldr	r2, [r3, #20]
 8003520:	9202      	str	r2, [sp, #8]
 8003522:	699a      	ldr	r2, [r3, #24]
 8003524:	9202      	str	r2, [sp, #8]
 8003526:	9a02      	ldr	r2, [sp, #8]
        SET_BIT(hi2c->Instance->CR1, I2C_CR1_STOP);
 8003528:	681a      	ldr	r2, [r3, #0]
 800352a:	f442 7200 	orr.w	r2, r2, #512	; 0x200
 800352e:	601a      	str	r2, [r3, #0]
      hi2c->EventCount = 0U;
 8003530:	2300      	movs	r3, #0
 8003532:	6523      	str	r3, [r4, #80]	; 0x50
 8003534:	e5a9      	b.n	800308a <HAL_I2C_EV_IRQHandler+0x5a>
      hi2c->XferCount = (uint16_t)(__HAL_DMA_GET_COUNTER(hi2c->hdmarx));
 8003536:	6ba0      	ldr	r0, [r4, #56]	; 0x38
 8003538:	6802      	ldr	r2, [r0, #0]
 800353a:	6852      	ldr	r2, [r2, #4]
 800353c:	b292      	uxth	r2, r2
 800353e:	8562      	strh	r2, [r4, #42]	; 0x2a
      if (hi2c->XferCount != 0U)
 8003540:	8d62      	ldrh	r2, [r4, #42]	; 0x2a
 8003542:	b292      	uxth	r2, r2
 8003544:	b11a      	cbz	r2, 800354e <HAL_I2C_EV_IRQHandler+0x51e>
        hi2c->ErrorCode |= HAL_I2C_ERROR_AF;
 8003546:	6c22      	ldr	r2, [r4, #64]	; 0x40
 8003548:	f042 0204 	orr.w	r2, r2, #4
 800354c:	6422      	str	r2, [r4, #64]	; 0x40
      CLEAR_BIT(hi2c->Instance->CR2, I2C_CR2_DMAEN);
 800354e:	685a      	ldr	r2, [r3, #4]
 8003550:	f422 6200 	bic.w	r2, r2, #2048	; 0x800
 8003554:	605a      	str	r2, [r3, #4]
      if (HAL_DMA_GetState(hi2c->hdmarx) != HAL_DMA_STATE_READY)
 8003556:	f7fe ffeb 	bl	8002530 <HAL_DMA_GetState>
 800355a:	2801      	cmp	r0, #1
 800355c:	f43f ae93 	beq.w	8003286 <HAL_I2C_EV_IRQHandler+0x256>
        hi2c->hdmarx->XferAbortCallback = I2C_DMAAbort;
 8003560:	6ba0      	ldr	r0, [r4, #56]	; 0x38
 8003562:	4ba9      	ldr	r3, [pc, #676]	; (8003808 <HAL_I2C_EV_IRQHandler+0x7d8>)
 8003564:	6503      	str	r3, [r0, #80]	; 0x50
        if (HAL_DMA_Abort_IT(hi2c->hdmarx) != HAL_OK)
 8003566:	f7fe fee1 	bl	800232c <HAL_DMA_Abort_IT>
 800356a:	2800      	cmp	r0, #0
 800356c:	f43f ae8b 	beq.w	8003286 <HAL_I2C_EV_IRQHandler+0x256>
          hi2c->hdmarx->XferAbortCallback(hi2c->hdmarx);
 8003570:	6ba0      	ldr	r0, [r4, #56]	; 0x38
 8003572:	6d03      	ldr	r3, [r0, #80]	; 0x50
 8003574:	4798      	blx	r3
 8003576:	e686      	b.n	8003286 <HAL_I2C_EV_IRQHandler+0x256>
      hi2c->State = HAL_I2C_STATE_LISTEN;
 8003578:	2228      	movs	r2, #40	; 0x28
      hi2c->PreviousState = I2C_STATE_NONE;
 800357a:	6323      	str	r3, [r4, #48]	; 0x30
      HAL_I2C_SlaveRxCpltCallback(hi2c);
 800357c:	4620      	mov	r0, r4
      hi2c->State = HAL_I2C_STATE_LISTEN;
 800357e:	f884 203d 	strb.w	r2, [r4, #61]	; 0x3d
      HAL_I2C_SlaveRxCpltCallback(hi2c);
 8003582:	f7ff fbbd 	bl	8002d00 <HAL_I2C_SlaveRxCpltCallback>
 8003586:	e6ab      	b.n	80032e0 <HAL_I2C_EV_IRQHandler+0x2b0>
      hi2c->XferOptions = I2C_NO_OPTION_FRAME;
 8003588:	4ba0      	ldr	r3, [pc, #640]	; (800380c <HAL_I2C_EV_IRQHandler+0x7dc>)
 800358a:	62e3      	str	r3, [r4, #44]	; 0x2c
      hi2c->State = HAL_I2C_STATE_READY;
 800358c:	2220      	movs	r2, #32
      hi2c->PreviousState = I2C_STATE_NONE;
 800358e:	2300      	movs	r3, #0
 8003590:	6323      	str	r3, [r4, #48]	; 0x30
      HAL_I2C_ListenCpltCallback(hi2c);
 8003592:	4620      	mov	r0, r4
      hi2c->State = HAL_I2C_STATE_READY;
 8003594:	f884 203d 	strb.w	r2, [r4, #61]	; 0x3d
      hi2c->Mode = HAL_I2C_MODE_NONE;
 8003598:	f884 303e 	strb.w	r3, [r4, #62]	; 0x3e
      HAL_I2C_ListenCpltCallback(hi2c);
 800359c:	f7ff fbb4 	bl	8002d08 <HAL_I2C_ListenCpltCallback>
 80035a0:	e573      	b.n	800308a <HAL_I2C_EV_IRQHandler+0x5a>
      else if (hi2c->XferCount == 1U)
 80035a2:	8d62      	ldrh	r2, [r4, #42]	; 0x2a
 80035a4:	b292      	uxth	r2, r2
 80035a6:	2a01      	cmp	r2, #1
 80035a8:	d076      	beq.n	8003698 <HAL_I2C_EV_IRQHandler+0x668>
      else if (hi2c->XferCount == 2U)
 80035aa:	8d62      	ldrh	r2, [r4, #42]	; 0x2a
 80035ac:	b292      	uxth	r2, r2
 80035ae:	2a02      	cmp	r2, #2
 80035b0:	f000 810c 	beq.w	80037cc <HAL_I2C_EV_IRQHandler+0x79c>
        SET_BIT(hi2c->Instance->CR1, I2C_CR1_ACK);
 80035b4:	681a      	ldr	r2, [r3, #0]
 80035b6:	f442 6280 	orr.w	r2, r2, #1024	; 0x400
 80035ba:	601a      	str	r2, [r3, #0]
        if (((hi2c->Instance->CR2 & I2C_CR2_DMAEN) == I2C_CR2_DMAEN) && ((CurrentXferOptions == I2C_NO_OPTION_FRAME) || (CurrentXferOptions == I2C_FIRST_FRAME) || (CurrentXferOptions == I2C_FIRST_AND_LAST_FRAME) || (CurrentXferOptions == I2C_LAST_FRAME_NO_STOP) || (CurrentXferOptions == I2C_LAST_FRAME)))
 80035bc:	685a      	ldr	r2, [r3, #4]
 80035be:	0511      	lsls	r1, r2, #20
 80035c0:	d50e      	bpl.n	80035e0 <HAL_I2C_EV_IRQHandler+0x5b0>
 80035c2:	f510 3f80 	cmn.w	r0, #65536	; 0x10000
 80035c6:	d007      	beq.n	80035d8 <HAL_I2C_EV_IRQHandler+0x5a8>
 80035c8:	3801      	subs	r0, #1
 80035ca:	281f      	cmp	r0, #31
 80035cc:	d808      	bhi.n	80035e0 <HAL_I2C_EV_IRQHandler+0x5b0>
 80035ce:	4a90      	ldr	r2, [pc, #576]	; (8003810 <HAL_I2C_EV_IRQHandler+0x7e0>)
 80035d0:	fa22 f000 	lsr.w	r0, r2, r0
 80035d4:	07c2      	lsls	r2, r0, #31
 80035d6:	d503      	bpl.n	80035e0 <HAL_I2C_EV_IRQHandler+0x5b0>
          SET_BIT(hi2c->Instance->CR2, I2C_CR2_LAST);
 80035d8:	685a      	ldr	r2, [r3, #4]
 80035da:	f442 5280 	orr.w	r2, r2, #4096	; 0x1000
 80035de:	605a      	str	r2, [r3, #4]
        __HAL_I2C_CLEAR_ADDRFLAG(hi2c);
 80035e0:	2200      	movs	r2, #0
 80035e2:	9208      	str	r2, [sp, #32]
 80035e4:	695a      	ldr	r2, [r3, #20]
 80035e6:	9208      	str	r2, [sp, #32]
 80035e8:	699b      	ldr	r3, [r3, #24]
 80035ea:	9308      	str	r3, [sp, #32]
 80035ec:	9b08      	ldr	r3, [sp, #32]
 80035ee:	e79f      	b.n	8003530 <HAL_I2C_EV_IRQHandler+0x500>
  uint32_t CurrentXferOptions = hi2c->XferOptions;
 80035f0:	6ae1      	ldr	r1, [r4, #44]	; 0x2c
  if (hi2c->State == HAL_I2C_STATE_BUSY_TX)
 80035f2:	f894 203d 	ldrb.w	r2, [r4, #61]	; 0x3d
 80035f6:	2a21      	cmp	r2, #33	; 0x21
 80035f8:	f47f ad47 	bne.w	800308a <HAL_I2C_EV_IRQHandler+0x5a>
    if (hi2c->XferCount != 0U)
 80035fc:	8d62      	ldrh	r2, [r4, #42]	; 0x2a
 80035fe:	b292      	uxth	r2, r2
 8003600:	2a00      	cmp	r2, #0
 8003602:	f47f aeb9 	bne.w	8003378 <HAL_I2C_EV_IRQHandler+0x348>
      if ((CurrentXferOptions != I2C_FIRST_AND_LAST_FRAME) && (CurrentXferOptions != I2C_LAST_FRAME) && (CurrentXferOptions != I2C_NO_OPTION_FRAME))
 8003606:	2908      	cmp	r1, #8
 8003608:	f000 8160 	beq.w	80038cc <HAL_I2C_EV_IRQHandler+0x89c>
 800360c:	2920      	cmp	r1, #32
 800360e:	f000 815d 	beq.w	80038cc <HAL_I2C_EV_IRQHandler+0x89c>
 8003612:	f511 3f80 	cmn.w	r1, #65536	; 0x10000
 8003616:	f000 8159 	beq.w	80038cc <HAL_I2C_EV_IRQHandler+0x89c>
        __HAL_I2C_DISABLE_IT(hi2c, I2C_IT_EVT | I2C_IT_BUF | I2C_IT_ERR);
 800361a:	6859      	ldr	r1, [r3, #4]
        hi2c->PreviousState = I2C_STATE_MASTER_BUSY_TX;
 800361c:	2611      	movs	r6, #17
        __HAL_I2C_DISABLE_IT(hi2c, I2C_IT_EVT | I2C_IT_BUF | I2C_IT_ERR);
 800361e:	f421 61e0 	bic.w	r1, r1, #1792	; 0x700
        hi2c->State = HAL_I2C_STATE_READY;
 8003622:	2520      	movs	r5, #32
        __HAL_I2C_DISABLE_IT(hi2c, I2C_IT_EVT | I2C_IT_BUF | I2C_IT_ERR);
 8003624:	6059      	str	r1, [r3, #4]
        HAL_I2C_MasterTxCpltCallback(hi2c);
 8003626:	4620      	mov	r0, r4
        hi2c->PreviousState = I2C_STATE_MASTER_BUSY_TX;
 8003628:	6326      	str	r6, [r4, #48]	; 0x30
        hi2c->Mode = HAL_I2C_MODE_NONE;
 800362a:	f884 203e 	strb.w	r2, [r4, #62]	; 0x3e
        hi2c->State = HAL_I2C_STATE_READY;
 800362e:	f884 503d 	strb.w	r5, [r4, #61]	; 0x3d
        HAL_I2C_MasterTxCpltCallback(hi2c);
 8003632:	f7ff fb5f 	bl	8002cf4 <HAL_I2C_MasterTxCpltCallback>
 8003636:	e528      	b.n	800308a <HAL_I2C_EV_IRQHandler+0x5a>
    __HAL_I2C_DISABLE_IT(hi2c, I2C_IT_BUF);
 8003638:	685a      	ldr	r2, [r3, #4]
    *hi2c->pBuffPtr = (uint8_t)hi2c->Instance->DR;
 800363a:	6a61      	ldr	r1, [r4, #36]	; 0x24
    __HAL_I2C_DISABLE_IT(hi2c, I2C_IT_BUF);
 800363c:	f422 6280 	bic.w	r2, r2, #1024	; 0x400
 8003640:	605a      	str	r2, [r3, #4]
    *hi2c->pBuffPtr = (uint8_t)hi2c->Instance->DR;
 8003642:	691b      	ldr	r3, [r3, #16]
 8003644:	700b      	strb	r3, [r1, #0]
    hi2c->pBuffPtr++;
 8003646:	e6cb      	b.n	80033e0 <HAL_I2C_EV_IRQHandler+0x3b0>
      __HAL_I2C_CLEAR_ADDRFLAG(hi2c);
 8003648:	9100      	str	r1, [sp, #0]
 800364a:	695a      	ldr	r2, [r3, #20]
 800364c:	9200      	str	r2, [sp, #0]
 800364e:	699b      	ldr	r3, [r3, #24]
 8003650:	9300      	str	r3, [sp, #0]
 8003652:	9b00      	ldr	r3, [sp, #0]
 8003654:	e519      	b.n	800308a <HAL_I2C_EV_IRQHandler+0x5a>
  else if ((CurrentState == HAL_I2C_STATE_BUSY_TX) || \
 8003656:	2a21      	cmp	r2, #33	; 0x21
 8003658:	f43f add1 	beq.w	80031fe <HAL_I2C_EV_IRQHandler+0x1ce>
 800365c:	e5c9      	b.n	80031f2 <HAL_I2C_EV_IRQHandler+0x1c2>
      __HAL_I2C_CLEAR_ADDRFLAG(hi2c);
 800365e:	9201      	str	r2, [sp, #4]
 8003660:	695a      	ldr	r2, [r3, #20]
 8003662:	9201      	str	r2, [sp, #4]
 8003664:	699a      	ldr	r2, [r3, #24]
 8003666:	9201      	str	r2, [sp, #4]
 8003668:	9a01      	ldr	r2, [sp, #4]
      SET_BIT(hi2c->Instance->CR1, I2C_CR1_START);
 800366a:	681a      	ldr	r2, [r3, #0]
 800366c:	f442 7280 	orr.w	r2, r2, #256	; 0x100
 8003670:	601a      	str	r2, [r3, #0]
      hi2c->EventCount++;
 8003672:	6d23      	ldr	r3, [r4, #80]	; 0x50
 8003674:	3301      	adds	r3, #1
 8003676:	6523      	str	r3, [r4, #80]	; 0x50
 8003678:	e507      	b.n	800308a <HAL_I2C_EV_IRQHandler+0x5a>
    __HAL_I2C_DISABLE_IT(hi2c, I2C_IT_BUF);
 800367a:	685a      	ldr	r2, [r3, #4]
    if ((CurrentXferOptions != I2C_NEXT_FRAME) && (CurrentXferOptions != I2C_FIRST_AND_NEXT_FRAME))
 800367c:	2904      	cmp	r1, #4
    __HAL_I2C_DISABLE_IT(hi2c, I2C_IT_BUF);
 800367e:	f422 6280 	bic.w	r2, r2, #1024	; 0x400
 8003682:	605a      	str	r2, [r3, #4]
    if ((CurrentXferOptions != I2C_NEXT_FRAME) && (CurrentXferOptions != I2C_FIRST_AND_NEXT_FRAME))
 8003684:	f43f aea9 	beq.w	80033da <HAL_I2C_EV_IRQHandler+0x3aa>
 8003688:	2902      	cmp	r1, #2
 800368a:	f43f aea6 	beq.w	80033da <HAL_I2C_EV_IRQHandler+0x3aa>
      CLEAR_BIT(hi2c->Instance->CR1, I2C_CR1_ACK);
 800368e:	681a      	ldr	r2, [r3, #0]
 8003690:	f422 6280 	bic.w	r2, r2, #1024	; 0x400
 8003694:	601a      	str	r2, [r3, #0]
 8003696:	e6a0      	b.n	80033da <HAL_I2C_EV_IRQHandler+0x3aa>
        if (CurrentXferOptions == I2C_NO_OPTION_FRAME)
 8003698:	f510 3f80 	cmn.w	r0, #65536	; 0x10000
 800369c:	f000 8102 	beq.w	80038a4 <HAL_I2C_EV_IRQHandler+0x874>
        else if ((CurrentXferOptions != I2C_FIRST_AND_LAST_FRAME) && (CurrentXferOptions != I2C_LAST_FRAME) \
 80036a0:	2808      	cmp	r0, #8
 80036a2:	f000 80bb 	beq.w	800381c <HAL_I2C_EV_IRQHandler+0x7ec>
 80036a6:	2820      	cmp	r0, #32
 80036a8:	f000 80b8 	beq.w	800381c <HAL_I2C_EV_IRQHandler+0x7ec>
                 && ((Prev_State != I2C_STATE_MASTER_BUSY_RX) || (CurrentXferOptions == I2C_FIRST_FRAME)))
 80036ac:	2d12      	cmp	r5, #18
 80036ae:	f000 8150 	beq.w	8003952 <HAL_I2C_EV_IRQHandler+0x922>
          if ((CurrentXferOptions != I2C_NEXT_FRAME) && (CurrentXferOptions != I2C_FIRST_AND_NEXT_FRAME) && (CurrentXferOptions != I2C_LAST_FRAME_NO_STOP))
 80036b2:	2810      	cmp	r0, #16
 80036b4:	f200 8150 	bhi.w	8003958 <HAL_I2C_EV_IRQHandler+0x928>
 80036b8:	4a56      	ldr	r2, [pc, #344]	; (8003814 <HAL_I2C_EV_IRQHandler+0x7e4>)
 80036ba:	fa22 f000 	lsr.w	r0, r2, r0
 80036be:	07c1      	lsls	r1, r0, #31
 80036c0:	f140 814a 	bpl.w	8003958 <HAL_I2C_EV_IRQHandler+0x928>
            SET_BIT(hi2c->Instance->CR1, I2C_CR1_ACK);
 80036c4:	681a      	ldr	r2, [r3, #0]
 80036c6:	f442 6280 	orr.w	r2, r2, #1024	; 0x400
 80036ca:	601a      	str	r2, [r3, #0]
          __HAL_I2C_CLEAR_ADDRFLAG(hi2c);
 80036cc:	2200      	movs	r2, #0
 80036ce:	9205      	str	r2, [sp, #20]
 80036d0:	695a      	ldr	r2, [r3, #20]
 80036d2:	9205      	str	r2, [sp, #20]
 80036d4:	699b      	ldr	r3, [r3, #24]
 80036d6:	9305      	str	r3, [sp, #20]
 80036d8:	9b05      	ldr	r3, [sp, #20]
 80036da:	e729      	b.n	8003530 <HAL_I2C_EV_IRQHandler+0x500>
    if ((CurrentXferOptions == I2C_FIRST_FRAME) || (CurrentXferOptions == I2C_LAST_FRAME_NO_STOP))
 80036dc:	2901      	cmp	r1, #1
      CLEAR_BIT(hi2c->Instance->CR1, I2C_CR1_ACK);
 80036de:	681a      	ldr	r2, [r3, #0]
    if ((CurrentXferOptions == I2C_FIRST_FRAME) || (CurrentXferOptions == I2C_LAST_FRAME_NO_STOP))
 80036e0:	f000 80c3 	beq.w	800386a <HAL_I2C_EV_IRQHandler+0x83a>
 80036e4:	2910      	cmp	r1, #16
 80036e6:	f000 80c0 	beq.w	800386a <HAL_I2C_EV_IRQHandler+0x83a>
    else if ((CurrentXferOptions == I2C_NEXT_FRAME) || (CurrentXferOptions == I2C_FIRST_AND_NEXT_FRAME))
 80036ea:	2904      	cmp	r1, #4
 80036ec:	f000 8122 	beq.w	8003934 <HAL_I2C_EV_IRQHandler+0x904>
 80036f0:	2902      	cmp	r1, #2
 80036f2:	f000 811f 	beq.w	8003934 <HAL_I2C_EV_IRQHandler+0x904>
      SET_BIT(hi2c->Instance->CR1, I2C_CR1_STOP);
 80036f6:	f442 7200 	orr.w	r2, r2, #512	; 0x200
 80036fa:	601a      	str	r2, [r3, #0]
    *hi2c->pBuffPtr = (uint8_t)hi2c->Instance->DR;
 80036fc:	6a62      	ldr	r2, [r4, #36]	; 0x24
 80036fe:	691b      	ldr	r3, [r3, #16]
 8003700:	7013      	strb	r3, [r2, #0]
    hi2c->XferCount--;
 8003702:	8d63      	ldrh	r3, [r4, #42]	; 0x2a
    hi2c->pBuffPtr++;
 8003704:	6a62      	ldr	r2, [r4, #36]	; 0x24
    *hi2c->pBuffPtr = (uint8_t)hi2c->Instance->DR;
 8003706:	6821      	ldr	r1, [r4, #0]
    hi2c->XferCount--;
 8003708:	3b01      	subs	r3, #1
 800370a:	b29b      	uxth	r3, r3
 800370c:	8563      	strh	r3, [r4, #42]	; 0x2a
    *hi2c->pBuffPtr = (uint8_t)hi2c->Instance->DR;
 800370e:	690b      	ldr	r3, [r1, #16]
    hi2c->pBuffPtr++;
 8003710:	1c51      	adds	r1, r2, #1
 8003712:	6261      	str	r1, [r4, #36]	; 0x24
    *hi2c->pBuffPtr = (uint8_t)hi2c->Instance->DR;
 8003714:	7053      	strb	r3, [r2, #1]
    hi2c->XferCount--;
 8003716:	8d63      	ldrh	r3, [r4, #42]	; 0x2a
    __HAL_I2C_DISABLE_IT(hi2c, I2C_IT_EVT | I2C_IT_ERR);
 8003718:	6821      	ldr	r1, [r4, #0]
    hi2c->pBuffPtr++;
 800371a:	6a62      	ldr	r2, [r4, #36]	; 0x24
    hi2c->XferCount--;
 800371c:	3b01      	subs	r3, #1
 800371e:	b29b      	uxth	r3, r3
 8003720:	8563      	strh	r3, [r4, #42]	; 0x2a
    __HAL_I2C_DISABLE_IT(hi2c, I2C_IT_EVT | I2C_IT_ERR);
 8003722:	684b      	ldr	r3, [r1, #4]
    hi2c->pBuffPtr++;
 8003724:	3201      	adds	r2, #1
    __HAL_I2C_DISABLE_IT(hi2c, I2C_IT_EVT | I2C_IT_ERR);
 8003726:	f423 7340 	bic.w	r3, r3, #768	; 0x300
    hi2c->State = HAL_I2C_STATE_READY;
 800372a:	2020      	movs	r0, #32
    hi2c->pBuffPtr++;
 800372c:	6262      	str	r2, [r4, #36]	; 0x24
    __HAL_I2C_DISABLE_IT(hi2c, I2C_IT_EVT | I2C_IT_ERR);
 800372e:	604b      	str	r3, [r1, #4]
    hi2c->State = HAL_I2C_STATE_READY;
 8003730:	f884 003d 	strb.w	r0, [r4, #61]	; 0x3d
    if (hi2c->Mode == HAL_I2C_MODE_MEM)
 8003734:	f894 303e 	ldrb.w	r3, [r4, #62]	; 0x3e
 8003738:	2b40      	cmp	r3, #64	; 0x40
 800373a:	f000 80db 	beq.w	80038f4 <HAL_I2C_EV_IRQHandler+0x8c4>
      hi2c->Mode = HAL_I2C_MODE_NONE;
 800373e:	2200      	movs	r2, #0
      hi2c->PreviousState = I2C_STATE_MASTER_BUSY_RX;
 8003740:	2312      	movs	r3, #18
      hi2c->Mode = HAL_I2C_MODE_NONE;
 8003742:	f884 203e 	strb.w	r2, [r4, #62]	; 0x3e
      HAL_I2C_MasterRxCpltCallback(hi2c);
 8003746:	4620      	mov	r0, r4
      hi2c->PreviousState = I2C_STATE_MASTER_BUSY_RX;
 8003748:	6323      	str	r3, [r4, #48]	; 0x30
      HAL_I2C_MasterRxCpltCallback(hi2c);
 800374a:	f7ff fad5 	bl	8002cf8 <HAL_I2C_MasterRxCpltCallback>
 800374e:	e49c      	b.n	800308a <HAL_I2C_EV_IRQHandler+0x5a>
      if (hi2c->Mode == HAL_I2C_MODE_MEM)
 8003750:	f894 203e 	ldrb.w	r2, [r4, #62]	; 0x3e
 8003754:	2a40      	cmp	r2, #64	; 0x40
 8003756:	f47f ae0f 	bne.w	8003378 <HAL_I2C_EV_IRQHandler+0x348>
 800375a:	e652      	b.n	8003402 <HAL_I2C_EV_IRQHandler+0x3d2>
    else if ((hi2c->XferOptions != I2C_FIRST_AND_NEXT_FRAME) && ((tmp == 1U) || (tmp == 0U)))
 800375c:	6ae0      	ldr	r0, [r4, #44]	; 0x2c
 800375e:	2802      	cmp	r0, #2
 8003760:	f43f ac93 	beq.w	800308a <HAL_I2C_EV_IRQHandler+0x5a>
 8003764:	2a01      	cmp	r2, #1
 8003766:	f63f ac90 	bhi.w	800308a <HAL_I2C_EV_IRQHandler+0x5a>
  count = I2C_TIMEOUT_STOP_FLAG * (SystemCoreClock / 25U / 1000U);
 800376a:	4a2b      	ldr	r2, [pc, #172]	; (8003818 <HAL_I2C_EV_IRQHandler+0x7e8>)
  __IO uint32_t count = 0U;
 800376c:	910a      	str	r1, [sp, #40]	; 0x28
  count = I2C_TIMEOUT_STOP_FLAG * (SystemCoreClock / 25U / 1000U);
 800376e:	6812      	ldr	r2, [r2, #0]
 8003770:	f246 11a8 	movw	r1, #25000	; 0x61a8
 8003774:	fbb2 f2f1 	udiv	r2, r2, r1
 8003778:	eb02 0282 	add.w	r2, r2, r2, lsl #2
 800377c:	920a      	str	r2, [sp, #40]	; 0x28
 800377e:	e004      	b.n	800378a <HAL_I2C_EV_IRQHandler+0x75a>
  while (READ_BIT(hi2c->Instance->CR1, I2C_CR1_STOP) == I2C_CR1_STOP);
 8003780:	681a      	ldr	r2, [r3, #0]
 8003782:	f412 7200 	ands.w	r2, r2, #512	; 0x200
 8003786:	f000 80ec 	beq.w	8003962 <HAL_I2C_EV_IRQHandler+0x932>
    count--;
 800378a:	9a0a      	ldr	r2, [sp, #40]	; 0x28
 800378c:	3a01      	subs	r2, #1
 800378e:	920a      	str	r2, [sp, #40]	; 0x28
    if (count == 0U)
 8003790:	990a      	ldr	r1, [sp, #40]	; 0x28
 8003792:	2900      	cmp	r1, #0
 8003794:	d1f4      	bne.n	8003780 <HAL_I2C_EV_IRQHandler+0x750>
      hi2c->ErrorCode           |= HAL_I2C_ERROR_TIMEOUT;
 8003796:	6c22      	ldr	r2, [r4, #64]	; 0x40
        *hi2c->pBuffPtr = (uint8_t)hi2c->Instance->DR;
 8003798:	6a60      	ldr	r0, [r4, #36]	; 0x24
      hi2c->ErrorCode           |= HAL_I2C_ERROR_TIMEOUT;
 800379a:	f042 0220 	orr.w	r2, r2, #32
 800379e:	6422      	str	r2, [r4, #64]	; 0x40
        __HAL_I2C_DISABLE_IT(hi2c, I2C_IT_EVT | I2C_IT_BUF | I2C_IT_ERR);
 80037a0:	685a      	ldr	r2, [r3, #4]
 80037a2:	f422 62e0 	bic.w	r2, r2, #1792	; 0x700
 80037a6:	605a      	str	r2, [r3, #4]
        *hi2c->pBuffPtr = (uint8_t)hi2c->Instance->DR;
 80037a8:	691b      	ldr	r3, [r3, #16]
 80037aa:	7003      	strb	r3, [r0, #0]
        hi2c->XferCount--;
 80037ac:	8d63      	ldrh	r3, [r4, #42]	; 0x2a
        hi2c->pBuffPtr++;
 80037ae:	6a62      	ldr	r2, [r4, #36]	; 0x24
        hi2c->XferCount--;
 80037b0:	3b01      	subs	r3, #1
 80037b2:	b29b      	uxth	r3, r3
        hi2c->pBuffPtr++;
 80037b4:	3201      	adds	r2, #1
        hi2c->State = HAL_I2C_STATE_READY;
 80037b6:	2020      	movs	r0, #32
        hi2c->XferCount--;
 80037b8:	8563      	strh	r3, [r4, #42]	; 0x2a
        hi2c->pBuffPtr++;
 80037ba:	6262      	str	r2, [r4, #36]	; 0x24
        hi2c->State = HAL_I2C_STATE_READY;
 80037bc:	f884 003d 	strb.w	r0, [r4, #61]	; 0x3d
        HAL_I2C_ErrorCallback(hi2c);
 80037c0:	4620      	mov	r0, r4
        hi2c->Mode = HAL_I2C_MODE_NONE;
 80037c2:	f884 103e 	strb.w	r1, [r4, #62]	; 0x3e
        HAL_I2C_ErrorCallback(hi2c);
 80037c6:	f7ff faff 	bl	8002dc8 <HAL_I2C_ErrorCallback>
 80037ca:	e45e      	b.n	800308a <HAL_I2C_EV_IRQHandler+0x5a>
        if ((CurrentXferOptions != I2C_NEXT_FRAME) && (CurrentXferOptions != I2C_FIRST_AND_NEXT_FRAME) && (CurrentXferOptions != I2C_LAST_FRAME_NO_STOP))
 80037cc:	2810      	cmp	r0, #16
 80037ce:	f240 809a 	bls.w	8003906 <HAL_I2C_EV_IRQHandler+0x8d6>
          CLEAR_BIT(hi2c->Instance->CR1, I2C_CR1_ACK);
 80037d2:	681a      	ldr	r2, [r3, #0]
 80037d4:	f422 6280 	bic.w	r2, r2, #1024	; 0x400
 80037d8:	601a      	str	r2, [r3, #0]
          SET_BIT(hi2c->Instance->CR1, I2C_CR1_POS);
 80037da:	681a      	ldr	r2, [r3, #0]
 80037dc:	f442 6200 	orr.w	r2, r2, #2048	; 0x800
 80037e0:	601a      	str	r2, [r3, #0]
        if (((hi2c->Instance->CR2 & I2C_CR2_DMAEN) == I2C_CR2_DMAEN) && ((CurrentXferOptions == I2C_NO_OPTION_FRAME) || (CurrentXferOptions == I2C_FIRST_FRAME) || (CurrentXferOptions == I2C_FIRST_AND_LAST_FRAME) || (CurrentXferOptions == I2C_LAST_FRAME_NO_STOP) || (CurrentXferOptions == I2C_LAST_FRAME)))
 80037e2:	685a      	ldr	r2, [r3, #4]
 80037e4:	0516      	lsls	r6, r2, #20
 80037e6:	d507      	bpl.n	80037f8 <HAL_I2C_EV_IRQHandler+0x7c8>
 80037e8:	f510 3f80 	cmn.w	r0, #65536	; 0x10000
 80037ec:	f040 8098 	bne.w	8003920 <HAL_I2C_EV_IRQHandler+0x8f0>
          SET_BIT(hi2c->Instance->CR2, I2C_CR2_LAST);
 80037f0:	685a      	ldr	r2, [r3, #4]
 80037f2:	f442 5280 	orr.w	r2, r2, #4096	; 0x1000
 80037f6:	605a      	str	r2, [r3, #4]
        __HAL_I2C_CLEAR_ADDRFLAG(hi2c);
 80037f8:	2200      	movs	r2, #0
 80037fa:	9207      	str	r2, [sp, #28]
 80037fc:	695a      	ldr	r2, [r3, #20]
 80037fe:	9207      	str	r2, [sp, #28]
 8003800:	699b      	ldr	r3, [r3, #24]
 8003802:	9307      	str	r3, [sp, #28]
 8003804:	9b07      	ldr	r3, [sp, #28]
 8003806:	e693      	b.n	8003530 <HAL_I2C_EV_IRQHandler+0x500>
 8003808:	08002dd1 	.word	0x08002dd1
 800380c:	ffff0000 	.word	0xffff0000
 8003810:	80008081 	.word	0x80008081
 8003814:	00010014 	.word	0x00010014
 8003818:	20000000 	.word	0x20000000
          CLEAR_BIT(hi2c->Instance->CR1, I2C_CR1_ACK);
 800381c:	681a      	ldr	r2, [r3, #0]
          __HAL_I2C_CLEAR_ADDRFLAG(hi2c);
 800381e:	2100      	movs	r1, #0
          CLEAR_BIT(hi2c->Instance->CR1, I2C_CR1_ACK);
 8003820:	f422 6280 	bic.w	r2, r2, #1024	; 0x400
 8003824:	601a      	str	r2, [r3, #0]
          __HAL_I2C_CLEAR_ADDRFLAG(hi2c);
 8003826:	9106      	str	r1, [sp, #24]
 8003828:	695a      	ldr	r2, [r3, #20]
 800382a:	9206      	str	r2, [sp, #24]
 800382c:	699a      	ldr	r2, [r3, #24]
 800382e:	9206      	str	r2, [sp, #24]
 8003830:	9a06      	ldr	r2, [sp, #24]
          SET_BIT(hi2c->Instance->CR1, I2C_CR1_STOP);
 8003832:	681a      	ldr	r2, [r3, #0]
 8003834:	f442 7200 	orr.w	r2, r2, #512	; 0x200
 8003838:	601a      	str	r2, [r3, #0]
 800383a:	e679      	b.n	8003530 <HAL_I2C_EV_IRQHandler+0x500>
    if ((CurrentXferOptions != I2C_FIRST_AND_LAST_FRAME) && (CurrentXferOptions != I2C_LAST_FRAME) && (CurrentXferOptions != I2C_NO_OPTION_FRAME))
 800383c:	2d08      	cmp	r5, #8
 800383e:	d018      	beq.n	8003872 <HAL_I2C_EV_IRQHandler+0x842>
 8003840:	2d20      	cmp	r5, #32
 8003842:	d016      	beq.n	8003872 <HAL_I2C_EV_IRQHandler+0x842>
 8003844:	f515 3f80 	cmn.w	r5, #65536	; 0x10000
 8003848:	d013      	beq.n	8003872 <HAL_I2C_EV_IRQHandler+0x842>
      __HAL_I2C_DISABLE_IT(hi2c, I2C_IT_EVT | I2C_IT_BUF | I2C_IT_ERR);
 800384a:	685a      	ldr	r2, [r3, #4]
      hi2c->PreviousState = I2C_STATE_MASTER_BUSY_TX;
 800384c:	2611      	movs	r6, #17
      __HAL_I2C_DISABLE_IT(hi2c, I2C_IT_EVT | I2C_IT_BUF | I2C_IT_ERR);
 800384e:	f422 62e0 	bic.w	r2, r2, #1792	; 0x700
      hi2c->Mode = HAL_I2C_MODE_NONE;
 8003852:	2500      	movs	r5, #0
      hi2c->State = HAL_I2C_STATE_READY;
 8003854:	2120      	movs	r1, #32
      __HAL_I2C_DISABLE_IT(hi2c, I2C_IT_EVT | I2C_IT_BUF | I2C_IT_ERR);
 8003856:	605a      	str	r2, [r3, #4]
      HAL_I2C_MasterTxCpltCallback(hi2c);
 8003858:	4620      	mov	r0, r4
      hi2c->PreviousState = I2C_STATE_MASTER_BUSY_TX;
 800385a:	6326      	str	r6, [r4, #48]	; 0x30
      hi2c->Mode = HAL_I2C_MODE_NONE;
 800385c:	f884 503e 	strb.w	r5, [r4, #62]	; 0x3e
      hi2c->State = HAL_I2C_STATE_READY;
 8003860:	f884 103d 	strb.w	r1, [r4, #61]	; 0x3d
      HAL_I2C_MasterTxCpltCallback(hi2c);
 8003864:	f7ff fa46 	bl	8002cf4 <HAL_I2C_MasterTxCpltCallback>
 8003868:	e40f      	b.n	800308a <HAL_I2C_EV_IRQHandler+0x5a>
      CLEAR_BIT(hi2c->Instance->CR1, I2C_CR1_ACK);
 800386a:	f422 6280 	bic.w	r2, r2, #1024	; 0x400
 800386e:	601a      	str	r2, [r3, #0]
 8003870:	e744      	b.n	80036fc <HAL_I2C_EV_IRQHandler+0x6cc>
      __HAL_I2C_DISABLE_IT(hi2c, I2C_IT_EVT | I2C_IT_BUF | I2C_IT_ERR);
 8003872:	685a      	ldr	r2, [r3, #4]
 8003874:	f422 62e0 	bic.w	r2, r2, #1792	; 0x700
 8003878:	605a      	str	r2, [r3, #4]
      SET_BIT(hi2c->Instance->CR1, I2C_CR1_STOP);
 800387a:	6819      	ldr	r1, [r3, #0]
      hi2c->PreviousState = I2C_STATE_NONE;
 800387c:	2200      	movs	r2, #0
      hi2c->State = HAL_I2C_STATE_READY;
 800387e:	2020      	movs	r0, #32
      SET_BIT(hi2c->Instance->CR1, I2C_CR1_STOP);
 8003880:	f441 7100 	orr.w	r1, r1, #512	; 0x200
 8003884:	6019      	str	r1, [r3, #0]
      hi2c->PreviousState = I2C_STATE_NONE;
 8003886:	6322      	str	r2, [r4, #48]	; 0x30
      hi2c->State = HAL_I2C_STATE_READY;
 8003888:	f884 003d 	strb.w	r0, [r4, #61]	; 0x3d
      if (hi2c->Mode == HAL_I2C_MODE_MEM)
 800388c:	f894 303e 	ldrb.w	r3, [r4, #62]	; 0x3e
        hi2c->Mode = HAL_I2C_MODE_NONE;
 8003890:	f884 203e 	strb.w	r2, [r4, #62]	; 0x3e
      if (hi2c->Mode == HAL_I2C_MODE_MEM)
 8003894:	2b40      	cmp	r3, #64	; 0x40
        HAL_I2C_MemTxCpltCallback(hi2c);
 8003896:	4620      	mov	r0, r4
      if (hi2c->Mode == HAL_I2C_MODE_MEM)
 8003898:	f47f aecb 	bne.w	8003632 <HAL_I2C_EV_IRQHandler+0x602>
        HAL_I2C_MemTxCpltCallback(hi2c);
 800389c:	f7ff fa36 	bl	8002d0c <HAL_I2C_MemTxCpltCallback>
 80038a0:	f7ff bbf3 	b.w	800308a <HAL_I2C_EV_IRQHandler+0x5a>
          CLEAR_BIT(hi2c->Instance->CR1, I2C_CR1_ACK);
 80038a4:	681a      	ldr	r2, [r3, #0]
 80038a6:	f422 6280 	bic.w	r2, r2, #1024	; 0x400
 80038aa:	601a      	str	r2, [r3, #0]
          if ((hi2c->Instance->CR2 & I2C_CR2_DMAEN) == I2C_CR2_DMAEN)
 80038ac:	685a      	ldr	r2, [r3, #4]
 80038ae:	f412 6200 	ands.w	r2, r2, #2048	; 0x800
 80038b2:	d043      	beq.n	800393c <HAL_I2C_EV_IRQHandler+0x90c>
            CLEAR_BIT(hi2c->Instance->CR1, I2C_CR1_ACK);
 80038b4:	681a      	ldr	r2, [r3, #0]
            __HAL_I2C_CLEAR_ADDRFLAG(hi2c);
 80038b6:	2100      	movs	r1, #0
            CLEAR_BIT(hi2c->Instance->CR1, I2C_CR1_ACK);
 80038b8:	f422 6280 	bic.w	r2, r2, #1024	; 0x400
 80038bc:	601a      	str	r2, [r3, #0]
            __HAL_I2C_CLEAR_ADDRFLAG(hi2c);
 80038be:	9103      	str	r1, [sp, #12]
 80038c0:	695a      	ldr	r2, [r3, #20]
 80038c2:	9203      	str	r2, [sp, #12]
 80038c4:	699b      	ldr	r3, [r3, #24]
 80038c6:	9303      	str	r3, [sp, #12]
 80038c8:	9b03      	ldr	r3, [sp, #12]
 80038ca:	e631      	b.n	8003530 <HAL_I2C_EV_IRQHandler+0x500>
        __HAL_I2C_DISABLE_IT(hi2c, I2C_IT_EVT | I2C_IT_BUF | I2C_IT_ERR);
 80038cc:	685a      	ldr	r2, [r3, #4]
 80038ce:	f422 62e0 	bic.w	r2, r2, #1792	; 0x700
 80038d2:	605a      	str	r2, [r3, #4]
        SET_BIT(hi2c->Instance->CR1, I2C_CR1_STOP);
 80038d4:	681a      	ldr	r2, [r3, #0]
        hi2c->PreviousState = I2C_STATE_NONE;
 80038d6:	2100      	movs	r1, #0
        SET_BIT(hi2c->Instance->CR1, I2C_CR1_STOP);
 80038d8:	f442 7200 	orr.w	r2, r2, #512	; 0x200
        hi2c->State = HAL_I2C_STATE_READY;
 80038dc:	2520      	movs	r5, #32
        SET_BIT(hi2c->Instance->CR1, I2C_CR1_STOP);
 80038de:	601a      	str	r2, [r3, #0]
        HAL_I2C_MasterTxCpltCallback(hi2c);
 80038e0:	4620      	mov	r0, r4
        hi2c->PreviousState = I2C_STATE_NONE;
 80038e2:	6321      	str	r1, [r4, #48]	; 0x30
        hi2c->State = HAL_I2C_STATE_READY;
 80038e4:	f884 503d 	strb.w	r5, [r4, #61]	; 0x3d
        hi2c->Mode = HAL_I2C_MODE_NONE;
 80038e8:	f884 103e 	strb.w	r1, [r4, #62]	; 0x3e
        HAL_I2C_MasterTxCpltCallback(hi2c);
 80038ec:	f7ff fa02 	bl	8002cf4 <HAL_I2C_MasterTxCpltCallback>
 80038f0:	f7ff bbcb 	b.w	800308a <HAL_I2C_EV_IRQHandler+0x5a>
      hi2c->Mode = HAL_I2C_MODE_NONE;
 80038f4:	2300      	movs	r3, #0
 80038f6:	f884 303e 	strb.w	r3, [r4, #62]	; 0x3e
      HAL_I2C_MemRxCpltCallback(hi2c);
 80038fa:	4620      	mov	r0, r4
      hi2c->PreviousState = I2C_STATE_NONE;
 80038fc:	6323      	str	r3, [r4, #48]	; 0x30
      HAL_I2C_MemRxCpltCallback(hi2c);
 80038fe:	f7ff fa61 	bl	8002dc4 <HAL_I2C_MemRxCpltCallback>
 8003902:	f7ff bbc2 	b.w	800308a <HAL_I2C_EV_IRQHandler+0x5a>
        if ((CurrentXferOptions != I2C_NEXT_FRAME) && (CurrentXferOptions != I2C_FIRST_AND_NEXT_FRAME) && (CurrentXferOptions != I2C_LAST_FRAME_NO_STOP))
 8003906:	4a28      	ldr	r2, [pc, #160]	; (80039a8 <HAL_I2C_EV_IRQHandler+0x978>)
 8003908:	40c2      	lsrs	r2, r0
 800390a:	07d2      	lsls	r2, r2, #31
 800390c:	f57f af61 	bpl.w	80037d2 <HAL_I2C_EV_IRQHandler+0x7a2>
          SET_BIT(hi2c->Instance->CR1, I2C_CR1_ACK);
 8003910:	681a      	ldr	r2, [r3, #0]
 8003912:	f442 6280 	orr.w	r2, r2, #1024	; 0x400
 8003916:	601a      	str	r2, [r3, #0]
        if (((hi2c->Instance->CR2 & I2C_CR2_DMAEN) == I2C_CR2_DMAEN) && ((CurrentXferOptions == I2C_NO_OPTION_FRAME) || (CurrentXferOptions == I2C_FIRST_FRAME) || (CurrentXferOptions == I2C_FIRST_AND_LAST_FRAME) || (CurrentXferOptions == I2C_LAST_FRAME_NO_STOP) || (CurrentXferOptions == I2C_LAST_FRAME)))
 8003918:	685a      	ldr	r2, [r3, #4]
 800391a:	0515      	lsls	r5, r2, #20
 800391c:	f57f af6c 	bpl.w	80037f8 <HAL_I2C_EV_IRQHandler+0x7c8>
 8003920:	3801      	subs	r0, #1
 8003922:	281f      	cmp	r0, #31
 8003924:	f63f af68 	bhi.w	80037f8 <HAL_I2C_EV_IRQHandler+0x7c8>
 8003928:	4a20      	ldr	r2, [pc, #128]	; (80039ac <HAL_I2C_EV_IRQHandler+0x97c>)
 800392a:	40c2      	lsrs	r2, r0
 800392c:	07d0      	lsls	r0, r2, #31
 800392e:	f57f af63 	bpl.w	80037f8 <HAL_I2C_EV_IRQHandler+0x7c8>
 8003932:	e75d      	b.n	80037f0 <HAL_I2C_EV_IRQHandler+0x7c0>
      SET_BIT(hi2c->Instance->CR1, I2C_CR1_ACK);
 8003934:	f442 6280 	orr.w	r2, r2, #1024	; 0x400
 8003938:	601a      	str	r2, [r3, #0]
 800393a:	e6df      	b.n	80036fc <HAL_I2C_EV_IRQHandler+0x6cc>
            __HAL_I2C_CLEAR_ADDRFLAG(hi2c);
 800393c:	9204      	str	r2, [sp, #16]
 800393e:	695a      	ldr	r2, [r3, #20]
 8003940:	9204      	str	r2, [sp, #16]
 8003942:	699a      	ldr	r2, [r3, #24]
 8003944:	9204      	str	r2, [sp, #16]
 8003946:	9a04      	ldr	r2, [sp, #16]
            SET_BIT(hi2c->Instance->CR1, I2C_CR1_STOP);
 8003948:	681a      	ldr	r2, [r3, #0]
 800394a:	f442 7200 	orr.w	r2, r2, #512	; 0x200
 800394e:	601a      	str	r2, [r3, #0]
 8003950:	e5ee      	b.n	8003530 <HAL_I2C_EV_IRQHandler+0x500>
                 && ((Prev_State != I2C_STATE_MASTER_BUSY_RX) || (CurrentXferOptions == I2C_FIRST_FRAME)))
 8003952:	2801      	cmp	r0, #1
 8003954:	f47f af62 	bne.w	800381c <HAL_I2C_EV_IRQHandler+0x7ec>
            CLEAR_BIT(hi2c->Instance->CR1, I2C_CR1_ACK);
 8003958:	681a      	ldr	r2, [r3, #0]
 800395a:	f422 6280 	bic.w	r2, r2, #1024	; 0x400
 800395e:	601a      	str	r2, [r3, #0]
 8003960:	e6b4      	b.n	80036cc <HAL_I2C_EV_IRQHandler+0x69c>
        CLEAR_BIT(hi2c->Instance->CR1, I2C_CR1_ACK);
 8003962:	6819      	ldr	r1, [r3, #0]
        *hi2c->pBuffPtr = (uint8_t)hi2c->Instance->DR;
 8003964:	6a60      	ldr	r0, [r4, #36]	; 0x24
        CLEAR_BIT(hi2c->Instance->CR1, I2C_CR1_ACK);
 8003966:	f421 6180 	bic.w	r1, r1, #1024	; 0x400
 800396a:	6019      	str	r1, [r3, #0]
        __HAL_I2C_DISABLE_IT(hi2c, I2C_IT_EVT | I2C_IT_BUF | I2C_IT_ERR);
 800396c:	6859      	ldr	r1, [r3, #4]
 800396e:	f421 61e0 	bic.w	r1, r1, #1792	; 0x700
 8003972:	6059      	str	r1, [r3, #4]
        *hi2c->pBuffPtr = (uint8_t)hi2c->Instance->DR;
 8003974:	691b      	ldr	r3, [r3, #16]
 8003976:	7003      	strb	r3, [r0, #0]
        hi2c->XferCount--;
 8003978:	8d63      	ldrh	r3, [r4, #42]	; 0x2a
        hi2c->pBuffPtr++;
 800397a:	6a61      	ldr	r1, [r4, #36]	; 0x24
        hi2c->XferCount--;
 800397c:	3b01      	subs	r3, #1
 800397e:	b29b      	uxth	r3, r3
        hi2c->State = HAL_I2C_STATE_READY;
 8003980:	2020      	movs	r0, #32
        hi2c->XferCount--;
 8003982:	8563      	strh	r3, [r4, #42]	; 0x2a
        hi2c->State = HAL_I2C_STATE_READY;
 8003984:	f884 003d 	strb.w	r0, [r4, #61]	; 0x3d
        if (hi2c->Mode == HAL_I2C_MODE_MEM)
 8003988:	f894 303e 	ldrb.w	r3, [r4, #62]	; 0x3e
        hi2c->pBuffPtr++;
 800398c:	3101      	adds	r1, #1
        if (hi2c->Mode == HAL_I2C_MODE_MEM)
 800398e:	2b40      	cmp	r3, #64	; 0x40
        hi2c->pBuffPtr++;
 8003990:	6261      	str	r1, [r4, #36]	; 0x24
        if (hi2c->Mode == HAL_I2C_MODE_MEM)
 8003992:	f47f aed5 	bne.w	8003740 <HAL_I2C_EV_IRQHandler+0x710>
          hi2c->Mode = HAL_I2C_MODE_NONE;
 8003996:	f884 203e 	strb.w	r2, [r4, #62]	; 0x3e
          HAL_I2C_MemRxCpltCallback(hi2c);
 800399a:	4620      	mov	r0, r4
          hi2c->PreviousState = I2C_STATE_NONE;
 800399c:	6322      	str	r2, [r4, #48]	; 0x30
          HAL_I2C_MemRxCpltCallback(hi2c);
 800399e:	f7ff fa11 	bl	8002dc4 <HAL_I2C_MemRxCpltCallback>
 80039a2:	f7ff bb72 	b.w	800308a <HAL_I2C_EV_IRQHandler+0x5a>
 80039a6:	bf00      	nop
 80039a8:	00010014 	.word	0x00010014
 80039ac:	80008081 	.word	0x80008081

080039b0 <HAL_RCC_OscConfig>:
__weak HAL_StatusTypeDef HAL_RCC_OscConfig(RCC_OscInitTypeDef  *RCC_OscInitStruct)
{
  uint32_t tickstart, pll_config;

  /* Check Null pointer */
  if(RCC_OscInitStruct == NULL)
 80039b0:	2800      	cmp	r0, #0
 80039b2:	f000 8263 	beq.w	8003e7c <HAL_RCC_OscConfig+0x4cc>
{
 80039b6:	e92d 41f0 	stmdb	sp!, {r4, r5, r6, r7, r8, lr}
  {
    return HAL_ERROR;
  }

  /* Check the parameters */
  assert_param(IS_RCC_OSCILLATORTYPE(RCC_OscInitStruct->OscillatorType));
 80039ba:	6803      	ldr	r3, [r0, #0]
 80039bc:	2b0f      	cmp	r3, #15
{
 80039be:	b082      	sub	sp, #8
 80039c0:	4604      	mov	r4, r0
  assert_param(IS_RCC_OSCILLATORTYPE(RCC_OscInitStruct->OscillatorType));
 80039c2:	f200 8137 	bhi.w	8003c34 <HAL_RCC_OscConfig+0x284>
  /*------------------------------- HSE Configuration ------------------------*/
  if(((RCC_OscInitStruct->OscillatorType) & RCC_OSCILLATORTYPE_HSE) == RCC_OSCILLATORTYPE_HSE)
 80039c6:	07dd      	lsls	r5, r3, #31
 80039c8:	d537      	bpl.n	8003a3a <HAL_RCC_OscConfig+0x8a>
  {
    /* Check the parameters */
    assert_param(IS_RCC_HSE(RCC_OscInitStruct->HSEState));
 80039ca:	6863      	ldr	r3, [r4, #4]
 80039cc:	f433 3280 	bics.w	r2, r3, #65536	; 0x10000
 80039d0:	d003      	beq.n	80039da <HAL_RCC_OscConfig+0x2a>
 80039d2:	f5b3 2fa0 	cmp.w	r3, #327680	; 0x50000
 80039d6:	f040 81a4 	bne.w	8003d22 <HAL_RCC_OscConfig+0x372>
    /* When the HSE is used as system clock or clock source for PLL in these cases HSE will not disabled */
    if((__HAL_RCC_GET_SYSCLK_SOURCE() == RCC_CFGR_SWS_HSE) ||\
 80039da:	4ab6      	ldr	r2, [pc, #728]	; (8003cb4 <HAL_RCC_OscConfig+0x304>)
 80039dc:	6893      	ldr	r3, [r2, #8]
 80039de:	f003 030c 	and.w	r3, r3, #12
 80039e2:	2b04      	cmp	r3, #4
 80039e4:	f000 8180 	beq.w	8003ce8 <HAL_RCC_OscConfig+0x338>
      ((__HAL_RCC_GET_SYSCLK_SOURCE() == RCC_CFGR_SWS_PLL) && ((RCC->PLLCFGR & RCC_PLLCFGR_PLLSRC) == RCC_PLLCFGR_PLLSRC_HSE)))
 80039e8:	6893      	ldr	r3, [r2, #8]
 80039ea:	f003 030c 	and.w	r3, r3, #12
    if((__HAL_RCC_GET_SYSCLK_SOURCE() == RCC_CFGR_SWS_HSE) ||\
 80039ee:	2b08      	cmp	r3, #8
 80039f0:	f000 8176 	beq.w	8003ce0 <HAL_RCC_OscConfig+0x330>
      }
    }
    else
    {
      /* Set the new HSE configuration ---------------------------------------*/
      __HAL_RCC_HSE_CONFIG(RCC_OscInitStruct->HSEState);
 80039f4:	6863      	ldr	r3, [r4, #4]
 80039f6:	f5b3 3f80 	cmp.w	r3, #65536	; 0x10000
 80039fa:	f000 817f 	beq.w	8003cfc <HAL_RCC_OscConfig+0x34c>
 80039fe:	f5b3 2fa0 	cmp.w	r3, #327680	; 0x50000
 8003a02:	f000 8207 	beq.w	8003e14 <HAL_RCC_OscConfig+0x464>
 8003a06:	4dab      	ldr	r5, [pc, #684]	; (8003cb4 <HAL_RCC_OscConfig+0x304>)
 8003a08:	682a      	ldr	r2, [r5, #0]
 8003a0a:	f422 3280 	bic.w	r2, r2, #65536	; 0x10000
 8003a0e:	602a      	str	r2, [r5, #0]
 8003a10:	682a      	ldr	r2, [r5, #0]
 8003a12:	f422 2280 	bic.w	r2, r2, #262144	; 0x40000
 8003a16:	602a      	str	r2, [r5, #0]

      /* Check the HSE State */
      if((RCC_OscInitStruct->HSEState) != RCC_HSE_OFF)
 8003a18:	2b00      	cmp	r3, #0
 8003a1a:	f040 8174 	bne.w	8003d06 <HAL_RCC_OscConfig+0x356>
        }
      }
      else
      {
        /* Get Start Tick */
        tickstart = HAL_GetTick();
 8003a1e:	f7fe f82d 	bl	8001a7c <HAL_GetTick>
 8003a22:	4606      	mov	r6, r0

        /* Wait till HSE is bypassed or disabled */
        while(__HAL_RCC_GET_FLAG(RCC_FLAG_HSERDY) != RESET)
 8003a24:	e005      	b.n	8003a32 <HAL_RCC_OscConfig+0x82>
        {
          if((HAL_GetTick() - tickstart ) > HSE_TIMEOUT_VALUE)
 8003a26:	f7fe f829 	bl	8001a7c <HAL_GetTick>
 8003a2a:	1b80      	subs	r0, r0, r6
 8003a2c:	2864      	cmp	r0, #100	; 0x64
 8003a2e:	f200 819a 	bhi.w	8003d66 <HAL_RCC_OscConfig+0x3b6>
        while(__HAL_RCC_GET_FLAG(RCC_FLAG_HSERDY) != RESET)
 8003a32:	682b      	ldr	r3, [r5, #0]
 8003a34:	039b      	lsls	r3, r3, #14
 8003a36:	d4f6      	bmi.n	8003a26 <HAL_RCC_OscConfig+0x76>
 8003a38:	6823      	ldr	r3, [r4, #0]
        }
      }
    }
  }
  /*----------------------------- HSI Configuration --------------------------*/
  if(((RCC_OscInitStruct->OscillatorType) & RCC_OSCILLATORTYPE_HSI) == RCC_OSCILLATORTYPE_HSI)
 8003a3a:	079f      	lsls	r7, r3, #30
 8003a3c:	d530      	bpl.n	8003aa0 <HAL_RCC_OscConfig+0xf0>
  {
    /* Check the parameters */
    assert_param(IS_RCC_HSI(RCC_OscInitStruct->HSIState));
 8003a3e:	68e3      	ldr	r3, [r4, #12]
 8003a40:	2b01      	cmp	r3, #1
 8003a42:	f200 810c 	bhi.w	8003c5e <HAL_RCC_OscConfig+0x2ae>
    assert_param(IS_RCC_CALIBRATION_VALUE(RCC_OscInitStruct->HSICalibrationValue));
 8003a46:	6923      	ldr	r3, [r4, #16]
 8003a48:	2b1f      	cmp	r3, #31
 8003a4a:	f200 8111 	bhi.w	8003c70 <HAL_RCC_OscConfig+0x2c0>

    /* Check if HSI is used as system clock or as PLL source when PLL is selected as system clock */
    if((__HAL_RCC_GET_SYSCLK_SOURCE() == RCC_CFGR_SWS_HSI) ||\
 8003a4e:	4b99      	ldr	r3, [pc, #612]	; (8003cb4 <HAL_RCC_OscConfig+0x304>)
 8003a50:	689a      	ldr	r2, [r3, #8]
 8003a52:	f012 0f0c 	tst.w	r2, #12
 8003a56:	f000 80f7 	beq.w	8003c48 <HAL_RCC_OscConfig+0x298>
      ((__HAL_RCC_GET_SYSCLK_SOURCE() == RCC_CFGR_SWS_PLL) && ((RCC->PLLCFGR & RCC_PLLCFGR_PLLSRC) == RCC_PLLCFGR_PLLSRC_HSI)))
 8003a5a:	689a      	ldr	r2, [r3, #8]
 8003a5c:	f002 020c 	and.w	r2, r2, #12
    if((__HAL_RCC_GET_SYSCLK_SOURCE() == RCC_CFGR_SWS_HSI) ||\
 8003a60:	2a08      	cmp	r2, #8
 8003a62:	f000 80ed 	beq.w	8003c40 <HAL_RCC_OscConfig+0x290>
      }
    }
    else
    {
      /* Check the HSI State */
      if((RCC_OscInitStruct->HSIState)!= RCC_HSI_OFF)
 8003a66:	68e3      	ldr	r3, [r4, #12]
 8003a68:	2b00      	cmp	r3, #0
 8003a6a:	f000 8198 	beq.w	8003d9e <HAL_RCC_OscConfig+0x3ee>
      {
        /* Enable the Internal High Speed oscillator (HSI). */
        __HAL_RCC_HSI_ENABLE();
 8003a6e:	4b92      	ldr	r3, [pc, #584]	; (8003cb8 <HAL_RCC_OscConfig+0x308>)

        /* Get Start Tick*/
        tickstart = HAL_GetTick();

        /* Wait till HSI is ready */
        while(__HAL_RCC_GET_FLAG(RCC_FLAG_HSIRDY) == RESET)
 8003a70:	4e90      	ldr	r6, [pc, #576]	; (8003cb4 <HAL_RCC_OscConfig+0x304>)
        __HAL_RCC_HSI_ENABLE();
 8003a72:	2201      	movs	r2, #1
 8003a74:	601a      	str	r2, [r3, #0]
        tickstart = HAL_GetTick();
 8003a76:	f7fe f801 	bl	8001a7c <HAL_GetTick>
 8003a7a:	4605      	mov	r5, r0
        while(__HAL_RCC_GET_FLAG(RCC_FLAG_HSIRDY) == RESET)
 8003a7c:	e005      	b.n	8003a8a <HAL_RCC_OscConfig+0xda>
        {
          if((HAL_GetTick() - tickstart ) > HSI_TIMEOUT_VALUE)
 8003a7e:	f7fd fffd 	bl	8001a7c <HAL_GetTick>
 8003a82:	1b40      	subs	r0, r0, r5
 8003a84:	2802      	cmp	r0, #2
 8003a86:	f200 816e 	bhi.w	8003d66 <HAL_RCC_OscConfig+0x3b6>
        while(__HAL_RCC_GET_FLAG(RCC_FLAG_HSIRDY) == RESET)
 8003a8a:	6833      	ldr	r3, [r6, #0]
 8003a8c:	0798      	lsls	r0, r3, #30
 8003a8e:	d5f6      	bpl.n	8003a7e <HAL_RCC_OscConfig+0xce>
            return HAL_TIMEOUT;
          }
        }

        /* Adjusts the Internal High Speed oscillator (HSI) calibration value. */
        __HAL_RCC_HSI_CALIBRATIONVALUE_ADJUST(RCC_OscInitStruct->HSICalibrationValue);
 8003a90:	6833      	ldr	r3, [r6, #0]
 8003a92:	6922      	ldr	r2, [r4, #16]
 8003a94:	f023 03f8 	bic.w	r3, r3, #248	; 0xf8
 8003a98:	ea43 03c2 	orr.w	r3, r3, r2, lsl #3
 8003a9c:	6033      	str	r3, [r6, #0]
 8003a9e:	6823      	ldr	r3, [r4, #0]
        }
      }
    }
  }
  /*------------------------------ LSI Configuration -------------------------*/
  if(((RCC_OscInitStruct->OscillatorType) & RCC_OSCILLATORTYPE_LSI) == RCC_OSCILLATORTYPE_LSI)
 8003aa0:	071a      	lsls	r2, r3, #28
 8003aa2:	f100 80af 	bmi.w	8003c04 <HAL_RCC_OscConfig+0x254>
        }
      }
    }
  }
  /*------------------------------ LSE Configuration -------------------------*/
  if(((RCC_OscInitStruct->OscillatorType) & RCC_OSCILLATORTYPE_LSE) == RCC_OSCILLATORTYPE_LSE)
 8003aa6:	075d      	lsls	r5, r3, #29
 8003aa8:	d544      	bpl.n	8003b34 <HAL_RCC_OscConfig+0x184>
  {
    FlagStatus       pwrclkchanged = RESET;

    /* Check the parameters */
    assert_param(IS_RCC_LSE(RCC_OscInitStruct->LSEState));
 8003aaa:	68a3      	ldr	r3, [r4, #8]
 8003aac:	2b01      	cmp	r3, #1
 8003aae:	d906      	bls.n	8003abe <HAL_RCC_OscConfig+0x10e>
 8003ab0:	2b05      	cmp	r3, #5
 8003ab2:	d004      	beq.n	8003abe <HAL_RCC_OscConfig+0x10e>
 8003ab4:	4881      	ldr	r0, [pc, #516]	; (8003cbc <HAL_RCC_OscConfig+0x30c>)
 8003ab6:	f44f 71c6 	mov.w	r1, #396	; 0x18c
 8003aba:	f7fd fdef 	bl	800169c <assert_failed>

    /* Update LSE configuration in Backup Domain control register    */
    /* Requires to enable write access to Backup Domain of necessary */
    if(__HAL_RCC_PWR_IS_CLK_DISABLED())
 8003abe:	4a7d      	ldr	r2, [pc, #500]	; (8003cb4 <HAL_RCC_OscConfig+0x304>)
 8003ac0:	6c13      	ldr	r3, [r2, #64]	; 0x40
 8003ac2:	f013 5380 	ands.w	r3, r3, #268435456	; 0x10000000
 8003ac6:	f040 80f2 	bne.w	8003cae <HAL_RCC_OscConfig+0x2fe>
    {
      __HAL_RCC_PWR_CLK_ENABLE();
 8003aca:	9301      	str	r3, [sp, #4]
 8003acc:	6c13      	ldr	r3, [r2, #64]	; 0x40
 8003ace:	f043 5380 	orr.w	r3, r3, #268435456	; 0x10000000
 8003ad2:	6413      	str	r3, [r2, #64]	; 0x40
 8003ad4:	6c13      	ldr	r3, [r2, #64]	; 0x40
 8003ad6:	f003 5380 	and.w	r3, r3, #268435456	; 0x10000000
 8003ada:	9301      	str	r3, [sp, #4]
 8003adc:	9b01      	ldr	r3, [sp, #4]
      pwrclkchanged = SET;
 8003ade:	2501      	movs	r5, #1
    }

    if(HAL_IS_BIT_CLR(PWR->CR, PWR_CR_DBP))
 8003ae0:	4e77      	ldr	r6, [pc, #476]	; (8003cc0 <HAL_RCC_OscConfig+0x310>)
 8003ae2:	6833      	ldr	r3, [r6, #0]
 8003ae4:	05d8      	lsls	r0, r3, #23
 8003ae6:	f140 812e 	bpl.w	8003d46 <HAL_RCC_OscConfig+0x396>
        }
      }
    }

    /* Set the new LSE configuration -----------------------------------------*/
    __HAL_RCC_LSE_CONFIG(RCC_OscInitStruct->LSEState);
 8003aea:	68a3      	ldr	r3, [r4, #8]
 8003aec:	2b01      	cmp	r3, #1
 8003aee:	f000 813e 	beq.w	8003d6e <HAL_RCC_OscConfig+0x3be>
 8003af2:	2b05      	cmp	r3, #5
 8003af4:	f000 81c4 	beq.w	8003e80 <HAL_RCC_OscConfig+0x4d0>
 8003af8:	4e6e      	ldr	r6, [pc, #440]	; (8003cb4 <HAL_RCC_OscConfig+0x304>)
 8003afa:	6f32      	ldr	r2, [r6, #112]	; 0x70
 8003afc:	f022 0201 	bic.w	r2, r2, #1
 8003b00:	6732      	str	r2, [r6, #112]	; 0x70
 8003b02:	6f32      	ldr	r2, [r6, #112]	; 0x70
 8003b04:	f022 0204 	bic.w	r2, r2, #4
 8003b08:	6732      	str	r2, [r6, #112]	; 0x70
    /* Check the LSE State */
    if((RCC_OscInitStruct->LSEState) != RCC_LSE_OFF)
 8003b0a:	2b00      	cmp	r3, #0
 8003b0c:	f040 8134 	bne.w	8003d78 <HAL_RCC_OscConfig+0x3c8>
      }
    }
    else
    {
      /* Get Start Tick */
      tickstart = HAL_GetTick();
 8003b10:	f7fd ffb4 	bl	8001a7c <HAL_GetTick>

      /* Wait till LSE is ready */
      while(__HAL_RCC_GET_FLAG(RCC_FLAG_LSERDY) != RESET)
      {
        if((HAL_GetTick() - tickstart ) > RCC_LSE_TIMEOUT_VALUE)
 8003b14:	f241 3888 	movw	r8, #5000	; 0x1388
      tickstart = HAL_GetTick();
 8003b18:	4607      	mov	r7, r0
      while(__HAL_RCC_GET_FLAG(RCC_FLAG_LSERDY) != RESET)
 8003b1a:	e005      	b.n	8003b28 <HAL_RCC_OscConfig+0x178>
        if((HAL_GetTick() - tickstart ) > RCC_LSE_TIMEOUT_VALUE)
 8003b1c:	f7fd ffae 	bl	8001a7c <HAL_GetTick>
 8003b20:	1bc0      	subs	r0, r0, r7
 8003b22:	4540      	cmp	r0, r8
 8003b24:	f200 811f 	bhi.w	8003d66 <HAL_RCC_OscConfig+0x3b6>
      while(__HAL_RCC_GET_FLAG(RCC_FLAG_LSERDY) != RESET)
 8003b28:	6f33      	ldr	r3, [r6, #112]	; 0x70
 8003b2a:	079b      	lsls	r3, r3, #30
 8003b2c:	d4f6      	bmi.n	8003b1c <HAL_RCC_OscConfig+0x16c>
        }
      }
    }

    /* Restore clock configuration if changed */
    if(pwrclkchanged == SET)
 8003b2e:	2d00      	cmp	r5, #0
 8003b30:	f040 817a 	bne.w	8003e28 <HAL_RCC_OscConfig+0x478>
      __HAL_RCC_PWR_CLK_DISABLE();
    }
  }
  /*-------------------------------- PLL Configuration -----------------------*/
  /* Check the parameters */
  assert_param(IS_RCC_PLL(RCC_OscInitStruct->PLL.PLLState));
 8003b34:	69a0      	ldr	r0, [r4, #24]
 8003b36:	2802      	cmp	r0, #2
 8003b38:	f200 80c8 	bhi.w	8003ccc <HAL_RCC_OscConfig+0x31c>
  if ((RCC_OscInitStruct->PLL.PLLState) != RCC_PLL_NONE)
 8003b3c:	2800      	cmp	r0, #0
 8003b3e:	d05d      	beq.n	8003bfc <HAL_RCC_OscConfig+0x24c>
  {
    /* Check if the PLL is used as system clock or not */
    if(__HAL_RCC_GET_SYSCLK_SOURCE() != RCC_CFGR_SWS_PLL)
 8003b40:	4d5c      	ldr	r5, [pc, #368]	; (8003cb4 <HAL_RCC_OscConfig+0x304>)
 8003b42:	68ab      	ldr	r3, [r5, #8]
 8003b44:	f003 030c 	and.w	r3, r3, #12
 8003b48:	2b08      	cmp	r3, #8
 8003b4a:	f000 8139 	beq.w	8003dc0 <HAL_RCC_OscConfig+0x410>
    {
      if((RCC_OscInitStruct->PLL.PLLState) == RCC_PLL_ON)
 8003b4e:	2802      	cmp	r0, #2
 8003b50:	f040 8182 	bne.w	8003e58 <HAL_RCC_OscConfig+0x4a8>
      {
        /* Check the parameters */
        assert_param(IS_RCC_PLLSOURCE(RCC_OscInitStruct->PLL.PLLSource));
 8003b54:	69e3      	ldr	r3, [r4, #28]
 8003b56:	f433 0380 	bics.w	r3, r3, #4194304	; 0x400000
 8003b5a:	d004      	beq.n	8003b66 <HAL_RCC_OscConfig+0x1b6>
 8003b5c:	4857      	ldr	r0, [pc, #348]	; (8003cbc <HAL_RCC_OscConfig+0x30c>)
 8003b5e:	f44f 71ec 	mov.w	r1, #472	; 0x1d8
 8003b62:	f7fd fd9b 	bl	800169c <assert_failed>
        assert_param(IS_RCC_PLLM_VALUE(RCC_OscInitStruct->PLL.PLLM));
 8003b66:	6a23      	ldr	r3, [r4, #32]
 8003b68:	2b3f      	cmp	r3, #63	; 0x3f
 8003b6a:	f200 816f 	bhi.w	8003e4c <HAL_RCC_OscConfig+0x49c>
        assert_param(IS_RCC_PLLN_VALUE(RCC_OscInitStruct->PLL.PLLN));
 8003b6e:	6a63      	ldr	r3, [r4, #36]	; 0x24
 8003b70:	3b32      	subs	r3, #50	; 0x32
 8003b72:	f5b3 7fbf 	cmp.w	r3, #382	; 0x17e
 8003b76:	f200 8163 	bhi.w	8003e40 <HAL_RCC_OscConfig+0x490>
        assert_param(IS_RCC_PLLP_VALUE(RCC_OscInitStruct->PLL.PLLP));
 8003b7a:	6aa3      	ldr	r3, [r4, #40]	; 0x28
 8003b7c:	2b08      	cmp	r3, #8
 8003b7e:	f200 8159 	bhi.w	8003e34 <HAL_RCC_OscConfig+0x484>
 8003b82:	f44f 72aa 	mov.w	r2, #340	; 0x154
 8003b86:	fa22 f303 	lsr.w	r3, r2, r3
 8003b8a:	07d8      	lsls	r0, r3, #31
 8003b8c:	f140 8152 	bpl.w	8003e34 <HAL_RCC_OscConfig+0x484>
        assert_param(IS_RCC_PLLQ_VALUE(RCC_OscInitStruct->PLL.PLLQ));
 8003b90:	6ae3      	ldr	r3, [r4, #44]	; 0x2c
 8003b92:	3b02      	subs	r3, #2
 8003b94:	2b0d      	cmp	r3, #13
 8003b96:	f200 817d 	bhi.w	8003e94 <HAL_RCC_OscConfig+0x4e4>

        /* Disable the main PLL. */
        __HAL_RCC_PLL_DISABLE();
 8003b9a:	4b4a      	ldr	r3, [pc, #296]	; (8003cc4 <HAL_RCC_OscConfig+0x314>)

        /* Get Start Tick */
        tickstart = HAL_GetTick();

        /* Wait till PLL is ready */
        while(__HAL_RCC_GET_FLAG(RCC_FLAG_PLLRDY) != RESET)
 8003b9c:	4e45      	ldr	r6, [pc, #276]	; (8003cb4 <HAL_RCC_OscConfig+0x304>)
        __HAL_RCC_PLL_DISABLE();
 8003b9e:	2200      	movs	r2, #0
 8003ba0:	601a      	str	r2, [r3, #0]
        tickstart = HAL_GetTick();
 8003ba2:	f7fd ff6b 	bl	8001a7c <HAL_GetTick>
 8003ba6:	4605      	mov	r5, r0
        while(__HAL_RCC_GET_FLAG(RCC_FLAG_PLLRDY) != RESET)
 8003ba8:	e005      	b.n	8003bb6 <HAL_RCC_OscConfig+0x206>
        {
          if((HAL_GetTick() - tickstart ) > PLL_TIMEOUT_VALUE)
 8003baa:	f7fd ff67 	bl	8001a7c <HAL_GetTick>
 8003bae:	1b40      	subs	r0, r0, r5
 8003bb0:	2802      	cmp	r0, #2
 8003bb2:	f200 80d8 	bhi.w	8003d66 <HAL_RCC_OscConfig+0x3b6>
        while(__HAL_RCC_GET_FLAG(RCC_FLAG_PLLRDY) != RESET)
 8003bb6:	6833      	ldr	r3, [r6, #0]
 8003bb8:	0199      	lsls	r1, r3, #6
 8003bba:	d4f6      	bmi.n	8003baa <HAL_RCC_OscConfig+0x1fa>
            return HAL_TIMEOUT;
          }
        }

        /* Configure the main PLL clock source, multiplication and division factors. */
        WRITE_REG(RCC->PLLCFGR, (RCC_OscInitStruct->PLL.PLLSource                                            | \
 8003bbc:	e9d4 3507 	ldrd	r3, r5, [r4, #28]
 8003bc0:	e9d4 0209 	ldrd	r0, r2, [r4, #36]	; 0x24
 8003bc4:	6ae1      	ldr	r1, [r4, #44]	; 0x2c
 8003bc6:	432b      	orrs	r3, r5
 8003bc8:	ea43 1380 	orr.w	r3, r3, r0, lsl #6
 8003bcc:	0852      	lsrs	r2, r2, #1
 8003bce:	ea43 6301 	orr.w	r3, r3, r1, lsl #24
 8003bd2:	3a01      	subs	r2, #1
                                 RCC_OscInitStruct->PLL.PLLM                                                 | \
                                 (RCC_OscInitStruct->PLL.PLLN << RCC_PLLCFGR_PLLN_Pos)             | \
                                 (((RCC_OscInitStruct->PLL.PLLP >> 1U) - 1U) << RCC_PLLCFGR_PLLP_Pos) | \
                                 (RCC_OscInitStruct->PLL.PLLQ << RCC_PLLCFGR_PLLQ_Pos)));
        /* Enable the main PLL. */
        __HAL_RCC_PLL_ENABLE();
 8003bd4:	493b      	ldr	r1, [pc, #236]	; (8003cc4 <HAL_RCC_OscConfig+0x314>)

        /* Get Start Tick */
        tickstart = HAL_GetTick();

        /* Wait till PLL is ready */
        while(__HAL_RCC_GET_FLAG(RCC_FLAG_PLLRDY) == RESET)
 8003bd6:	4d37      	ldr	r5, [pc, #220]	; (8003cb4 <HAL_RCC_OscConfig+0x304>)
        WRITE_REG(RCC->PLLCFGR, (RCC_OscInitStruct->PLL.PLLSource                                            | \
 8003bd8:	ea43 4302 	orr.w	r3, r3, r2, lsl #16
        __HAL_RCC_PLL_ENABLE();
 8003bdc:	2201      	movs	r2, #1
        WRITE_REG(RCC->PLLCFGR, (RCC_OscInitStruct->PLL.PLLSource                                            | \
 8003bde:	6073      	str	r3, [r6, #4]
        __HAL_RCC_PLL_ENABLE();
 8003be0:	600a      	str	r2, [r1, #0]
        tickstart = HAL_GetTick();
 8003be2:	f7fd ff4b 	bl	8001a7c <HAL_GetTick>
 8003be6:	4604      	mov	r4, r0
        while(__HAL_RCC_GET_FLAG(RCC_FLAG_PLLRDY) == RESET)
 8003be8:	e005      	b.n	8003bf6 <HAL_RCC_OscConfig+0x246>
        {
          if((HAL_GetTick() - tickstart ) > PLL_TIMEOUT_VALUE)
 8003bea:	f7fd ff47 	bl	8001a7c <HAL_GetTick>
 8003bee:	1b00      	subs	r0, r0, r4
 8003bf0:	2802      	cmp	r0, #2
 8003bf2:	f200 80b8 	bhi.w	8003d66 <HAL_RCC_OscConfig+0x3b6>
        while(__HAL_RCC_GET_FLAG(RCC_FLAG_PLLRDY) == RESET)
 8003bf6:	682b      	ldr	r3, [r5, #0]
 8003bf8:	019a      	lsls	r2, r3, #6
 8003bfa:	d5f6      	bpl.n	8003bea <HAL_RCC_OscConfig+0x23a>
          return HAL_ERROR;
        }
      }
    }
  }
  return HAL_OK;
 8003bfc:	2000      	movs	r0, #0
}
 8003bfe:	b002      	add	sp, #8
 8003c00:	e8bd 81f0 	ldmia.w	sp!, {r4, r5, r6, r7, r8, pc}
    assert_param(IS_RCC_LSI(RCC_OscInitStruct->LSIState));
 8003c04:	6963      	ldr	r3, [r4, #20]
 8003c06:	2b01      	cmp	r3, #1
 8003c08:	d848      	bhi.n	8003c9c <HAL_RCC_OscConfig+0x2ec>
    if((RCC_OscInitStruct->LSIState)!= RCC_LSI_OFF)
 8003c0a:	2b00      	cmp	r3, #0
 8003c0c:	d036      	beq.n	8003c7c <HAL_RCC_OscConfig+0x2cc>
      __HAL_RCC_LSI_ENABLE();
 8003c0e:	4b2e      	ldr	r3, [pc, #184]	; (8003cc8 <HAL_RCC_OscConfig+0x318>)
      while(__HAL_RCC_GET_FLAG(RCC_FLAG_LSIRDY) == RESET)
 8003c10:	4e28      	ldr	r6, [pc, #160]	; (8003cb4 <HAL_RCC_OscConfig+0x304>)
      __HAL_RCC_LSI_ENABLE();
 8003c12:	2201      	movs	r2, #1
 8003c14:	601a      	str	r2, [r3, #0]
      tickstart = HAL_GetTick();
 8003c16:	f7fd ff31 	bl	8001a7c <HAL_GetTick>
 8003c1a:	4605      	mov	r5, r0
      while(__HAL_RCC_GET_FLAG(RCC_FLAG_LSIRDY) == RESET)
 8003c1c:	e005      	b.n	8003c2a <HAL_RCC_OscConfig+0x27a>
        if((HAL_GetTick() - tickstart ) > LSI_TIMEOUT_VALUE)
 8003c1e:	f7fd ff2d 	bl	8001a7c <HAL_GetTick>
 8003c22:	1b40      	subs	r0, r0, r5
 8003c24:	2802      	cmp	r0, #2
 8003c26:	f200 809e 	bhi.w	8003d66 <HAL_RCC_OscConfig+0x3b6>
      while(__HAL_RCC_GET_FLAG(RCC_FLAG_LSIRDY) == RESET)
 8003c2a:	6f73      	ldr	r3, [r6, #116]	; 0x74
 8003c2c:	079b      	lsls	r3, r3, #30
 8003c2e:	d5f6      	bpl.n	8003c1e <HAL_RCC_OscConfig+0x26e>
 8003c30:	6823      	ldr	r3, [r4, #0]
 8003c32:	e738      	b.n	8003aa6 <HAL_RCC_OscConfig+0xf6>
  assert_param(IS_RCC_OSCILLATORTYPE(RCC_OscInitStruct->OscillatorType));
 8003c34:	4821      	ldr	r0, [pc, #132]	; (8003cbc <HAL_RCC_OscConfig+0x30c>)
 8003c36:	21e8      	movs	r1, #232	; 0xe8
 8003c38:	f7fd fd30 	bl	800169c <assert_failed>
 8003c3c:	6823      	ldr	r3, [r4, #0]
 8003c3e:	e6c2      	b.n	80039c6 <HAL_RCC_OscConfig+0x16>
      ((__HAL_RCC_GET_SYSCLK_SOURCE() == RCC_CFGR_SWS_PLL) && ((RCC->PLLCFGR & RCC_PLLCFGR_PLLSRC) == RCC_PLLCFGR_PLLSRC_HSI)))
 8003c40:	685b      	ldr	r3, [r3, #4]
 8003c42:	025e      	lsls	r6, r3, #9
 8003c44:	f53f af0f 	bmi.w	8003a66 <HAL_RCC_OscConfig+0xb6>
      if((__HAL_RCC_GET_FLAG(RCC_FLAG_HSIRDY) != RESET) && (RCC_OscInitStruct->HSIState != RCC_HSI_ON))
 8003c48:	4b1a      	ldr	r3, [pc, #104]	; (8003cb4 <HAL_RCC_OscConfig+0x304>)
 8003c4a:	681b      	ldr	r3, [r3, #0]
 8003c4c:	079d      	lsls	r5, r3, #30
 8003c4e:	d56d      	bpl.n	8003d2c <HAL_RCC_OscConfig+0x37c>
 8003c50:	68e3      	ldr	r3, [r4, #12]
 8003c52:	2b01      	cmp	r3, #1
 8003c54:	d06a      	beq.n	8003d2c <HAL_RCC_OscConfig+0x37c>
        return HAL_ERROR;
 8003c56:	2001      	movs	r0, #1
}
 8003c58:	b002      	add	sp, #8
 8003c5a:	e8bd 81f0 	ldmia.w	sp!, {r4, r5, r6, r7, r8, pc}
    assert_param(IS_RCC_HSI(RCC_OscInitStruct->HSIState));
 8003c5e:	4817      	ldr	r0, [pc, #92]	; (8003cbc <HAL_RCC_OscConfig+0x30c>)
 8003c60:	f240 111f 	movw	r1, #287	; 0x11f
 8003c64:	f7fd fd1a 	bl	800169c <assert_failed>
    assert_param(IS_RCC_CALIBRATION_VALUE(RCC_OscInitStruct->HSICalibrationValue));
 8003c68:	6923      	ldr	r3, [r4, #16]
 8003c6a:	2b1f      	cmp	r3, #31
 8003c6c:	f67f aeef 	bls.w	8003a4e <HAL_RCC_OscConfig+0x9e>
 8003c70:	4812      	ldr	r0, [pc, #72]	; (8003cbc <HAL_RCC_OscConfig+0x30c>)
 8003c72:	f44f 7190 	mov.w	r1, #288	; 0x120
 8003c76:	f7fd fd11 	bl	800169c <assert_failed>
 8003c7a:	e6e8      	b.n	8003a4e <HAL_RCC_OscConfig+0x9e>
      __HAL_RCC_LSI_DISABLE();
 8003c7c:	4a12      	ldr	r2, [pc, #72]	; (8003cc8 <HAL_RCC_OscConfig+0x318>)
      while(__HAL_RCC_GET_FLAG(RCC_FLAG_LSIRDY) != RESET)
 8003c7e:	4e0d      	ldr	r6, [pc, #52]	; (8003cb4 <HAL_RCC_OscConfig+0x304>)
      __HAL_RCC_LSI_DISABLE();
 8003c80:	6013      	str	r3, [r2, #0]
      tickstart = HAL_GetTick();
 8003c82:	f7fd fefb 	bl	8001a7c <HAL_GetTick>
 8003c86:	4605      	mov	r5, r0
      while(__HAL_RCC_GET_FLAG(RCC_FLAG_LSIRDY) != RESET)
 8003c88:	e004      	b.n	8003c94 <HAL_RCC_OscConfig+0x2e4>
        if((HAL_GetTick() - tickstart ) > LSI_TIMEOUT_VALUE)
 8003c8a:	f7fd fef7 	bl	8001a7c <HAL_GetTick>
 8003c8e:	1b40      	subs	r0, r0, r5
 8003c90:	2802      	cmp	r0, #2
 8003c92:	d868      	bhi.n	8003d66 <HAL_RCC_OscConfig+0x3b6>
      while(__HAL_RCC_GET_FLAG(RCC_FLAG_LSIRDY) != RESET)
 8003c94:	6f73      	ldr	r3, [r6, #116]	; 0x74
 8003c96:	079f      	lsls	r7, r3, #30
 8003c98:	d4f7      	bmi.n	8003c8a <HAL_RCC_OscConfig+0x2da>
 8003c9a:	e7c9      	b.n	8003c30 <HAL_RCC_OscConfig+0x280>
    assert_param(IS_RCC_LSI(RCC_OscInitStruct->LSIState));
 8003c9c:	4807      	ldr	r0, [pc, #28]	; (8003cbc <HAL_RCC_OscConfig+0x30c>)
 8003c9e:	f44f 71b0 	mov.w	r1, #352	; 0x160
 8003ca2:	f7fd fcfb 	bl	800169c <assert_failed>
 8003ca6:	6963      	ldr	r3, [r4, #20]
    if((RCC_OscInitStruct->LSIState)!= RCC_LSI_OFF)
 8003ca8:	2b00      	cmp	r3, #0
 8003caa:	d0e7      	beq.n	8003c7c <HAL_RCC_OscConfig+0x2cc>
 8003cac:	e7af      	b.n	8003c0e <HAL_RCC_OscConfig+0x25e>
    FlagStatus       pwrclkchanged = RESET;
 8003cae:	2500      	movs	r5, #0
 8003cb0:	e716      	b.n	8003ae0 <HAL_RCC_OscConfig+0x130>
 8003cb2:	bf00      	nop
 8003cb4:	40023800 	.word	0x40023800
 8003cb8:	42470000 	.word	0x42470000
 8003cbc:	080096e0 	.word	0x080096e0
 8003cc0:	40007000 	.word	0x40007000
 8003cc4:	42470060 	.word	0x42470060
 8003cc8:	42470e80 	.word	0x42470e80
  assert_param(IS_RCC_PLL(RCC_OscInitStruct->PLL.PLLState));
 8003ccc:	4874      	ldr	r0, [pc, #464]	; (8003ea0 <HAL_RCC_OscConfig+0x4f0>)
 8003cce:	f240 11cf 	movw	r1, #463	; 0x1cf
 8003cd2:	f7fd fce3 	bl	800169c <assert_failed>
 8003cd6:	69a0      	ldr	r0, [r4, #24]
  if ((RCC_OscInitStruct->PLL.PLLState) != RCC_PLL_NONE)
 8003cd8:	2800      	cmp	r0, #0
 8003cda:	f47f af31 	bne.w	8003b40 <HAL_RCC_OscConfig+0x190>
 8003cde:	e78d      	b.n	8003bfc <HAL_RCC_OscConfig+0x24c>
      ((__HAL_RCC_GET_SYSCLK_SOURCE() == RCC_CFGR_SWS_PLL) && ((RCC->PLLCFGR & RCC_PLLCFGR_PLLSRC) == RCC_PLLCFGR_PLLSRC_HSE)))
 8003ce0:	6853      	ldr	r3, [r2, #4]
 8003ce2:	0258      	lsls	r0, r3, #9
 8003ce4:	f57f ae86 	bpl.w	80039f4 <HAL_RCC_OscConfig+0x44>
      if((__HAL_RCC_GET_FLAG(RCC_FLAG_HSERDY) != RESET) && (RCC_OscInitStruct->HSEState == RCC_HSE_OFF))
 8003ce8:	4b6e      	ldr	r3, [pc, #440]	; (8003ea4 <HAL_RCC_OscConfig+0x4f4>)
 8003cea:	681b      	ldr	r3, [r3, #0]
 8003cec:	0399      	lsls	r1, r3, #14
 8003cee:	f57f aea3 	bpl.w	8003a38 <HAL_RCC_OscConfig+0x88>
 8003cf2:	6863      	ldr	r3, [r4, #4]
 8003cf4:	2b00      	cmp	r3, #0
 8003cf6:	f47f ae9f 	bne.w	8003a38 <HAL_RCC_OscConfig+0x88>
 8003cfa:	e7ac      	b.n	8003c56 <HAL_RCC_OscConfig+0x2a6>
      __HAL_RCC_HSE_CONFIG(RCC_OscInitStruct->HSEState);
 8003cfc:	4a69      	ldr	r2, [pc, #420]	; (8003ea4 <HAL_RCC_OscConfig+0x4f4>)
 8003cfe:	6813      	ldr	r3, [r2, #0]
 8003d00:	f443 3380 	orr.w	r3, r3, #65536	; 0x10000
 8003d04:	6013      	str	r3, [r2, #0]
        tickstart = HAL_GetTick();
 8003d06:	f7fd feb9 	bl	8001a7c <HAL_GetTick>
        while(__HAL_RCC_GET_FLAG(RCC_FLAG_HSERDY) == RESET)
 8003d0a:	4e66      	ldr	r6, [pc, #408]	; (8003ea4 <HAL_RCC_OscConfig+0x4f4>)
        tickstart = HAL_GetTick();
 8003d0c:	4605      	mov	r5, r0
        while(__HAL_RCC_GET_FLAG(RCC_FLAG_HSERDY) == RESET)
 8003d0e:	e004      	b.n	8003d1a <HAL_RCC_OscConfig+0x36a>
          if((HAL_GetTick() - tickstart ) > HSE_TIMEOUT_VALUE)
 8003d10:	f7fd feb4 	bl	8001a7c <HAL_GetTick>
 8003d14:	1b40      	subs	r0, r0, r5
 8003d16:	2864      	cmp	r0, #100	; 0x64
 8003d18:	d825      	bhi.n	8003d66 <HAL_RCC_OscConfig+0x3b6>
        while(__HAL_RCC_GET_FLAG(RCC_FLAG_HSERDY) == RESET)
 8003d1a:	6833      	ldr	r3, [r6, #0]
 8003d1c:	039a      	lsls	r2, r3, #14
 8003d1e:	d5f7      	bpl.n	8003d10 <HAL_RCC_OscConfig+0x360>
 8003d20:	e68a      	b.n	8003a38 <HAL_RCC_OscConfig+0x88>
    assert_param(IS_RCC_HSE(RCC_OscInitStruct->HSEState));
 8003d22:	485f      	ldr	r0, [pc, #380]	; (8003ea0 <HAL_RCC_OscConfig+0x4f0>)
 8003d24:	21ed      	movs	r1, #237	; 0xed
 8003d26:	f7fd fcb9 	bl	800169c <assert_failed>
 8003d2a:	e656      	b.n	80039da <HAL_RCC_OscConfig+0x2a>
        __HAL_RCC_HSI_CALIBRATIONVALUE_ADJUST(RCC_OscInitStruct->HSICalibrationValue);
 8003d2c:	4a5d      	ldr	r2, [pc, #372]	; (8003ea4 <HAL_RCC_OscConfig+0x4f4>)
 8003d2e:	6921      	ldr	r1, [r4, #16]
 8003d30:	6813      	ldr	r3, [r2, #0]
 8003d32:	f023 03f8 	bic.w	r3, r3, #248	; 0xf8
 8003d36:	ea43 03c1 	orr.w	r3, r3, r1, lsl #3
 8003d3a:	6013      	str	r3, [r2, #0]
 8003d3c:	6823      	ldr	r3, [r4, #0]
  if(((RCC_OscInitStruct->OscillatorType) & RCC_OSCILLATORTYPE_LSI) == RCC_OSCILLATORTYPE_LSI)
 8003d3e:	071a      	lsls	r2, r3, #28
 8003d40:	f57f aeb1 	bpl.w	8003aa6 <HAL_RCC_OscConfig+0xf6>
 8003d44:	e75e      	b.n	8003c04 <HAL_RCC_OscConfig+0x254>
      SET_BIT(PWR->CR, PWR_CR_DBP);
 8003d46:	6833      	ldr	r3, [r6, #0]
 8003d48:	f443 7380 	orr.w	r3, r3, #256	; 0x100
 8003d4c:	6033      	str	r3, [r6, #0]
      tickstart = HAL_GetTick();
 8003d4e:	f7fd fe95 	bl	8001a7c <HAL_GetTick>
 8003d52:	4607      	mov	r7, r0
      while(HAL_IS_BIT_CLR(PWR->CR, PWR_CR_DBP))
 8003d54:	6833      	ldr	r3, [r6, #0]
 8003d56:	05d9      	lsls	r1, r3, #23
 8003d58:	f53f aec7 	bmi.w	8003aea <HAL_RCC_OscConfig+0x13a>
        if((HAL_GetTick() - tickstart) > RCC_DBP_TIMEOUT_VALUE)
 8003d5c:	f7fd fe8e 	bl	8001a7c <HAL_GetTick>
 8003d60:	1bc0      	subs	r0, r0, r7
 8003d62:	2802      	cmp	r0, #2
 8003d64:	d9f6      	bls.n	8003d54 <HAL_RCC_OscConfig+0x3a4>
            return HAL_TIMEOUT;
 8003d66:	2003      	movs	r0, #3
}
 8003d68:	b002      	add	sp, #8
 8003d6a:	e8bd 81f0 	ldmia.w	sp!, {r4, r5, r6, r7, r8, pc}
    __HAL_RCC_LSE_CONFIG(RCC_OscInitStruct->LSEState);
 8003d6e:	4a4d      	ldr	r2, [pc, #308]	; (8003ea4 <HAL_RCC_OscConfig+0x4f4>)
 8003d70:	6f13      	ldr	r3, [r2, #112]	; 0x70
 8003d72:	f043 0301 	orr.w	r3, r3, #1
 8003d76:	6713      	str	r3, [r2, #112]	; 0x70
      tickstart = HAL_GetTick();
 8003d78:	f7fd fe80 	bl	8001a7c <HAL_GetTick>
      while(__HAL_RCC_GET_FLAG(RCC_FLAG_LSERDY) == RESET)
 8003d7c:	4f49      	ldr	r7, [pc, #292]	; (8003ea4 <HAL_RCC_OscConfig+0x4f4>)
      tickstart = HAL_GetTick();
 8003d7e:	4606      	mov	r6, r0
        if((HAL_GetTick() - tickstart ) > RCC_LSE_TIMEOUT_VALUE)
 8003d80:	f241 3888 	movw	r8, #5000	; 0x1388
      while(__HAL_RCC_GET_FLAG(RCC_FLAG_LSERDY) == RESET)
 8003d84:	e004      	b.n	8003d90 <HAL_RCC_OscConfig+0x3e0>
        if((HAL_GetTick() - tickstart ) > RCC_LSE_TIMEOUT_VALUE)
 8003d86:	f7fd fe79 	bl	8001a7c <HAL_GetTick>
 8003d8a:	1b80      	subs	r0, r0, r6
 8003d8c:	4540      	cmp	r0, r8
 8003d8e:	d8ea      	bhi.n	8003d66 <HAL_RCC_OscConfig+0x3b6>
      while(__HAL_RCC_GET_FLAG(RCC_FLAG_LSERDY) == RESET)
 8003d90:	6f3b      	ldr	r3, [r7, #112]	; 0x70
 8003d92:	079a      	lsls	r2, r3, #30
 8003d94:	d5f7      	bpl.n	8003d86 <HAL_RCC_OscConfig+0x3d6>
    if(pwrclkchanged == SET)
 8003d96:	2d00      	cmp	r5, #0
 8003d98:	f43f aecc 	beq.w	8003b34 <HAL_RCC_OscConfig+0x184>
 8003d9c:	e044      	b.n	8003e28 <HAL_RCC_OscConfig+0x478>
        __HAL_RCC_HSI_DISABLE();
 8003d9e:	4a42      	ldr	r2, [pc, #264]	; (8003ea8 <HAL_RCC_OscConfig+0x4f8>)
        while(__HAL_RCC_GET_FLAG(RCC_FLAG_HSIRDY) != RESET)
 8003da0:	4e40      	ldr	r6, [pc, #256]	; (8003ea4 <HAL_RCC_OscConfig+0x4f4>)
        __HAL_RCC_HSI_DISABLE();
 8003da2:	6013      	str	r3, [r2, #0]
        tickstart = HAL_GetTick();
 8003da4:	f7fd fe6a 	bl	8001a7c <HAL_GetTick>
 8003da8:	4605      	mov	r5, r0
        while(__HAL_RCC_GET_FLAG(RCC_FLAG_HSIRDY) != RESET)
 8003daa:	e004      	b.n	8003db6 <HAL_RCC_OscConfig+0x406>
          if((HAL_GetTick() - tickstart ) > HSI_TIMEOUT_VALUE)
 8003dac:	f7fd fe66 	bl	8001a7c <HAL_GetTick>
 8003db0:	1b40      	subs	r0, r0, r5
 8003db2:	2802      	cmp	r0, #2
 8003db4:	d8d7      	bhi.n	8003d66 <HAL_RCC_OscConfig+0x3b6>
        while(__HAL_RCC_GET_FLAG(RCC_FLAG_HSIRDY) != RESET)
 8003db6:	6833      	ldr	r3, [r6, #0]
 8003db8:	0799      	lsls	r1, r3, #30
 8003dba:	d4f7      	bmi.n	8003dac <HAL_RCC_OscConfig+0x3fc>
 8003dbc:	6823      	ldr	r3, [r4, #0]
 8003dbe:	e66f      	b.n	8003aa0 <HAL_RCC_OscConfig+0xf0>
      if((RCC_OscInitStruct->PLL.PLLState) == RCC_PLL_OFF)
 8003dc0:	2801      	cmp	r0, #1
 8003dc2:	f43f af1c 	beq.w	8003bfe <HAL_RCC_OscConfig+0x24e>
        pll_config = RCC->PLLCFGR;
 8003dc6:	686b      	ldr	r3, [r5, #4]
        if (((RCC_OscInitStruct->PLL.PLLState) == RCC_PLL_OFF) ||
 8003dc8:	69e2      	ldr	r2, [r4, #28]
            (READ_BIT(pll_config, RCC_PLLCFGR_PLLSRC) != RCC_OscInitStruct->PLL.PLLSource) ||
 8003dca:	f403 0180 	and.w	r1, r3, #4194304	; 0x400000
        if (((RCC_OscInitStruct->PLL.PLLState) == RCC_PLL_OFF) ||
 8003dce:	4291      	cmp	r1, r2
 8003dd0:	f47f af41 	bne.w	8003c56 <HAL_RCC_OscConfig+0x2a6>
            (READ_BIT(pll_config, RCC_PLLCFGR_PLLSRC) != RCC_OscInitStruct->PLL.PLLSource) ||
 8003dd4:	6a22      	ldr	r2, [r4, #32]
            (READ_BIT(pll_config, RCC_PLLCFGR_PLLM) != (RCC_OscInitStruct->PLL.PLLM) << RCC_PLLCFGR_PLLM_Pos) ||
 8003dd6:	f003 013f 	and.w	r1, r3, #63	; 0x3f
            (READ_BIT(pll_config, RCC_PLLCFGR_PLLSRC) != RCC_OscInitStruct->PLL.PLLSource) ||
 8003dda:	4291      	cmp	r1, r2
 8003ddc:	f47f af3b 	bne.w	8003c56 <HAL_RCC_OscConfig+0x2a6>
            (READ_BIT(pll_config, RCC_PLLCFGR_PLLN) != (RCC_OscInitStruct->PLL.PLLN) << RCC_PLLCFGR_PLLN_Pos) ||
 8003de0:	6a61      	ldr	r1, [r4, #36]	; 0x24
 8003de2:	f647 72c0 	movw	r2, #32704	; 0x7fc0
 8003de6:	401a      	ands	r2, r3
            (READ_BIT(pll_config, RCC_PLLCFGR_PLLM) != (RCC_OscInitStruct->PLL.PLLM) << RCC_PLLCFGR_PLLM_Pos) ||
 8003de8:	ebb2 1f81 	cmp.w	r2, r1, lsl #6
 8003dec:	f47f af33 	bne.w	8003c56 <HAL_RCC_OscConfig+0x2a6>
            (READ_BIT(pll_config, RCC_PLLCFGR_PLLP) != (((RCC_OscInitStruct->PLL.PLLP >> 1U) - 1U)) << RCC_PLLCFGR_PLLP_Pos) ||
 8003df0:	6aa2      	ldr	r2, [r4, #40]	; 0x28
 8003df2:	0852      	lsrs	r2, r2, #1
 8003df4:	3a01      	subs	r2, #1
 8003df6:	f403 3140 	and.w	r1, r3, #196608	; 0x30000
            (READ_BIT(pll_config, RCC_PLLCFGR_PLLN) != (RCC_OscInitStruct->PLL.PLLN) << RCC_PLLCFGR_PLLN_Pos) ||
 8003dfa:	ebb1 4f02 	cmp.w	r1, r2, lsl #16
 8003dfe:	f47f af2a 	bne.w	8003c56 <HAL_RCC_OscConfig+0x2a6>
            (READ_BIT(pll_config, RCC_PLLCFGR_PLLQ) != (RCC_OscInitStruct->PLL.PLLQ << RCC_PLLCFGR_PLLQ_Pos)))
 8003e02:	6ae2      	ldr	r2, [r4, #44]	; 0x2c
 8003e04:	f003 6370 	and.w	r3, r3, #251658240	; 0xf000000
            (READ_BIT(pll_config, RCC_PLLCFGR_PLLP) != (((RCC_OscInitStruct->PLL.PLLP >> 1U) - 1U)) << RCC_PLLCFGR_PLLP_Pos) ||
 8003e08:	ebb3 6f02 	cmp.w	r3, r2, lsl #24
            return HAL_TIMEOUT;
 8003e0c:	bf14      	ite	ne
 8003e0e:	2001      	movne	r0, #1
 8003e10:	2000      	moveq	r0, #0
 8003e12:	e6f4      	b.n	8003bfe <HAL_RCC_OscConfig+0x24e>
      __HAL_RCC_HSE_CONFIG(RCC_OscInitStruct->HSEState);
 8003e14:	4b23      	ldr	r3, [pc, #140]	; (8003ea4 <HAL_RCC_OscConfig+0x4f4>)
 8003e16:	681a      	ldr	r2, [r3, #0]
 8003e18:	f442 2280 	orr.w	r2, r2, #262144	; 0x40000
 8003e1c:	601a      	str	r2, [r3, #0]
 8003e1e:	681a      	ldr	r2, [r3, #0]
 8003e20:	f442 3280 	orr.w	r2, r2, #65536	; 0x10000
 8003e24:	601a      	str	r2, [r3, #0]
      if((RCC_OscInitStruct->HSEState) != RCC_HSE_OFF)
 8003e26:	e76e      	b.n	8003d06 <HAL_RCC_OscConfig+0x356>
      __HAL_RCC_PWR_CLK_DISABLE();
 8003e28:	4a1e      	ldr	r2, [pc, #120]	; (8003ea4 <HAL_RCC_OscConfig+0x4f4>)
 8003e2a:	6c13      	ldr	r3, [r2, #64]	; 0x40
 8003e2c:	f023 5380 	bic.w	r3, r3, #268435456	; 0x10000000
 8003e30:	6413      	str	r3, [r2, #64]	; 0x40
 8003e32:	e67f      	b.n	8003b34 <HAL_RCC_OscConfig+0x184>
        assert_param(IS_RCC_PLLP_VALUE(RCC_OscInitStruct->PLL.PLLP));
 8003e34:	481a      	ldr	r0, [pc, #104]	; (8003ea0 <HAL_RCC_OscConfig+0x4f0>)
 8003e36:	f240 11db 	movw	r1, #475	; 0x1db
 8003e3a:	f7fd fc2f 	bl	800169c <assert_failed>
 8003e3e:	e6a7      	b.n	8003b90 <HAL_RCC_OscConfig+0x1e0>
        assert_param(IS_RCC_PLLN_VALUE(RCC_OscInitStruct->PLL.PLLN));
 8003e40:	4817      	ldr	r0, [pc, #92]	; (8003ea0 <HAL_RCC_OscConfig+0x4f0>)
 8003e42:	f44f 71ed 	mov.w	r1, #474	; 0x1da
 8003e46:	f7fd fc29 	bl	800169c <assert_failed>
 8003e4a:	e696      	b.n	8003b7a <HAL_RCC_OscConfig+0x1ca>
        assert_param(IS_RCC_PLLM_VALUE(RCC_OscInitStruct->PLL.PLLM));
 8003e4c:	4814      	ldr	r0, [pc, #80]	; (8003ea0 <HAL_RCC_OscConfig+0x4f0>)
 8003e4e:	f240 11d9 	movw	r1, #473	; 0x1d9
 8003e52:	f7fd fc23 	bl	800169c <assert_failed>
 8003e56:	e68a      	b.n	8003b6e <HAL_RCC_OscConfig+0x1be>
        __HAL_RCC_PLL_DISABLE();
 8003e58:	4b14      	ldr	r3, [pc, #80]	; (8003eac <HAL_RCC_OscConfig+0x4fc>)
 8003e5a:	2200      	movs	r2, #0
 8003e5c:	601a      	str	r2, [r3, #0]
        tickstart = HAL_GetTick();
 8003e5e:	f7fd fe0d 	bl	8001a7c <HAL_GetTick>
        while(__HAL_RCC_GET_FLAG(RCC_FLAG_PLLRDY) != RESET)
 8003e62:	462c      	mov	r4, r5
        tickstart = HAL_GetTick();
 8003e64:	4605      	mov	r5, r0
        while(__HAL_RCC_GET_FLAG(RCC_FLAG_PLLRDY) != RESET)
 8003e66:	e005      	b.n	8003e74 <HAL_RCC_OscConfig+0x4c4>
          if((HAL_GetTick() - tickstart ) > PLL_TIMEOUT_VALUE)
 8003e68:	f7fd fe08 	bl	8001a7c <HAL_GetTick>
 8003e6c:	1b40      	subs	r0, r0, r5
 8003e6e:	2802      	cmp	r0, #2
 8003e70:	f63f af79 	bhi.w	8003d66 <HAL_RCC_OscConfig+0x3b6>
        while(__HAL_RCC_GET_FLAG(RCC_FLAG_PLLRDY) != RESET)
 8003e74:	6823      	ldr	r3, [r4, #0]
 8003e76:	019b      	lsls	r3, r3, #6
 8003e78:	d4f6      	bmi.n	8003e68 <HAL_RCC_OscConfig+0x4b8>
 8003e7a:	e6bf      	b.n	8003bfc <HAL_RCC_OscConfig+0x24c>
    return HAL_ERROR;
 8003e7c:	2001      	movs	r0, #1
}
 8003e7e:	4770      	bx	lr
    __HAL_RCC_LSE_CONFIG(RCC_OscInitStruct->LSEState);
 8003e80:	4b08      	ldr	r3, [pc, #32]	; (8003ea4 <HAL_RCC_OscConfig+0x4f4>)
 8003e82:	6f1a      	ldr	r2, [r3, #112]	; 0x70
 8003e84:	f042 0204 	orr.w	r2, r2, #4
 8003e88:	671a      	str	r2, [r3, #112]	; 0x70
 8003e8a:	6f1a      	ldr	r2, [r3, #112]	; 0x70
 8003e8c:	f042 0201 	orr.w	r2, r2, #1
 8003e90:	671a      	str	r2, [r3, #112]	; 0x70
    if((RCC_OscInitStruct->LSEState) != RCC_LSE_OFF)
 8003e92:	e771      	b.n	8003d78 <HAL_RCC_OscConfig+0x3c8>
        assert_param(IS_RCC_PLLQ_VALUE(RCC_OscInitStruct->PLL.PLLQ));
 8003e94:	4802      	ldr	r0, [pc, #8]	; (8003ea0 <HAL_RCC_OscConfig+0x4f0>)
 8003e96:	f44f 71ee 	mov.w	r1, #476	; 0x1dc
 8003e9a:	f7fd fbff 	bl	800169c <assert_failed>
 8003e9e:	e67c      	b.n	8003b9a <HAL_RCC_OscConfig+0x1ea>
 8003ea0:	080096e0 	.word	0x080096e0
 8003ea4:	40023800 	.word	0x40023800
 8003ea8:	42470000 	.word	0x42470000
 8003eac:	42470060 	.word	0x42470060

08003eb0 <HAL_RCC_GetSysClockFreq>:
{
  uint32_t pllm = 0U, pllvco = 0U, pllp = 0U;
  uint32_t sysclockfreq = 0U;

  /* Get SYSCLK source -------------------------------------------------------*/
  switch (RCC->CFGR & RCC_CFGR_SWS)
 8003eb0:	4917      	ldr	r1, [pc, #92]	; (8003f10 <HAL_RCC_GetSysClockFreq+0x60>)
{
 8003eb2:	b508      	push	{r3, lr}
  switch (RCC->CFGR & RCC_CFGR_SWS)
 8003eb4:	688b      	ldr	r3, [r1, #8]
 8003eb6:	f003 030c 	and.w	r3, r3, #12
 8003eba:	2b04      	cmp	r3, #4
 8003ebc:	d01b      	beq.n	8003ef6 <HAL_RCC_GetSysClockFreq+0x46>
 8003ebe:	2b08      	cmp	r3, #8
 8003ec0:	d117      	bne.n	8003ef2 <HAL_RCC_GetSysClockFreq+0x42>
    }
    case RCC_CFGR_SWS_PLL:  /* PLL used as system clock  source */
    {
      /* PLL_VCO = (HSE_VALUE or HSI_VALUE / PLLM) * PLLN
      SYSCLK = PLL_VCO / PLLP */
      pllm = RCC->PLLCFGR & RCC_PLLCFGR_PLLM;
 8003ec2:	684a      	ldr	r2, [r1, #4]
      if(__HAL_RCC_GET_PLL_OSCSOURCE() != RCC_PLLSOURCE_HSI)
 8003ec4:	684b      	ldr	r3, [r1, #4]
 8003ec6:	f413 0380 	ands.w	r3, r3, #4194304	; 0x400000
      pllm = RCC->PLLCFGR & RCC_PLLCFGR_PLLM;
 8003eca:	f002 023f 	and.w	r2, r2, #63	; 0x3f
      if(__HAL_RCC_GET_PLL_OSCSOURCE() != RCC_PLLSOURCE_HSI)
 8003ece:	d114      	bne.n	8003efa <HAL_RCC_GetSysClockFreq+0x4a>
        pllvco = (uint32_t) ((((uint64_t) HSE_VALUE * ((uint64_t) ((RCC->PLLCFGR & RCC_PLLCFGR_PLLN) >> RCC_PLLCFGR_PLLN_Pos)))) / (uint64_t)pllm);
      }
      else
      {
        /* HSI used as PLL clock source */
        pllvco = (uint32_t) ((((uint64_t) HSI_VALUE * ((uint64_t) ((RCC->PLLCFGR & RCC_PLLCFGR_PLLN) >> RCC_PLLCFGR_PLLN_Pos)))) / (uint64_t)pllm);
 8003ed0:	6849      	ldr	r1, [r1, #4]
 8003ed2:	4810      	ldr	r0, [pc, #64]	; (8003f14 <HAL_RCC_GetSysClockFreq+0x64>)
 8003ed4:	f3c1 1188 	ubfx	r1, r1, #6, #9
 8003ed8:	fba1 0100 	umull	r0, r1, r1, r0
 8003edc:	f7fc f9d0 	bl	8000280 <__aeabi_uldivmod>
      }
      pllp = ((((RCC->PLLCFGR & RCC_PLLCFGR_PLLP) >> RCC_PLLCFGR_PLLP_Pos) + 1U) *2U);
 8003ee0:	4b0b      	ldr	r3, [pc, #44]	; (8003f10 <HAL_RCC_GetSysClockFreq+0x60>)
 8003ee2:	685b      	ldr	r3, [r3, #4]
 8003ee4:	f3c3 4301 	ubfx	r3, r3, #16, #2
 8003ee8:	3301      	adds	r3, #1
 8003eea:	005b      	lsls	r3, r3, #1

      sysclockfreq = pllvco/pllp;
 8003eec:	fbb0 f0f3 	udiv	r0, r0, r3
      sysclockfreq = HSI_VALUE;
      break;
    }
  }
  return sysclockfreq;
}
 8003ef0:	bd08      	pop	{r3, pc}
      sysclockfreq = HSI_VALUE;
 8003ef2:	4808      	ldr	r0, [pc, #32]	; (8003f14 <HAL_RCC_GetSysClockFreq+0x64>)
}
 8003ef4:	bd08      	pop	{r3, pc}
  switch (RCC->CFGR & RCC_CFGR_SWS)
 8003ef6:	4808      	ldr	r0, [pc, #32]	; (8003f18 <HAL_RCC_GetSysClockFreq+0x68>)
}
 8003ef8:	bd08      	pop	{r3, pc}
        pllvco = (uint32_t) ((((uint64_t) HSE_VALUE * ((uint64_t) ((RCC->PLLCFGR & RCC_PLLCFGR_PLLN) >> RCC_PLLCFGR_PLLN_Pos)))) / (uint64_t)pllm);
 8003efa:	684b      	ldr	r3, [r1, #4]
 8003efc:	4806      	ldr	r0, [pc, #24]	; (8003f18 <HAL_RCC_GetSysClockFreq+0x68>)
 8003efe:	f3c3 1388 	ubfx	r3, r3, #6, #9
 8003f02:	fba3 0100 	umull	r0, r1, r3, r0
 8003f06:	2300      	movs	r3, #0
 8003f08:	f7fc f9ba 	bl	8000280 <__aeabi_uldivmod>
 8003f0c:	e7e8      	b.n	8003ee0 <HAL_RCC_GetSysClockFreq+0x30>
 8003f0e:	bf00      	nop
 8003f10:	40023800 	.word	0x40023800
 8003f14:	00f42400 	.word	0x00f42400
 8003f18:	017d7840 	.word	0x017d7840

08003f1c <HAL_RCC_ClockConfig>:
  if(RCC_ClkInitStruct == NULL)
 8003f1c:	2800      	cmp	r0, #0
 8003f1e:	f000 80f2 	beq.w	8004106 <HAL_RCC_ClockConfig+0x1ea>
  assert_param(IS_RCC_CLOCKTYPE(RCC_ClkInitStruct->ClockType));
 8003f22:	6803      	ldr	r3, [r0, #0]
 8003f24:	3b01      	subs	r3, #1
 8003f26:	2b0e      	cmp	r3, #14
{
 8003f28:	e92d 41f0 	stmdb	sp!, {r4, r5, r6, r7, r8, lr}
 8003f2c:	460d      	mov	r5, r1
 8003f2e:	4604      	mov	r4, r0
  assert_param(IS_RCC_CLOCKTYPE(RCC_ClkInitStruct->ClockType));
 8003f30:	f200 80d0 	bhi.w	80040d4 <HAL_RCC_ClockConfig+0x1b8>
  assert_param(IS_FLASH_LATENCY(FLatency));
 8003f34:	2d07      	cmp	r5, #7
 8003f36:	f200 80c2 	bhi.w	80040be <HAL_RCC_ClockConfig+0x1a2>
  if(FLatency > __HAL_FLASH_GET_LATENCY())
 8003f3a:	4a74      	ldr	r2, [pc, #464]	; (800410c <HAL_RCC_ClockConfig+0x1f0>)
 8003f3c:	6813      	ldr	r3, [r2, #0]
 8003f3e:	f003 0307 	and.w	r3, r3, #7
 8003f42:	42ab      	cmp	r3, r5
 8003f44:	d36a      	bcc.n	800401c <HAL_RCC_ClockConfig+0x100>
  if(((RCC_ClkInitStruct->ClockType) & RCC_CLOCKTYPE_HCLK) == RCC_CLOCKTYPE_HCLK)
 8003f46:	6823      	ldr	r3, [r4, #0]
 8003f48:	0798      	lsls	r0, r3, #30
 8003f4a:	d52c      	bpl.n	8003fa6 <HAL_RCC_ClockConfig+0x8a>
    if(((RCC_ClkInitStruct->ClockType) & RCC_CLOCKTYPE_PCLK1) == RCC_CLOCKTYPE_PCLK1)
 8003f4c:	0759      	lsls	r1, r3, #29
 8003f4e:	d504      	bpl.n	8003f5a <HAL_RCC_ClockConfig+0x3e>
      MODIFY_REG(RCC->CFGR, RCC_CFGR_PPRE1, RCC_HCLK_DIV16);
 8003f50:	496f      	ldr	r1, [pc, #444]	; (8004110 <HAL_RCC_ClockConfig+0x1f4>)
 8003f52:	688a      	ldr	r2, [r1, #8]
 8003f54:	f442 52e0 	orr.w	r2, r2, #7168	; 0x1c00
 8003f58:	608a      	str	r2, [r1, #8]
    if(((RCC_ClkInitStruct->ClockType) & RCC_CLOCKTYPE_PCLK2) == RCC_CLOCKTYPE_PCLK2)
 8003f5a:	071a      	lsls	r2, r3, #28
 8003f5c:	d504      	bpl.n	8003f68 <HAL_RCC_ClockConfig+0x4c>
      MODIFY_REG(RCC->CFGR, RCC_CFGR_PPRE2, (RCC_HCLK_DIV16 << 3));
 8003f5e:	496c      	ldr	r1, [pc, #432]	; (8004110 <HAL_RCC_ClockConfig+0x1f4>)
 8003f60:	688a      	ldr	r2, [r1, #8]
 8003f62:	f442 4260 	orr.w	r2, r2, #57344	; 0xe000
 8003f66:	608a      	str	r2, [r1, #8]
    assert_param(IS_RCC_HCLK(RCC_ClkInitStruct->AHBCLKDivider));
 8003f68:	68a1      	ldr	r1, [r4, #8]
 8003f6a:	f031 0280 	bics.w	r2, r1, #128	; 0x80
 8003f6e:	d014      	beq.n	8003f9a <HAL_RCC_ClockConfig+0x7e>
 8003f70:	f021 0220 	bic.w	r2, r1, #32
 8003f74:	2a90      	cmp	r2, #144	; 0x90
 8003f76:	d010      	beq.n	8003f9a <HAL_RCC_ClockConfig+0x7e>
 8003f78:	f021 0240 	bic.w	r2, r1, #64	; 0x40
 8003f7c:	2aa0      	cmp	r2, #160	; 0xa0
 8003f7e:	d00c      	beq.n	8003f9a <HAL_RCC_ClockConfig+0x7e>
 8003f80:	f021 0210 	bic.w	r2, r1, #16
 8003f84:	2ac0      	cmp	r2, #192	; 0xc0
 8003f86:	d008      	beq.n	8003f9a <HAL_RCC_ClockConfig+0x7e>
 8003f88:	29f0      	cmp	r1, #240	; 0xf0
 8003f8a:	d006      	beq.n	8003f9a <HAL_RCC_ClockConfig+0x7e>
 8003f8c:	f44f 7120 	mov.w	r1, #640	; 0x280
 8003f90:	4860      	ldr	r0, [pc, #384]	; (8004114 <HAL_RCC_ClockConfig+0x1f8>)
 8003f92:	f7fd fb83 	bl	800169c <assert_failed>
 8003f96:	68a1      	ldr	r1, [r4, #8]
 8003f98:	6823      	ldr	r3, [r4, #0]
    MODIFY_REG(RCC->CFGR, RCC_CFGR_HPRE, RCC_ClkInitStruct->AHBCLKDivider);
 8003f9a:	485d      	ldr	r0, [pc, #372]	; (8004110 <HAL_RCC_ClockConfig+0x1f4>)
 8003f9c:	6882      	ldr	r2, [r0, #8]
 8003f9e:	f022 02f0 	bic.w	r2, r2, #240	; 0xf0
 8003fa2:	430a      	orrs	r2, r1
 8003fa4:	6082      	str	r2, [r0, #8]
  if(((RCC_ClkInitStruct->ClockType) & RCC_CLOCKTYPE_SYSCLK) == RCC_CLOCKTYPE_SYSCLK)
 8003fa6:	07df      	lsls	r7, r3, #31
 8003fa8:	d527      	bpl.n	8003ffa <HAL_RCC_ClockConfig+0xde>
    assert_param(IS_RCC_SYSCLKSOURCE(RCC_ClkInitStruct->SYSCLKSource));
 8003faa:	6863      	ldr	r3, [r4, #4]
 8003fac:	2b03      	cmp	r3, #3
 8003fae:	f200 80a1 	bhi.w	80040f4 <HAL_RCC_ClockConfig+0x1d8>
    if(RCC_ClkInitStruct->SYSCLKSource == RCC_SYSCLKSOURCE_HSE)
 8003fb2:	2b01      	cmp	r3, #1
 8003fb4:	f000 8098 	beq.w	80040e8 <HAL_RCC_ClockConfig+0x1cc>
    else if((RCC_ClkInitStruct->SYSCLKSource == RCC_SYSCLKSOURCE_PLLCLK)   ||
 8003fb8:	1e9a      	subs	r2, r3, #2
 8003fba:	2a01      	cmp	r2, #1
      if(__HAL_RCC_GET_FLAG(RCC_FLAG_PLLRDY) == RESET)
 8003fbc:	4a54      	ldr	r2, [pc, #336]	; (8004110 <HAL_RCC_ClockConfig+0x1f4>)
 8003fbe:	6812      	ldr	r2, [r2, #0]
    else if((RCC_ClkInitStruct->SYSCLKSource == RCC_SYSCLKSOURCE_PLLCLK)   ||
 8003fc0:	f240 808e 	bls.w	80040e0 <HAL_RCC_ClockConfig+0x1c4>
      if(__HAL_RCC_GET_FLAG(RCC_FLAG_HSIRDY) == RESET)
 8003fc4:	0791      	lsls	r1, r2, #30
 8003fc6:	d525      	bpl.n	8004014 <HAL_RCC_ClockConfig+0xf8>
    __HAL_RCC_SYSCLK_CONFIG(RCC_ClkInitStruct->SYSCLKSource);
 8003fc8:	4e51      	ldr	r6, [pc, #324]	; (8004110 <HAL_RCC_ClockConfig+0x1f4>)
 8003fca:	68b2      	ldr	r2, [r6, #8]
 8003fcc:	f022 0203 	bic.w	r2, r2, #3
 8003fd0:	4313      	orrs	r3, r2
 8003fd2:	60b3      	str	r3, [r6, #8]
    tickstart = HAL_GetTick();
 8003fd4:	f7fd fd52 	bl	8001a7c <HAL_GetTick>
      if ((HAL_GetTick() - tickstart) > CLOCKSWITCH_TIMEOUT_VALUE)
 8003fd8:	f241 3888 	movw	r8, #5000	; 0x1388
    tickstart = HAL_GetTick();
 8003fdc:	4607      	mov	r7, r0
    while (__HAL_RCC_GET_SYSCLK_SOURCE() != (RCC_ClkInitStruct->SYSCLKSource << RCC_CFGR_SWS_Pos))
 8003fde:	e005      	b.n	8003fec <HAL_RCC_ClockConfig+0xd0>
      if ((HAL_GetTick() - tickstart) > CLOCKSWITCH_TIMEOUT_VALUE)
 8003fe0:	f7fd fd4c 	bl	8001a7c <HAL_GetTick>
 8003fe4:	1bc0      	subs	r0, r0, r7
 8003fe6:	4540      	cmp	r0, r8
 8003fe8:	f200 808b 	bhi.w	8004102 <HAL_RCC_ClockConfig+0x1e6>
    while (__HAL_RCC_GET_SYSCLK_SOURCE() != (RCC_ClkInitStruct->SYSCLKSource << RCC_CFGR_SWS_Pos))
 8003fec:	68b3      	ldr	r3, [r6, #8]
 8003fee:	6862      	ldr	r2, [r4, #4]
 8003ff0:	f003 030c 	and.w	r3, r3, #12
 8003ff4:	ebb3 0f82 	cmp.w	r3, r2, lsl #2
 8003ff8:	d1f2      	bne.n	8003fe0 <HAL_RCC_ClockConfig+0xc4>
  if(FLatency < __HAL_FLASH_GET_LATENCY())
 8003ffa:	4a44      	ldr	r2, [pc, #272]	; (800410c <HAL_RCC_ClockConfig+0x1f0>)
 8003ffc:	6813      	ldr	r3, [r2, #0]
 8003ffe:	f003 0307 	and.w	r3, r3, #7
 8004002:	42ab      	cmp	r3, r5
 8004004:	d915      	bls.n	8004032 <HAL_RCC_ClockConfig+0x116>
    __HAL_FLASH_SET_LATENCY(FLatency);
 8004006:	b2eb      	uxtb	r3, r5
 8004008:	7013      	strb	r3, [r2, #0]
    if(__HAL_FLASH_GET_LATENCY() != FLatency)
 800400a:	6813      	ldr	r3, [r2, #0]
 800400c:	f003 0307 	and.w	r3, r3, #7
 8004010:	42ab      	cmp	r3, r5
 8004012:	d00e      	beq.n	8004032 <HAL_RCC_ClockConfig+0x116>
      return HAL_ERROR;
 8004014:	2301      	movs	r3, #1
}
 8004016:	4618      	mov	r0, r3
 8004018:	e8bd 81f0 	ldmia.w	sp!, {r4, r5, r6, r7, r8, pc}
    __HAL_FLASH_SET_LATENCY(FLatency);
 800401c:	b2eb      	uxtb	r3, r5
 800401e:	7013      	strb	r3, [r2, #0]
    if(__HAL_FLASH_GET_LATENCY() != FLatency)
 8004020:	6813      	ldr	r3, [r2, #0]
 8004022:	f003 0307 	and.w	r3, r3, #7
 8004026:	42ab      	cmp	r3, r5
 8004028:	d1f4      	bne.n	8004014 <HAL_RCC_ClockConfig+0xf8>
  if(((RCC_ClkInitStruct->ClockType) & RCC_CLOCKTYPE_HCLK) == RCC_CLOCKTYPE_HCLK)
 800402a:	6823      	ldr	r3, [r4, #0]
 800402c:	0798      	lsls	r0, r3, #30
 800402e:	d48d      	bmi.n	8003f4c <HAL_RCC_ClockConfig+0x30>
 8004030:	e7b9      	b.n	8003fa6 <HAL_RCC_ClockConfig+0x8a>
  if(((RCC_ClkInitStruct->ClockType) & RCC_CLOCKTYPE_PCLK1) == RCC_CLOCKTYPE_PCLK1)
 8004032:	6823      	ldr	r3, [r4, #0]
 8004034:	075a      	lsls	r2, r3, #29
 8004036:	d518      	bpl.n	800406a <HAL_RCC_ClockConfig+0x14e>
    assert_param(IS_RCC_PCLK(RCC_ClkInitStruct->APB1CLKDivider));
 8004038:	68e1      	ldr	r1, [r4, #12]
 800403a:	f431 5280 	bics.w	r2, r1, #4096	; 0x1000
 800403e:	d00e      	beq.n	800405e <HAL_RCC_ClockConfig+0x142>
 8004040:	f421 6200 	bic.w	r2, r1, #2048	; 0x800
 8004044:	f5b2 5fa0 	cmp.w	r2, #5120	; 0x1400
 8004048:	d009      	beq.n	800405e <HAL_RCC_ClockConfig+0x142>
 800404a:	f5b1 5fc0 	cmp.w	r1, #6144	; 0x1800
 800404e:	d006      	beq.n	800405e <HAL_RCC_ClockConfig+0x142>
 8004050:	f240 21c5 	movw	r1, #709	; 0x2c5
 8004054:	482f      	ldr	r0, [pc, #188]	; (8004114 <HAL_RCC_ClockConfig+0x1f8>)
 8004056:	f7fd fb21 	bl	800169c <assert_failed>
 800405a:	68e1      	ldr	r1, [r4, #12]
 800405c:	6823      	ldr	r3, [r4, #0]
    MODIFY_REG(RCC->CFGR, RCC_CFGR_PPRE1, RCC_ClkInitStruct->APB1CLKDivider);
 800405e:	482c      	ldr	r0, [pc, #176]	; (8004110 <HAL_RCC_ClockConfig+0x1f4>)
 8004060:	6882      	ldr	r2, [r0, #8]
 8004062:	f422 52e0 	bic.w	r2, r2, #7168	; 0x1c00
 8004066:	430a      	orrs	r2, r1
 8004068:	6082      	str	r2, [r0, #8]
  if(((RCC_ClkInitStruct->ClockType) & RCC_CLOCKTYPE_PCLK2) == RCC_CLOCKTYPE_PCLK2)
 800406a:	071b      	lsls	r3, r3, #28
 800406c:	d518      	bpl.n	80040a0 <HAL_RCC_ClockConfig+0x184>
    assert_param(IS_RCC_PCLK(RCC_ClkInitStruct->APB2CLKDivider));
 800406e:	6922      	ldr	r2, [r4, #16]
 8004070:	f432 5380 	bics.w	r3, r2, #4096	; 0x1000
 8004074:	d00d      	beq.n	8004092 <HAL_RCC_ClockConfig+0x176>
 8004076:	f422 6300 	bic.w	r3, r2, #2048	; 0x800
 800407a:	f5b3 5fa0 	cmp.w	r3, #5120	; 0x1400
 800407e:	d008      	beq.n	8004092 <HAL_RCC_ClockConfig+0x176>
 8004080:	f5b2 5fc0 	cmp.w	r2, #6144	; 0x1800
 8004084:	d005      	beq.n	8004092 <HAL_RCC_ClockConfig+0x176>
 8004086:	4823      	ldr	r0, [pc, #140]	; (8004114 <HAL_RCC_ClockConfig+0x1f8>)
 8004088:	f44f 7133 	mov.w	r1, #716	; 0x2cc
 800408c:	f7fd fb06 	bl	800169c <assert_failed>
 8004090:	6922      	ldr	r2, [r4, #16]
    MODIFY_REG(RCC->CFGR, RCC_CFGR_PPRE2, ((RCC_ClkInitStruct->APB2CLKDivider) << 3U));
 8004092:	491f      	ldr	r1, [pc, #124]	; (8004110 <HAL_RCC_ClockConfig+0x1f4>)
 8004094:	688b      	ldr	r3, [r1, #8]
 8004096:	f423 4360 	bic.w	r3, r3, #57344	; 0xe000
 800409a:	ea43 03c2 	orr.w	r3, r3, r2, lsl #3
 800409e:	608b      	str	r3, [r1, #8]
  SystemCoreClock = HAL_RCC_GetSysClockFreq() >> AHBPrescTable[(RCC->CFGR & RCC_CFGR_HPRE)>> RCC_CFGR_HPRE_Pos];
 80040a0:	f7ff ff06 	bl	8003eb0 <HAL_RCC_GetSysClockFreq>
 80040a4:	4b1a      	ldr	r3, [pc, #104]	; (8004110 <HAL_RCC_ClockConfig+0x1f4>)
 80040a6:	4c1c      	ldr	r4, [pc, #112]	; (8004118 <HAL_RCC_ClockConfig+0x1fc>)
 80040a8:	689a      	ldr	r2, [r3, #8]
 80040aa:	491c      	ldr	r1, [pc, #112]	; (800411c <HAL_RCC_ClockConfig+0x200>)
 80040ac:	f3c2 1203 	ubfx	r2, r2, #4, #4
  return HAL_OK;
 80040b0:	2300      	movs	r3, #0
  SystemCoreClock = HAL_RCC_GetSysClockFreq() >> AHBPrescTable[(RCC->CFGR & RCC_CFGR_HPRE)>> RCC_CFGR_HPRE_Pos];
 80040b2:	5ca2      	ldrb	r2, [r4, r2]
 80040b4:	40d0      	lsrs	r0, r2
 80040b6:	6008      	str	r0, [r1, #0]
}
 80040b8:	4618      	mov	r0, r3
 80040ba:	e8bd 81f0 	ldmia.w	sp!, {r4, r5, r6, r7, r8, pc}
  assert_param(IS_FLASH_LATENCY(FLatency));
 80040be:	4815      	ldr	r0, [pc, #84]	; (8004114 <HAL_RCC_ClockConfig+0x1f8>)
 80040c0:	f240 215d 	movw	r1, #605	; 0x25d
 80040c4:	f7fd faea 	bl	800169c <assert_failed>
  if(FLatency > __HAL_FLASH_GET_LATENCY())
 80040c8:	4b10      	ldr	r3, [pc, #64]	; (800410c <HAL_RCC_ClockConfig+0x1f0>)
    __HAL_FLASH_SET_LATENCY(FLatency);
 80040ca:	b2ed      	uxtb	r5, r5
  if(FLatency > __HAL_FLASH_GET_LATENCY())
 80040cc:	681a      	ldr	r2, [r3, #0]
    __HAL_FLASH_SET_LATENCY(FLatency);
 80040ce:	701d      	strb	r5, [r3, #0]
    if(__HAL_FLASH_GET_LATENCY() != FLatency)
 80040d0:	681b      	ldr	r3, [r3, #0]
 80040d2:	e79f      	b.n	8004014 <HAL_RCC_ClockConfig+0xf8>
  assert_param(IS_RCC_CLOCKTYPE(RCC_ClkInitStruct->ClockType));
 80040d4:	480f      	ldr	r0, [pc, #60]	; (8004114 <HAL_RCC_ClockConfig+0x1f8>)
 80040d6:	f44f 7117 	mov.w	r1, #604	; 0x25c
 80040da:	f7fd fadf 	bl	800169c <assert_failed>
 80040de:	e729      	b.n	8003f34 <HAL_RCC_ClockConfig+0x18>
      if(__HAL_RCC_GET_FLAG(RCC_FLAG_PLLRDY) == RESET)
 80040e0:	0190      	lsls	r0, r2, #6
 80040e2:	f53f af71 	bmi.w	8003fc8 <HAL_RCC_ClockConfig+0xac>
 80040e6:	e795      	b.n	8004014 <HAL_RCC_ClockConfig+0xf8>
      if(__HAL_RCC_GET_FLAG(RCC_FLAG_HSERDY) == RESET)
 80040e8:	4a09      	ldr	r2, [pc, #36]	; (8004110 <HAL_RCC_ClockConfig+0x1f4>)
 80040ea:	6812      	ldr	r2, [r2, #0]
 80040ec:	0396      	lsls	r6, r2, #14
 80040ee:	f53f af6b 	bmi.w	8003fc8 <HAL_RCC_ClockConfig+0xac>
 80040f2:	e78f      	b.n	8004014 <HAL_RCC_ClockConfig+0xf8>
    assert_param(IS_RCC_SYSCLKSOURCE(RCC_ClkInitStruct->SYSCLKSource));
 80040f4:	4807      	ldr	r0, [pc, #28]	; (8004114 <HAL_RCC_ClockConfig+0x1f8>)
 80040f6:	f240 2187 	movw	r1, #647	; 0x287
 80040fa:	f7fd facf 	bl	800169c <assert_failed>
 80040fe:	6863      	ldr	r3, [r4, #4]
 8004100:	e757      	b.n	8003fb2 <HAL_RCC_ClockConfig+0x96>
        return HAL_TIMEOUT;
 8004102:	2303      	movs	r3, #3
 8004104:	e787      	b.n	8004016 <HAL_RCC_ClockConfig+0xfa>
    return HAL_ERROR;
 8004106:	2301      	movs	r3, #1
}
 8004108:	4618      	mov	r0, r3
 800410a:	4770      	bx	lr
 800410c:	40023c00 	.word	0x40023c00
 8004110:	40023800 	.word	0x40023800
 8004114:	080096e0 	.word	0x080096e0
 8004118:	08009564 	.word	0x08009564
 800411c:	20000000 	.word	0x20000000

08004120 <HAL_RCC_GetPCLK1Freq>:
  * @retval PCLK1 frequency
  */
uint32_t HAL_RCC_GetPCLK1Freq(void)
{
  /* Get HCLK source and Compute PCLK1 frequency ---------------------------*/
  return (HAL_RCC_GetHCLKFreq() >> APBPrescTable[(RCC->CFGR & RCC_CFGR_PPRE1)>> RCC_CFGR_PPRE1_Pos]);
 8004120:	4b04      	ldr	r3, [pc, #16]	; (8004134 <HAL_RCC_GetPCLK1Freq+0x14>)
 8004122:	4a05      	ldr	r2, [pc, #20]	; (8004138 <HAL_RCC_GetPCLK1Freq+0x18>)
 8004124:	689b      	ldr	r3, [r3, #8]
  return SystemCoreClock;
 8004126:	4905      	ldr	r1, [pc, #20]	; (800413c <HAL_RCC_GetPCLK1Freq+0x1c>)
  return (HAL_RCC_GetHCLKFreq() >> APBPrescTable[(RCC->CFGR & RCC_CFGR_PPRE1)>> RCC_CFGR_PPRE1_Pos]);
 8004128:	f3c3 2382 	ubfx	r3, r3, #10, #3
 800412c:	6808      	ldr	r0, [r1, #0]
 800412e:	5cd3      	ldrb	r3, [r2, r3]
}
 8004130:	40d8      	lsrs	r0, r3
 8004132:	4770      	bx	lr
 8004134:	40023800 	.word	0x40023800
 8004138:	08009574 	.word	0x08009574
 800413c:	20000000 	.word	0x20000000

08004140 <HAL_RCC_GetClockConfig>:
{
  /* Set all possible values for the Clock type parameter --------------------*/
  RCC_ClkInitStruct->ClockType = RCC_CLOCKTYPE_SYSCLK | RCC_CLOCKTYPE_HCLK | RCC_CLOCKTYPE_PCLK1 | RCC_CLOCKTYPE_PCLK2;

  /* Get the SYSCLK configuration --------------------------------------------*/
  RCC_ClkInitStruct->SYSCLKSource = (uint32_t)(RCC->CFGR & RCC_CFGR_SW);
 8004140:	4b0e      	ldr	r3, [pc, #56]	; (800417c <HAL_RCC_GetClockConfig+0x3c>)
  RCC_ClkInitStruct->ClockType = RCC_CLOCKTYPE_SYSCLK | RCC_CLOCKTYPE_HCLK | RCC_CLOCKTYPE_PCLK1 | RCC_CLOCKTYPE_PCLK2;
 8004142:	220f      	movs	r2, #15
 8004144:	6002      	str	r2, [r0, #0]
  RCC_ClkInitStruct->SYSCLKSource = (uint32_t)(RCC->CFGR & RCC_CFGR_SW);
 8004146:	689a      	ldr	r2, [r3, #8]
 8004148:	f002 0203 	and.w	r2, r2, #3
 800414c:	6042      	str	r2, [r0, #4]

  /* Get the HCLK configuration ----------------------------------------------*/
  RCC_ClkInitStruct->AHBCLKDivider = (uint32_t)(RCC->CFGR & RCC_CFGR_HPRE);
 800414e:	689a      	ldr	r2, [r3, #8]
 8004150:	f002 02f0 	and.w	r2, r2, #240	; 0xf0
 8004154:	6082      	str	r2, [r0, #8]

  /* Get the APB1 configuration ----------------------------------------------*/
  RCC_ClkInitStruct->APB1CLKDivider = (uint32_t)(RCC->CFGR & RCC_CFGR_PPRE1);
 8004156:	689a      	ldr	r2, [r3, #8]
 8004158:	f402 52e0 	and.w	r2, r2, #7168	; 0x1c00
 800415c:	60c2      	str	r2, [r0, #12]

  /* Get the APB2 configuration ----------------------------------------------*/
  RCC_ClkInitStruct->APB2CLKDivider = (uint32_t)((RCC->CFGR & RCC_CFGR_PPRE2) >> 3U);
 800415e:	689b      	ldr	r3, [r3, #8]
 8004160:	08db      	lsrs	r3, r3, #3
{
 8004162:	b410      	push	{r4}
  RCC_ClkInitStruct->APB2CLKDivider = (uint32_t)((RCC->CFGR & RCC_CFGR_PPRE2) >> 3U);
 8004164:	f403 53e0 	and.w	r3, r3, #7168	; 0x1c00

  /* Get the Flash Wait State (Latency) configuration ------------------------*/
  *pFLatency = (uint32_t)(FLASH->ACR & FLASH_ACR_LATENCY);
 8004168:	4c05      	ldr	r4, [pc, #20]	; (8004180 <HAL_RCC_GetClockConfig+0x40>)
  RCC_ClkInitStruct->APB2CLKDivider = (uint32_t)((RCC->CFGR & RCC_CFGR_PPRE2) >> 3U);
 800416a:	6103      	str	r3, [r0, #16]
  *pFLatency = (uint32_t)(FLASH->ACR & FLASH_ACR_LATENCY);
 800416c:	6823      	ldr	r3, [r4, #0]
}
 800416e:	f85d 4b04 	ldr.w	r4, [sp], #4
  *pFLatency = (uint32_t)(FLASH->ACR & FLASH_ACR_LATENCY);
 8004172:	f003 0307 	and.w	r3, r3, #7
 8004176:	600b      	str	r3, [r1, #0]
}
 8004178:	4770      	bx	lr
 800417a:	bf00      	nop
 800417c:	40023800 	.word	0x40023800
 8004180:	40023c00 	.word	0x40023c00

08004184 <SPI_WaitFlagStateUntilTimeout.constprop.0>:
  * @param  State flag state to check
  * @param  Timeout Timeout duration
  * @param  Tickstart tick start value
  * @retval HAL status
  */
static HAL_StatusTypeDef SPI_WaitFlagStateUntilTimeout(SPI_HandleTypeDef *hspi, uint32_t Flag, FlagStatus State,
 8004184:	e92d 41f0 	stmdb	sp!, {r4, r5, r6, r7, r8, lr}
 8004188:	b082      	sub	sp, #8
 800418a:	4698      	mov	r8, r3
 800418c:	4616      	mov	r6, r2
 800418e:	460c      	mov	r4, r1
 8004190:	4607      	mov	r7, r0
  __IO uint32_t count;
  uint32_t tmp_timeout;
  uint32_t tmp_tickstart;

  /* Adjust Timeout value  in case of end of transfer */
  tmp_timeout   = Timeout - (HAL_GetTick() - Tickstart);
 8004192:	f7fd fc73 	bl	8001a7c <HAL_GetTick>
 8004196:	44b0      	add	r8, r6
 8004198:	eba8 0500 	sub.w	r5, r8, r0
  tmp_tickstart = HAL_GetTick();
 800419c:	f7fd fc6e 	bl	8001a7c <HAL_GetTick>

  /* Calculate Timeout based on a software loop to avoid blocking issue if Systick is disabled */
  count = tmp_timeout * ((SystemCoreClock * 32U) >> 20U);
 80041a0:	4b27      	ldr	r3, [pc, #156]	; (8004240 <SPI_WaitFlagStateUntilTimeout.constprop.0+0xbc>)
 80041a2:	681b      	ldr	r3, [r3, #0]
 80041a4:	f3c3 33cb 	ubfx	r3, r3, #15, #12
 80041a8:	fb05 f303 	mul.w	r3, r5, r3
  tmp_tickstart = HAL_GetTick();
 80041ac:	4680      	mov	r8, r0
  count = tmp_timeout * ((SystemCoreClock * 32U) >> 20U);
 80041ae:	9301      	str	r3, [sp, #4]

  while ((__HAL_SPI_GET_FLAG(hspi, Flag) ? SET : RESET) != State)
 80041b0:	1c73      	adds	r3, r6, #1
 80041b2:	6839      	ldr	r1, [r7, #0]
 80041b4:	d107      	bne.n	80041c6 <SPI_WaitFlagStateUntilTimeout.constprop.0+0x42>
 80041b6:	688b      	ldr	r3, [r1, #8]
 80041b8:	ea34 0303 	bics.w	r3, r4, r3
 80041bc:	d0fb      	beq.n	80041b6 <SPI_WaitFlagStateUntilTimeout.constprop.0+0x32>
      }
      count--;
    }
  }

  return HAL_OK;
 80041be:	2000      	movs	r0, #0
}
 80041c0:	b002      	add	sp, #8
 80041c2:	e8bd 81f0 	ldmia.w	sp!, {r4, r5, r6, r7, r8, pc}
  while ((__HAL_SPI_GET_FLAG(hspi, Flag) ? SET : RESET) != State)
 80041c6:	688b      	ldr	r3, [r1, #8]
 80041c8:	ea34 0303 	bics.w	r3, r4, r3
 80041cc:	d1f7      	bne.n	80041be <SPI_WaitFlagStateUntilTimeout.constprop.0+0x3a>
      if (((HAL_GetTick() - tmp_tickstart) >= tmp_timeout) || (tmp_timeout == 0U))
 80041ce:	f7fd fc55 	bl	8001a7c <HAL_GetTick>
 80041d2:	eba0 0308 	sub.w	r3, r0, r8
 80041d6:	42ab      	cmp	r3, r5
 80041d8:	d208      	bcs.n	80041ec <SPI_WaitFlagStateUntilTimeout.constprop.0+0x68>
      if(count == 0U)
 80041da:	9a01      	ldr	r2, [sp, #4]
      count--;
 80041dc:	9b01      	ldr	r3, [sp, #4]
        tmp_timeout = 0U;
 80041de:	2a00      	cmp	r2, #0
      count--;
 80041e0:	f103 33ff 	add.w	r3, r3, #4294967295
        tmp_timeout = 0U;
 80041e4:	bf08      	it	eq
 80041e6:	2500      	moveq	r5, #0
      count--;
 80041e8:	9301      	str	r3, [sp, #4]
 80041ea:	e7e1      	b.n	80041b0 <SPI_WaitFlagStateUntilTimeout.constprop.0+0x2c>
        if ((hspi->Init.Mode == SPI_MODE_MASTER) && ((hspi->Init.Direction == SPI_DIRECTION_1LINE)
 80041ec:	e9d7 3100 	ldrd	r3, r1, [r7]
        __HAL_SPI_DISABLE_IT(hspi, (SPI_IT_TXE | SPI_IT_RXNE | SPI_IT_ERR));
 80041f0:	685a      	ldr	r2, [r3, #4]
        if ((hspi->Init.Mode == SPI_MODE_MASTER) && ((hspi->Init.Direction == SPI_DIRECTION_1LINE)
 80041f2:	f5b1 7f82 	cmp.w	r1, #260	; 0x104
        __HAL_SPI_DISABLE_IT(hspi, (SPI_IT_TXE | SPI_IT_RXNE | SPI_IT_ERR));
 80041f6:	f022 02e0 	bic.w	r2, r2, #224	; 0xe0
 80041fa:	605a      	str	r2, [r3, #4]
        if ((hspi->Init.Mode == SPI_MODE_MASTER) && ((hspi->Init.Direction == SPI_DIRECTION_1LINE)
 80041fc:	d014      	beq.n	8004228 <SPI_WaitFlagStateUntilTimeout.constprop.0+0xa4>
        if (hspi->Init.CRCCalculation == SPI_CRCCALCULATION_ENABLE)
 80041fe:	6aba      	ldr	r2, [r7, #40]	; 0x28
 8004200:	f5b2 5f00 	cmp.w	r2, #8192	; 0x2000
 8004204:	d007      	beq.n	8004216 <SPI_WaitFlagStateUntilTimeout.constprop.0+0x92>
        hspi->State = HAL_SPI_STATE_READY;
 8004206:	2201      	movs	r2, #1
        __HAL_UNLOCK(hspi);
 8004208:	2300      	movs	r3, #0
        hspi->State = HAL_SPI_STATE_READY;
 800420a:	f887 2051 	strb.w	r2, [r7, #81]	; 0x51
        __HAL_UNLOCK(hspi);
 800420e:	f887 3050 	strb.w	r3, [r7, #80]	; 0x50
 8004212:	2003      	movs	r0, #3
 8004214:	e7d4      	b.n	80041c0 <SPI_WaitFlagStateUntilTimeout.constprop.0+0x3c>
          SPI_RESET_CRC(hspi);
 8004216:	681a      	ldr	r2, [r3, #0]
 8004218:	f422 5200 	bic.w	r2, r2, #8192	; 0x2000
 800421c:	601a      	str	r2, [r3, #0]
 800421e:	681a      	ldr	r2, [r3, #0]
 8004220:	f442 5200 	orr.w	r2, r2, #8192	; 0x2000
 8004224:	601a      	str	r2, [r3, #0]
 8004226:	e7ee      	b.n	8004206 <SPI_WaitFlagStateUntilTimeout.constprop.0+0x82>
        if ((hspi->Init.Mode == SPI_MODE_MASTER) && ((hspi->Init.Direction == SPI_DIRECTION_1LINE)
 8004228:	68ba      	ldr	r2, [r7, #8]
 800422a:	f5b2 4f00 	cmp.w	r2, #32768	; 0x8000
 800422e:	d002      	beq.n	8004236 <SPI_WaitFlagStateUntilTimeout.constprop.0+0xb2>
                                                     || (hspi->Init.Direction == SPI_DIRECTION_2LINES_RXONLY)))
 8004230:	f5b2 6f80 	cmp.w	r2, #1024	; 0x400
 8004234:	d1e3      	bne.n	80041fe <SPI_WaitFlagStateUntilTimeout.constprop.0+0x7a>
          __HAL_SPI_DISABLE(hspi);
 8004236:	681a      	ldr	r2, [r3, #0]
 8004238:	f022 0240 	bic.w	r2, r2, #64	; 0x40
 800423c:	601a      	str	r2, [r3, #0]
 800423e:	e7de      	b.n	80041fe <SPI_WaitFlagStateUntilTimeout.constprop.0+0x7a>
 8004240:	20000000 	.word	0x20000000

08004244 <HAL_SPI_MspInit>:
}
 8004244:	4770      	bx	lr
 8004246:	bf00      	nop

08004248 <HAL_SPI_Init>:
  if (hspi == NULL)
 8004248:	2800      	cmp	r0, #0
 800424a:	f000 80ec 	beq.w	8004426 <HAL_SPI_Init+0x1de>
  assert_param(IS_SPI_ALL_INSTANCE(hspi->Instance));
 800424e:	6803      	ldr	r3, [r0, #0]
 8004250:	4a7d      	ldr	r2, [pc, #500]	; (8004448 <HAL_SPI_Init+0x200>)
 8004252:	4293      	cmp	r3, r2
{
 8004254:	b570      	push	{r4, r5, r6, lr}
 8004256:	4604      	mov	r4, r0
  assert_param(IS_SPI_ALL_INSTANCE(hspi->Instance));
 8004258:	d014      	beq.n	8004284 <HAL_SPI_Init+0x3c>
 800425a:	f5a2 4278 	sub.w	r2, r2, #63488	; 0xf800
 800425e:	4293      	cmp	r3, r2
 8004260:	d010      	beq.n	8004284 <HAL_SPI_Init+0x3c>
 8004262:	f502 6280 	add.w	r2, r2, #1024	; 0x400
 8004266:	4293      	cmp	r3, r2
 8004268:	d00c      	beq.n	8004284 <HAL_SPI_Init+0x3c>
 800426a:	f502 4278 	add.w	r2, r2, #63488	; 0xf800
 800426e:	4293      	cmp	r3, r2
 8004270:	d008      	beq.n	8004284 <HAL_SPI_Init+0x3c>
 8004272:	f502 52e0 	add.w	r2, r2, #7168	; 0x1c00
 8004276:	4293      	cmp	r3, r2
 8004278:	d004      	beq.n	8004284 <HAL_SPI_Init+0x3c>
 800427a:	4874      	ldr	r0, [pc, #464]	; (800444c <HAL_SPI_Init+0x204>)
 800427c:	f44f 71a1 	mov.w	r1, #322	; 0x142
 8004280:	f7fd fa0c 	bl	800169c <assert_failed>
  assert_param(IS_SPI_MODE(hspi->Init.Mode));
 8004284:	6863      	ldr	r3, [r4, #4]
 8004286:	b13b      	cbz	r3, 8004298 <HAL_SPI_Init+0x50>
 8004288:	f5b3 7f82 	cmp.w	r3, #260	; 0x104
 800428c:	d004      	beq.n	8004298 <HAL_SPI_Init+0x50>
 800428e:	486f      	ldr	r0, [pc, #444]	; (800444c <HAL_SPI_Init+0x204>)
 8004290:	f240 1143 	movw	r1, #323	; 0x143
 8004294:	f7fd fa02 	bl	800169c <assert_failed>
  assert_param(IS_SPI_DIRECTION(hspi->Init.Direction));
 8004298:	68a3      	ldr	r3, [r4, #8]
 800429a:	f433 6280 	bics.w	r2, r3, #1024	; 0x400
 800429e:	f040 809a 	bne.w	80043d6 <HAL_SPI_Init+0x18e>
  assert_param(IS_SPI_DATASIZE(hspi->Init.DataSize));
 80042a2:	68e3      	ldr	r3, [r4, #12]
 80042a4:	f433 6300 	bics.w	r3, r3, #2048	; 0x800
 80042a8:	f040 80a3 	bne.w	80043f2 <HAL_SPI_Init+0x1aa>
  assert_param(IS_SPI_NSS(hspi->Init.NSS));
 80042ac:	69a3      	ldr	r3, [r4, #24]
 80042ae:	f433 7200 	bics.w	r2, r3, #512	; 0x200
 80042b2:	d003      	beq.n	80042bc <HAL_SPI_Init+0x74>
 80042b4:	f5b3 2f80 	cmp.w	r3, #262144	; 0x40000
 80042b8:	f040 80aa 	bne.w	8004410 <HAL_SPI_Init+0x1c8>
  assert_param(IS_SPI_BAUDRATE_PRESCALER(hspi->Init.BaudRatePrescaler));
 80042bc:	69e3      	ldr	r3, [r4, #28]
 80042be:	f033 0318 	bics.w	r3, r3, #24
 80042c2:	d006      	beq.n	80042d2 <HAL_SPI_Init+0x8a>
 80042c4:	2b20      	cmp	r3, #32
 80042c6:	d004      	beq.n	80042d2 <HAL_SPI_Init+0x8a>
 80042c8:	4860      	ldr	r0, [pc, #384]	; (800444c <HAL_SPI_Init+0x204>)
 80042ca:	f240 1147 	movw	r1, #327	; 0x147
 80042ce:	f7fd f9e5 	bl	800169c <assert_failed>
  assert_param(IS_SPI_FIRST_BIT(hspi->Init.FirstBit));
 80042d2:	6a23      	ldr	r3, [r4, #32]
 80042d4:	f033 0380 	bics.w	r3, r3, #128	; 0x80
 80042d8:	d004      	beq.n	80042e4 <HAL_SPI_Init+0x9c>
 80042da:	485c      	ldr	r0, [pc, #368]	; (800444c <HAL_SPI_Init+0x204>)
 80042dc:	f44f 71a4 	mov.w	r1, #328	; 0x148
 80042e0:	f7fd f9dc 	bl	800169c <assert_failed>
  assert_param(IS_SPI_TIMODE(hspi->Init.TIMode));
 80042e4:	6a63      	ldr	r3, [r4, #36]	; 0x24
 80042e6:	2b00      	cmp	r3, #0
 80042e8:	d15c      	bne.n	80043a4 <HAL_SPI_Init+0x15c>
    assert_param(IS_SPI_CPOL(hspi->Init.CLKPolarity));
 80042ea:	6923      	ldr	r3, [r4, #16]
 80042ec:	f033 0302 	bics.w	r3, r3, #2
 80042f0:	d004      	beq.n	80042fc <HAL_SPI_Init+0xb4>
 80042f2:	4856      	ldr	r0, [pc, #344]	; (800444c <HAL_SPI_Init+0x204>)
 80042f4:	f44f 71a6 	mov.w	r1, #332	; 0x14c
 80042f8:	f7fd f9d0 	bl	800169c <assert_failed>
    assert_param(IS_SPI_CPHA(hspi->Init.CLKPhase));
 80042fc:	6963      	ldr	r3, [r4, #20]
 80042fe:	2b01      	cmp	r3, #1
 8004300:	d904      	bls.n	800430c <HAL_SPI_Init+0xc4>
 8004302:	4852      	ldr	r0, [pc, #328]	; (800444c <HAL_SPI_Init+0x204>)
 8004304:	f240 114d 	movw	r1, #333	; 0x14d
 8004308:	f7fd f9c8 	bl	800169c <assert_failed>
    if (hspi->Init.Mode == SPI_MODE_MASTER)
 800430c:	6863      	ldr	r3, [r4, #4]
 800430e:	f5b3 7f82 	cmp.w	r3, #260	; 0x104
 8004312:	f000 808a 	beq.w	800442a <HAL_SPI_Init+0x1e2>
      hspi->Init.BaudRatePrescaler = SPI_BAUDRATEPRESCALER_2;
 8004316:	2300      	movs	r3, #0
 8004318:	61e3      	str	r3, [r4, #28]
  if (hspi->State == HAL_SPI_STATE_RESET)
 800431a:	f894 2051 	ldrb.w	r2, [r4, #81]	; 0x51
  hspi->Init.CRCCalculation = SPI_CRCCALCULATION_DISABLE;
 800431e:	2300      	movs	r3, #0
  if (hspi->State == HAL_SPI_STATE_RESET)
 8004320:	f002 01ff 	and.w	r1, r2, #255	; 0xff
  hspi->Init.CRCCalculation = SPI_CRCCALCULATION_DISABLE;
 8004324:	62a3      	str	r3, [r4, #40]	; 0x28
  if (hspi->State == HAL_SPI_STATE_RESET)
 8004326:	2a00      	cmp	r2, #0
 8004328:	d069      	beq.n	80043fe <HAL_SPI_Init+0x1b6>
 800432a:	4619      	mov	r1, r3
  WRITE_REG(hspi->Instance->CR1, ((hspi->Init.Mode & (SPI_CR1_MSTR | SPI_CR1_SSI)) |
 800432c:	e9d4 3501 	ldrd	r3, r5, [r4, #4]
 8004330:	e9d4 0203 	ldrd	r0, r2, [r4, #12]
 8004334:	f405 4504 	and.w	r5, r5, #33792	; 0x8400
 8004338:	f403 7382 	and.w	r3, r3, #260	; 0x104
 800433c:	432b      	orrs	r3, r5
 800433e:	f400 6500 	and.w	r5, r0, #2048	; 0x800
 8004342:	6960      	ldr	r0, [r4, #20]
  __HAL_SPI_DISABLE(hspi);
 8004344:	6826      	ldr	r6, [r4, #0]
  WRITE_REG(hspi->Instance->CR1, ((hspi->Init.Mode & (SPI_CR1_MSTR | SPI_CR1_SSI)) |
 8004346:	432b      	orrs	r3, r5
 8004348:	f002 0502 	and.w	r5, r2, #2
 800434c:	69a2      	ldr	r2, [r4, #24]
 800434e:	432b      	orrs	r3, r5
 8004350:	f000 0001 	and.w	r0, r0, #1
 8004354:	69e5      	ldr	r5, [r4, #28]
 8004356:	4303      	orrs	r3, r0
 8004358:	f402 7000 	and.w	r0, r2, #512	; 0x200
 800435c:	4303      	orrs	r3, r0
 800435e:	f005 0538 	and.w	r5, r5, #56	; 0x38
 8004362:	6a20      	ldr	r0, [r4, #32]
 8004364:	432b      	orrs	r3, r5
  hspi->State = HAL_SPI_STATE_BUSY;
 8004366:	2502      	movs	r5, #2
 8004368:	f884 5051 	strb.w	r5, [r4, #81]	; 0x51
  WRITE_REG(hspi->Instance->CR1, ((hspi->Init.Mode & (SPI_CR1_MSTR | SPI_CR1_SSI)) |
 800436c:	f000 0080 	and.w	r0, r0, #128	; 0x80
  WRITE_REG(hspi->Instance->CR2, (((hspi->Init.NSS >> 16U) & SPI_CR2_SSOE) | (hspi->Init.TIMode & SPI_CR2_FRF)));
 8004370:	6a65      	ldr	r5, [r4, #36]	; 0x24
  WRITE_REG(hspi->Instance->CR1, ((hspi->Init.Mode & (SPI_CR1_MSTR | SPI_CR1_SSI)) |
 8004372:	4303      	orrs	r3, r0
  WRITE_REG(hspi->Instance->CR2, (((hspi->Init.NSS >> 16U) & SPI_CR2_SSOE) | (hspi->Init.TIMode & SPI_CR2_FRF)));
 8004374:	0c12      	lsrs	r2, r2, #16
  __HAL_SPI_DISABLE(hspi);
 8004376:	6830      	ldr	r0, [r6, #0]
  WRITE_REG(hspi->Instance->CR2, (((hspi->Init.NSS >> 16U) & SPI_CR2_SSOE) | (hspi->Init.TIMode & SPI_CR2_FRF)));
 8004378:	f005 0510 	and.w	r5, r5, #16
 800437c:	f002 0204 	and.w	r2, r2, #4
  WRITE_REG(hspi->Instance->CR1, ((hspi->Init.Mode & (SPI_CR1_MSTR | SPI_CR1_SSI)) |
 8004380:	430b      	orrs	r3, r1
  WRITE_REG(hspi->Instance->CR2, (((hspi->Init.NSS >> 16U) & SPI_CR2_SSOE) | (hspi->Init.TIMode & SPI_CR2_FRF)));
 8004382:	432a      	orrs	r2, r5
  __HAL_SPI_DISABLE(hspi);
 8004384:	f020 0040 	bic.w	r0, r0, #64	; 0x40
 8004388:	6030      	str	r0, [r6, #0]
  WRITE_REG(hspi->Instance->CR1, ((hspi->Init.Mode & (SPI_CR1_MSTR | SPI_CR1_SSI)) |
 800438a:	6033      	str	r3, [r6, #0]
  WRITE_REG(hspi->Instance->CR2, (((hspi->Init.NSS >> 16U) & SPI_CR2_SSOE) | (hspi->Init.TIMode & SPI_CR2_FRF)));
 800438c:	6072      	str	r2, [r6, #4]
  CLEAR_BIT(hspi->Instance->I2SCFGR, SPI_I2SCFGR_I2SMOD);
 800438e:	69f3      	ldr	r3, [r6, #28]
  hspi->ErrorCode = HAL_SPI_ERROR_NONE;
 8004390:	2200      	movs	r2, #0
  CLEAR_BIT(hspi->Instance->I2SCFGR, SPI_I2SCFGR_I2SMOD);
 8004392:	f423 6300 	bic.w	r3, r3, #2048	; 0x800
  hspi->State     = HAL_SPI_STATE_READY;
 8004396:	2101      	movs	r1, #1
  CLEAR_BIT(hspi->Instance->I2SCFGR, SPI_I2SCFGR_I2SMOD);
 8004398:	61f3      	str	r3, [r6, #28]
  hspi->ErrorCode = HAL_SPI_ERROR_NONE;
 800439a:	6562      	str	r2, [r4, #84]	; 0x54
  hspi->State     = HAL_SPI_STATE_READY;
 800439c:	f884 1051 	strb.w	r1, [r4, #81]	; 0x51
  return HAL_OK;
 80043a0:	4610      	mov	r0, r2
}
 80043a2:	bd70      	pop	{r4, r5, r6, pc}
  assert_param(IS_SPI_TIMODE(hspi->Init.TIMode));
 80043a4:	2b10      	cmp	r3, #16
 80043a6:	d007      	beq.n	80043b8 <HAL_SPI_Init+0x170>
 80043a8:	4828      	ldr	r0, [pc, #160]	; (800444c <HAL_SPI_Init+0x204>)
 80043aa:	f240 1149 	movw	r1, #329	; 0x149
 80043ae:	f7fd f975 	bl	800169c <assert_failed>
  if (hspi->Init.TIMode == SPI_TIMODE_DISABLE)
 80043b2:	6a63      	ldr	r3, [r4, #36]	; 0x24
 80043b4:	2b00      	cmp	r3, #0
 80043b6:	d098      	beq.n	80042ea <HAL_SPI_Init+0xa2>
    assert_param(IS_SPI_BAUDRATE_PRESCALER(hspi->Init.BaudRatePrescaler));
 80043b8:	69e3      	ldr	r3, [r4, #28]
 80043ba:	f033 0318 	bics.w	r3, r3, #24
 80043be:	d006      	beq.n	80043ce <HAL_SPI_Init+0x186>
 80043c0:	2b20      	cmp	r3, #32
 80043c2:	d004      	beq.n	80043ce <HAL_SPI_Init+0x186>
 80043c4:	4821      	ldr	r0, [pc, #132]	; (800444c <HAL_SPI_Init+0x204>)
 80043c6:	f240 115b 	movw	r1, #347	; 0x15b
 80043ca:	f7fd f967 	bl	800169c <assert_failed>
    hspi->Init.CLKPolarity = SPI_POLARITY_LOW;
 80043ce:	2300      	movs	r3, #0
    hspi->Init.CLKPhase    = SPI_PHASE_1EDGE;
 80043d0:	e9c4 3304 	strd	r3, r3, [r4, #16]
 80043d4:	e7a1      	b.n	800431a <HAL_SPI_Init+0xd2>
  assert_param(IS_SPI_DIRECTION(hspi->Init.Direction));
 80043d6:	f5b3 4f00 	cmp.w	r3, #32768	; 0x8000
 80043da:	f43f af62 	beq.w	80042a2 <HAL_SPI_Init+0x5a>
 80043de:	481b      	ldr	r0, [pc, #108]	; (800444c <HAL_SPI_Init+0x204>)
 80043e0:	f44f 71a2 	mov.w	r1, #324	; 0x144
 80043e4:	f7fd f95a 	bl	800169c <assert_failed>
  assert_param(IS_SPI_DATASIZE(hspi->Init.DataSize));
 80043e8:	68e3      	ldr	r3, [r4, #12]
 80043ea:	f433 6300 	bics.w	r3, r3, #2048	; 0x800
 80043ee:	f43f af5d 	beq.w	80042ac <HAL_SPI_Init+0x64>
 80043f2:	4816      	ldr	r0, [pc, #88]	; (800444c <HAL_SPI_Init+0x204>)
 80043f4:	f240 1145 	movw	r1, #325	; 0x145
 80043f8:	f7fd f950 	bl	800169c <assert_failed>
 80043fc:	e756      	b.n	80042ac <HAL_SPI_Init+0x64>
    hspi->Lock = HAL_UNLOCKED;
 80043fe:	f884 1050 	strb.w	r1, [r4, #80]	; 0x50
    HAL_SPI_MspInit(hspi);
 8004402:	4620      	mov	r0, r4
 8004404:	f7ff ff1e 	bl	8004244 <HAL_SPI_MspInit>
 8004408:	6aa3      	ldr	r3, [r4, #40]	; 0x28
 800440a:	f403 5100 	and.w	r1, r3, #8192	; 0x2000
 800440e:	e78d      	b.n	800432c <HAL_SPI_Init+0xe4>
  assert_param(IS_SPI_NSS(hspi->Init.NSS));
 8004410:	480e      	ldr	r0, [pc, #56]	; (800444c <HAL_SPI_Init+0x204>)
 8004412:	f44f 71a3 	mov.w	r1, #326	; 0x146
 8004416:	f7fd f941 	bl	800169c <assert_failed>
  assert_param(IS_SPI_BAUDRATE_PRESCALER(hspi->Init.BaudRatePrescaler));
 800441a:	69e3      	ldr	r3, [r4, #28]
 800441c:	f033 0318 	bics.w	r3, r3, #24
 8004420:	f43f af57 	beq.w	80042d2 <HAL_SPI_Init+0x8a>
 8004424:	e74e      	b.n	80042c4 <HAL_SPI_Init+0x7c>
    return HAL_ERROR;
 8004426:	2001      	movs	r0, #1
}
 8004428:	4770      	bx	lr
      assert_param(IS_SPI_BAUDRATE_PRESCALER(hspi->Init.BaudRatePrescaler));
 800442a:	69e3      	ldr	r3, [r4, #28]
 800442c:	f033 0318 	bics.w	r3, r3, #24
 8004430:	f43f af73 	beq.w	800431a <HAL_SPI_Init+0xd2>
 8004434:	2b20      	cmp	r3, #32
 8004436:	f43f af70 	beq.w	800431a <HAL_SPI_Init+0xd2>
 800443a:	4804      	ldr	r0, [pc, #16]	; (800444c <HAL_SPI_Init+0x204>)
 800443c:	f240 1151 	movw	r1, #337	; 0x151
 8004440:	f7fd f92c 	bl	800169c <assert_failed>
 8004444:	e769      	b.n	800431a <HAL_SPI_Init+0xd2>
 8004446:	bf00      	nop
 8004448:	40013000 	.word	0x40013000
 800444c:	08009718 	.word	0x08009718

08004450 <HAL_SPI_TransmitReceive>:
{
 8004450:	e92d 43f0 	stmdb	sp!, {r4, r5, r6, r7, r8, r9, lr}
 8004454:	4604      	mov	r4, r0
  assert_param(IS_SPI_DIRECTION_2LINES(hspi->Init.Direction));
 8004456:	6880      	ldr	r0, [r0, #8]
{
 8004458:	b083      	sub	sp, #12
 800445a:	4688      	mov	r8, r1
 800445c:	4691      	mov	r9, r2
 800445e:	461f      	mov	r7, r3
  assert_param(IS_SPI_DIRECTION_2LINES(hspi->Init.Direction));
 8004460:	2800      	cmp	r0, #0
 8004462:	f040 80a8 	bne.w	80045b6 <HAL_SPI_TransmitReceive+0x166>
  __HAL_LOCK(hspi);
 8004466:	f894 0050 	ldrb.w	r0, [r4, #80]	; 0x50
 800446a:	2801      	cmp	r0, #1
 800446c:	f000 80ad 	beq.w	80045ca <HAL_SPI_TransmitReceive+0x17a>
 8004470:	2301      	movs	r3, #1
 8004472:	f884 3050 	strb.w	r3, [r4, #80]	; 0x50
  tickstart = HAL_GetTick();
 8004476:	f7fd fb01 	bl	8001a7c <HAL_GetTick>
  tmp_state           = hspi->State;
 800447a:	f894 6051 	ldrb.w	r6, [r4, #81]	; 0x51
  tmp_mode            = hspi->Init.Mode;
 800447e:	6863      	ldr	r3, [r4, #4]
  if (!((tmp_state == HAL_SPI_STATE_READY) || \
 8004480:	2e01      	cmp	r6, #1
  tickstart = HAL_GetTick();
 8004482:	4605      	mov	r5, r0
  tmp_state           = hspi->State;
 8004484:	b2f2      	uxtb	r2, r6
  if (!((tmp_state == HAL_SPI_STATE_READY) || \
 8004486:	d011      	beq.n	80044ac <HAL_SPI_TransmitReceive+0x5c>
 8004488:	f5b3 7f82 	cmp.w	r3, #260	; 0x104
 800448c:	d009      	beq.n	80044a2 <HAL_SPI_TransmitReceive+0x52>
    errorcode = HAL_BUSY;
 800448e:	2002      	movs	r0, #2
  hspi->State = HAL_SPI_STATE_READY;
 8004490:	2201      	movs	r2, #1
  __HAL_UNLOCK(hspi);
 8004492:	2300      	movs	r3, #0
  hspi->State = HAL_SPI_STATE_READY;
 8004494:	f884 2051 	strb.w	r2, [r4, #81]	; 0x51
  __HAL_UNLOCK(hspi);
 8004498:	f884 3050 	strb.w	r3, [r4, #80]	; 0x50
}
 800449c:	b003      	add	sp, #12
 800449e:	e8bd 83f0 	ldmia.w	sp!, {r4, r5, r6, r7, r8, r9, pc}
        ((tmp_mode == SPI_MODE_MASTER) && (hspi->Init.Direction == SPI_DIRECTION_2LINES) && (tmp_state == HAL_SPI_STATE_BUSY_RX))))
 80044a2:	68a1      	ldr	r1, [r4, #8]
 80044a4:	2900      	cmp	r1, #0
 80044a6:	d1f2      	bne.n	800448e <HAL_SPI_TransmitReceive+0x3e>
 80044a8:	2a04      	cmp	r2, #4
 80044aa:	d1f0      	bne.n	800448e <HAL_SPI_TransmitReceive+0x3e>
  if ((pTxData == NULL) || (pRxData == NULL) || (Size == 0U))
 80044ac:	f1b8 0f00 	cmp.w	r8, #0
 80044b0:	f000 808f 	beq.w	80045d2 <HAL_SPI_TransmitReceive+0x182>
 80044b4:	f1b9 0f00 	cmp.w	r9, #0
 80044b8:	f000 808b 	beq.w	80045d2 <HAL_SPI_TransmitReceive+0x182>
 80044bc:	2f00      	cmp	r7, #0
 80044be:	f000 8088 	beq.w	80045d2 <HAL_SPI_TransmitReceive+0x182>
  if (hspi->State != HAL_SPI_STATE_BUSY_RX)
 80044c2:	f894 2051 	ldrb.w	r2, [r4, #81]	; 0x51
  if ((hspi->Instance->CR1 & SPI_CR1_SPE) != SPI_CR1_SPE)
 80044c6:	6820      	ldr	r0, [r4, #0]
  hspi->pRxBuffPtr  = (uint8_t *)pRxData;
 80044c8:	f8c4 9038 	str.w	r9, [r4, #56]	; 0x38
  if (hspi->State != HAL_SPI_STATE_BUSY_RX)
 80044cc:	2a04      	cmp	r2, #4
    hspi->State = HAL_SPI_STATE_BUSY_TX_RX;
 80044ce:	bf1c      	itt	ne
 80044d0:	2205      	movne	r2, #5
 80044d2:	f884 2051 	strbne.w	r2, [r4, #81]	; 0x51
  hspi->ErrorCode   = HAL_SPI_ERROR_NONE;
 80044d6:	2200      	movs	r2, #0
 80044d8:	6562      	str	r2, [r4, #84]	; 0x54
  hspi->RxXferCount = Size;
 80044da:	87e7      	strh	r7, [r4, #62]	; 0x3e
  hspi->TxXferCount = Size;
 80044dc:	86e7      	strh	r7, [r4, #54]	; 0x36
  if ((hspi->Instance->CR1 & SPI_CR1_SPE) != SPI_CR1_SPE)
 80044de:	6801      	ldr	r1, [r0, #0]
  hspi->RxXferSize  = Size;
 80044e0:	87a7      	strh	r7, [r4, #60]	; 0x3c
  hspi->TxISR       = NULL;
 80044e2:	e9c4 2210 	strd	r2, r2, [r4, #64]	; 0x40
  if ((hspi->Instance->CR1 & SPI_CR1_SPE) != SPI_CR1_SPE)
 80044e6:	064a      	lsls	r2, r1, #25
  hspi->pTxBuffPtr  = (uint8_t *)pTxData;
 80044e8:	f8c4 8030 	str.w	r8, [r4, #48]	; 0x30
  hspi->TxXferSize  = Size;
 80044ec:	86a7      	strh	r7, [r4, #52]	; 0x34
  if ((hspi->Instance->CR1 & SPI_CR1_SPE) != SPI_CR1_SPE)
 80044ee:	d403      	bmi.n	80044f8 <HAL_SPI_TransmitReceive+0xa8>
    __HAL_SPI_ENABLE(hspi);
 80044f0:	6802      	ldr	r2, [r0, #0]
 80044f2:	f042 0240 	orr.w	r2, r2, #64	; 0x40
 80044f6:	6002      	str	r2, [r0, #0]
  if (hspi->Init.DataSize == SPI_DATASIZE_16BIT)
 80044f8:	68e2      	ldr	r2, [r4, #12]
 80044fa:	f5b2 6f00 	cmp.w	r2, #2048	; 0x800
 80044fe:	f000 80b6 	beq.w	800466e <HAL_SPI_TransmitReceive+0x21e>
    if ((hspi->Init.Mode == SPI_MODE_SLAVE) || (initial_TxXferCount == 0x01U))
 8004502:	2b00      	cmp	r3, #0
 8004504:	f000 80a8 	beq.w	8004658 <HAL_SPI_TransmitReceive+0x208>
 8004508:	2f01      	cmp	r7, #1
 800450a:	f000 80a5 	beq.w	8004658 <HAL_SPI_TransmitReceive+0x208>
 800450e:	9b0a      	ldr	r3, [sp, #40]	; 0x28
 8004510:	3301      	adds	r3, #1
        txallowed = 1U;
 8004512:	f04f 0601 	mov.w	r6, #1
 8004516:	d028      	beq.n	800456a <HAL_SPI_TransmitReceive+0x11a>
 8004518:	e05d      	b.n	80045d6 <HAL_SPI_TransmitReceive+0x186>
      if ((__HAL_SPI_GET_FLAG(hspi, SPI_FLAG_TXE)) && (hspi->TxXferCount > 0U) && (txallowed == 1U))
 800451a:	6822      	ldr	r2, [r4, #0]
 800451c:	6893      	ldr	r3, [r2, #8]
 800451e:	0798      	lsls	r0, r3, #30
 8004520:	d50f      	bpl.n	8004542 <HAL_SPI_TransmitReceive+0xf2>
 8004522:	8ee3      	ldrh	r3, [r4, #54]	; 0x36
 8004524:	b29b      	uxth	r3, r3
 8004526:	b163      	cbz	r3, 8004542 <HAL_SPI_TransmitReceive+0xf2>
 8004528:	b15e      	cbz	r6, 8004542 <HAL_SPI_TransmitReceive+0xf2>
        *(__IO uint8_t *)&hspi->Instance->DR = (*hspi->pTxBuffPtr);
 800452a:	6b23      	ldr	r3, [r4, #48]	; 0x30
 800452c:	781b      	ldrb	r3, [r3, #0]
 800452e:	7313      	strb	r3, [r2, #12]
        hspi->TxXferCount--;
 8004530:	8ee3      	ldrh	r3, [r4, #54]	; 0x36
        hspi->pTxBuffPtr++;
 8004532:	6b21      	ldr	r1, [r4, #48]	; 0x30
 8004534:	6822      	ldr	r2, [r4, #0]
        hspi->TxXferCount--;
 8004536:	3b01      	subs	r3, #1
 8004538:	b29b      	uxth	r3, r3
        hspi->pTxBuffPtr++;
 800453a:	3101      	adds	r1, #1
        hspi->TxXferCount--;
 800453c:	86e3      	strh	r3, [r4, #54]	; 0x36
        hspi->pTxBuffPtr++;
 800453e:	6321      	str	r1, [r4, #48]	; 0x30
        txallowed = 0U;
 8004540:	2600      	movs	r6, #0
      if ((__HAL_SPI_GET_FLAG(hspi, SPI_FLAG_RXNE)) && (hspi->RxXferCount > 0U))
 8004542:	6893      	ldr	r3, [r2, #8]
 8004544:	f013 0301 	ands.w	r3, r3, #1
 8004548:	d00d      	beq.n	8004566 <HAL_SPI_TransmitReceive+0x116>
 800454a:	8fe1      	ldrh	r1, [r4, #62]	; 0x3e
 800454c:	b289      	uxth	r1, r1
 800454e:	b151      	cbz	r1, 8004566 <HAL_SPI_TransmitReceive+0x116>
        (*(uint8_t *)hspi->pRxBuffPtr) = hspi->Instance->DR;
 8004550:	6ba1      	ldr	r1, [r4, #56]	; 0x38
 8004552:	68d2      	ldr	r2, [r2, #12]
 8004554:	700a      	strb	r2, [r1, #0]
        hspi->RxXferCount--;
 8004556:	8fe2      	ldrh	r2, [r4, #62]	; 0x3e
        hspi->pRxBuffPtr++;
 8004558:	6ba1      	ldr	r1, [r4, #56]	; 0x38
        hspi->RxXferCount--;
 800455a:	3a01      	subs	r2, #1
 800455c:	b292      	uxth	r2, r2
        hspi->pRxBuffPtr++;
 800455e:	3101      	adds	r1, #1
        txallowed = 1U;
 8004560:	461e      	mov	r6, r3
        hspi->RxXferCount--;
 8004562:	87e2      	strh	r2, [r4, #62]	; 0x3e
        hspi->pRxBuffPtr++;
 8004564:	63a1      	str	r1, [r4, #56]	; 0x38
      if ((((HAL_GetTick() - tickstart) >=  Timeout) && ((Timeout != HAL_MAX_DELAY))) || (Timeout == 0U))
 8004566:	f7fd fa89 	bl	8001a7c <HAL_GetTick>
    while ((hspi->TxXferCount > 0U) || (hspi->RxXferCount > 0U))
 800456a:	8ee3      	ldrh	r3, [r4, #54]	; 0x36
 800456c:	b29b      	uxth	r3, r3
 800456e:	2b00      	cmp	r3, #0
 8004570:	d1d3      	bne.n	800451a <HAL_SPI_TransmitReceive+0xca>
 8004572:	8fe3      	ldrh	r3, [r4, #62]	; 0x3e
 8004574:	b29b      	uxth	r3, r3
 8004576:	2b00      	cmp	r3, #0
 8004578:	d1cf      	bne.n	800451a <HAL_SPI_TransmitReceive+0xca>
  * @retval HAL status
  */
static HAL_StatusTypeDef SPI_EndRxTxTransaction(SPI_HandleTypeDef *hspi, uint32_t Timeout, uint32_t Tickstart)
{
  /* Timeout in s */
  __IO uint32_t count = SPI_BSY_FLAG_WORKAROUND_TIMEOUT * (SystemCoreClock / 24U / 1000000U);
 800457a:	4b7e      	ldr	r3, [pc, #504]	; (8004774 <HAL_SPI_TransmitReceive+0x324>)
 800457c:	4a7e      	ldr	r2, [pc, #504]	; (8004778 <HAL_SPI_TransmitReceive+0x328>)
 800457e:	681b      	ldr	r3, [r3, #0]
  /* Erratasheet: BSY bit may stay high at the end of a data transfer in Slave mode */
  if (hspi->Init.Mode == SPI_MODE_MASTER)
 8004580:	6861      	ldr	r1, [r4, #4]
  __IO uint32_t count = SPI_BSY_FLAG_WORKAROUND_TIMEOUT * (SystemCoreClock / 24U / 1000000U);
 8004582:	fba2 2303 	umull	r2, r3, r2, r3
 8004586:	0d5b      	lsrs	r3, r3, #21
 8004588:	f44f 727a 	mov.w	r2, #1000	; 0x3e8
 800458c:	fb02 f303 	mul.w	r3, r2, r3
  if (hspi->Init.Mode == SPI_MODE_MASTER)
 8004590:	f5b1 7f82 	cmp.w	r1, #260	; 0x104
  __IO uint32_t count = SPI_BSY_FLAG_WORKAROUND_TIMEOUT * (SystemCoreClock / 24U / 1000000U);
 8004594:	9301      	str	r3, [sp, #4]
  if (hspi->Init.Mode == SPI_MODE_MASTER)
 8004596:	d150      	bne.n	800463a <HAL_SPI_TransmitReceive+0x1ea>
  {
    /* Control the BSY flag */
    if (SPI_WaitFlagStateUntilTimeout(hspi, SPI_FLAG_BSY, RESET, Timeout, Tickstart) != HAL_OK)
 8004598:	9a0a      	ldr	r2, [sp, #40]	; 0x28
 800459a:	462b      	mov	r3, r5
 800459c:	2180      	movs	r1, #128	; 0x80
 800459e:	4620      	mov	r0, r4
 80045a0:	f7ff fdf0 	bl	8004184 <SPI_WaitFlagStateUntilTimeout.constprop.0>
 80045a4:	2800      	cmp	r0, #0
 80045a6:	d04b      	beq.n	8004640 <HAL_SPI_TransmitReceive+0x1f0>
    {
      SET_BIT(hspi->ErrorCode, HAL_SPI_ERROR_FLAG);
 80045a8:	6d63      	ldr	r3, [r4, #84]	; 0x54
    hspi->ErrorCode = HAL_SPI_ERROR_FLAG;
 80045aa:	2220      	movs	r2, #32
      SET_BIT(hspi->ErrorCode, HAL_SPI_ERROR_FLAG);
 80045ac:	4313      	orrs	r3, r2
 80045ae:	6563      	str	r3, [r4, #84]	; 0x54
    errorcode = HAL_ERROR;
 80045b0:	2001      	movs	r0, #1
    hspi->ErrorCode = HAL_SPI_ERROR_FLAG;
 80045b2:	6562      	str	r2, [r4, #84]	; 0x54
    goto error;
 80045b4:	e76c      	b.n	8004490 <HAL_SPI_TransmitReceive+0x40>
  assert_param(IS_SPI_DIRECTION_2LINES(hspi->Init.Direction));
 80045b6:	4871      	ldr	r0, [pc, #452]	; (800477c <HAL_SPI_TransmitReceive+0x32c>)
 80045b8:	f240 417e 	movw	r1, #1150	; 0x47e
 80045bc:	f7fd f86e 	bl	800169c <assert_failed>
  __HAL_LOCK(hspi);
 80045c0:	f894 0050 	ldrb.w	r0, [r4, #80]	; 0x50
 80045c4:	2801      	cmp	r0, #1
 80045c6:	f47f af53 	bne.w	8004470 <HAL_SPI_TransmitReceive+0x20>
 80045ca:	2002      	movs	r0, #2
}
 80045cc:	b003      	add	sp, #12
 80045ce:	e8bd 83f0 	ldmia.w	sp!, {r4, r5, r6, r7, r8, r9, pc}
    errorcode = HAL_ERROR;
 80045d2:	2001      	movs	r0, #1
 80045d4:	e75c      	b.n	8004490 <HAL_SPI_TransmitReceive+0x40>
    while ((hspi->TxXferCount > 0U) || (hspi->RxXferCount > 0U))
 80045d6:	8ee3      	ldrh	r3, [r4, #54]	; 0x36
 80045d8:	b29b      	uxth	r3, r3
 80045da:	b91b      	cbnz	r3, 80045e4 <HAL_SPI_TransmitReceive+0x194>
 80045dc:	8fe3      	ldrh	r3, [r4, #62]	; 0x3e
 80045de:	b29b      	uxth	r3, r3
 80045e0:	2b00      	cmp	r3, #0
 80045e2:	d0ca      	beq.n	800457a <HAL_SPI_TransmitReceive+0x12a>
      if ((__HAL_SPI_GET_FLAG(hspi, SPI_FLAG_TXE)) && (hspi->TxXferCount > 0U) && (txallowed == 1U))
 80045e4:	6822      	ldr	r2, [r4, #0]
 80045e6:	6893      	ldr	r3, [r2, #8]
 80045e8:	0799      	lsls	r1, r3, #30
 80045ea:	d50f      	bpl.n	800460c <HAL_SPI_TransmitReceive+0x1bc>
 80045ec:	8ee3      	ldrh	r3, [r4, #54]	; 0x36
 80045ee:	b29b      	uxth	r3, r3
 80045f0:	b163      	cbz	r3, 800460c <HAL_SPI_TransmitReceive+0x1bc>
 80045f2:	b15e      	cbz	r6, 800460c <HAL_SPI_TransmitReceive+0x1bc>
        *(__IO uint8_t *)&hspi->Instance->DR = (*hspi->pTxBuffPtr);
 80045f4:	6b23      	ldr	r3, [r4, #48]	; 0x30
 80045f6:	781b      	ldrb	r3, [r3, #0]
 80045f8:	7313      	strb	r3, [r2, #12]
        hspi->TxXferCount--;
 80045fa:	8ee3      	ldrh	r3, [r4, #54]	; 0x36
        hspi->pTxBuffPtr++;
 80045fc:	6b21      	ldr	r1, [r4, #48]	; 0x30
 80045fe:	6822      	ldr	r2, [r4, #0]
        hspi->TxXferCount--;
 8004600:	3b01      	subs	r3, #1
 8004602:	b29b      	uxth	r3, r3
        hspi->pTxBuffPtr++;
 8004604:	3101      	adds	r1, #1
        hspi->TxXferCount--;
 8004606:	86e3      	strh	r3, [r4, #54]	; 0x36
        hspi->pTxBuffPtr++;
 8004608:	6321      	str	r1, [r4, #48]	; 0x30
        txallowed = 0U;
 800460a:	2600      	movs	r6, #0
      if ((__HAL_SPI_GET_FLAG(hspi, SPI_FLAG_RXNE)) && (hspi->RxXferCount > 0U))
 800460c:	6893      	ldr	r3, [r2, #8]
 800460e:	f013 0301 	ands.w	r3, r3, #1
 8004612:	d003      	beq.n	800461c <HAL_SPI_TransmitReceive+0x1cc>
 8004614:	8fe1      	ldrh	r1, [r4, #62]	; 0x3e
 8004616:	b289      	uxth	r1, r1
 8004618:	2900      	cmp	r1, #0
 800461a:	d167      	bne.n	80046ec <HAL_SPI_TransmitReceive+0x29c>
      if ((((HAL_GetTick() - tickstart) >=  Timeout) && ((Timeout != HAL_MAX_DELAY))) || (Timeout == 0U))
 800461c:	f7fd fa2e 	bl	8001a7c <HAL_GetTick>
 8004620:	9b0a      	ldr	r3, [sp, #40]	; 0x28
 8004622:	1b40      	subs	r0, r0, r5
 8004624:	4298      	cmp	r0, r3
 8004626:	d3d6      	bcc.n	80045d6 <HAL_SPI_TransmitReceive+0x186>
        errorcode = HAL_TIMEOUT;
 8004628:	2003      	movs	r0, #3
 800462a:	e731      	b.n	8004490 <HAL_SPI_TransmitReceive+0x40>
    {
      if (count == 0U)
      {
        break;
      }
      count--;
 800462c:	9b01      	ldr	r3, [sp, #4]
    } while (__HAL_SPI_GET_FLAG(hspi, SPI_FLAG_BSY) != RESET);
 800462e:	6822      	ldr	r2, [r4, #0]
      count--;
 8004630:	3b01      	subs	r3, #1
 8004632:	9301      	str	r3, [sp, #4]
    } while (__HAL_SPI_GET_FLAG(hspi, SPI_FLAG_BSY) != RESET);
 8004634:	6893      	ldr	r3, [r2, #8]
 8004636:	061b      	lsls	r3, r3, #24
 8004638:	d502      	bpl.n	8004640 <HAL_SPI_TransmitReceive+0x1f0>
      if (count == 0U)
 800463a:	9b01      	ldr	r3, [sp, #4]
 800463c:	2b00      	cmp	r3, #0
 800463e:	d1f5      	bne.n	800462c <HAL_SPI_TransmitReceive+0x1dc>
  if (hspi->Init.Direction == SPI_DIRECTION_2LINES)
 8004640:	68a0      	ldr	r0, [r4, #8]
 8004642:	2800      	cmp	r0, #0
 8004644:	f040 8093 	bne.w	800476e <HAL_SPI_TransmitReceive+0x31e>
    __HAL_SPI_CLEAR_OVRFLAG(hspi);
 8004648:	6823      	ldr	r3, [r4, #0]
 800464a:	9000      	str	r0, [sp, #0]
 800464c:	68da      	ldr	r2, [r3, #12]
 800464e:	9200      	str	r2, [sp, #0]
 8004650:	689b      	ldr	r3, [r3, #8]
 8004652:	9300      	str	r3, [sp, #0]
 8004654:	9b00      	ldr	r3, [sp, #0]
 8004656:	e71b      	b.n	8004490 <HAL_SPI_TransmitReceive+0x40>
      *((__IO uint8_t *)&hspi->Instance->DR) = (*hspi->pTxBuffPtr);
 8004658:	f898 3000 	ldrb.w	r3, [r8]
 800465c:	7303      	strb	r3, [r0, #12]
      hspi->TxXferCount--;
 800465e:	8ee3      	ldrh	r3, [r4, #54]	; 0x36
      hspi->pTxBuffPtr += sizeof(uint8_t);
 8004660:	6b22      	ldr	r2, [r4, #48]	; 0x30
      hspi->TxXferCount--;
 8004662:	3b01      	subs	r3, #1
 8004664:	b29b      	uxth	r3, r3
      hspi->pTxBuffPtr += sizeof(uint8_t);
 8004666:	3201      	adds	r2, #1
      hspi->TxXferCount--;
 8004668:	86e3      	strh	r3, [r4, #54]	; 0x36
      hspi->pTxBuffPtr += sizeof(uint8_t);
 800466a:	6322      	str	r2, [r4, #48]	; 0x30
      hspi->TxXferCount--;
 800466c:	e74f      	b.n	800450e <HAL_SPI_TransmitReceive+0xbe>
    if ((hspi->Init.Mode == SPI_MODE_SLAVE) || (initial_TxXferCount == 0x01U))
 800466e:	2b00      	cmp	r3, #0
 8004670:	d148      	bne.n	8004704 <HAL_SPI_TransmitReceive+0x2b4>
      hspi->Instance->DR = *((uint16_t *)hspi->pTxBuffPtr);
 8004672:	4641      	mov	r1, r8
 8004674:	f831 3b02 	ldrh.w	r3, [r1], #2
 8004678:	60c3      	str	r3, [r0, #12]
      hspi->TxXferCount--;
 800467a:	8ee3      	ldrh	r3, [r4, #54]	; 0x36
      hspi->pTxBuffPtr += sizeof(uint16_t);
 800467c:	6321      	str	r1, [r4, #48]	; 0x30
      hspi->TxXferCount--;
 800467e:	3b01      	subs	r3, #1
 8004680:	b29b      	uxth	r3, r3
 8004682:	86e3      	strh	r3, [r4, #54]	; 0x36
 8004684:	9b0a      	ldr	r3, [sp, #40]	; 0x28
 8004686:	3301      	adds	r3, #1
{
 8004688:	f04f 0601 	mov.w	r6, #1
 800468c:	d025      	beq.n	80046da <HAL_SPI_TransmitReceive+0x28a>
 800468e:	e03c      	b.n	800470a <HAL_SPI_TransmitReceive+0x2ba>
      if ((__HAL_SPI_GET_FLAG(hspi, SPI_FLAG_TXE)) && (hspi->TxXferCount > 0U) && (txallowed == 1U))
 8004690:	6822      	ldr	r2, [r4, #0]
 8004692:	6893      	ldr	r3, [r2, #8]
 8004694:	079b      	lsls	r3, r3, #30
 8004696:	d50d      	bpl.n	80046b4 <HAL_SPI_TransmitReceive+0x264>
 8004698:	8ee3      	ldrh	r3, [r4, #54]	; 0x36
 800469a:	b29b      	uxth	r3, r3
 800469c:	b153      	cbz	r3, 80046b4 <HAL_SPI_TransmitReceive+0x264>
 800469e:	b14e      	cbz	r6, 80046b4 <HAL_SPI_TransmitReceive+0x264>
        hspi->Instance->DR = *((uint16_t *)hspi->pTxBuffPtr);
 80046a0:	6b21      	ldr	r1, [r4, #48]	; 0x30
 80046a2:	f831 3b02 	ldrh.w	r3, [r1], #2
 80046a6:	60d3      	str	r3, [r2, #12]
        hspi->TxXferCount--;
 80046a8:	8ee3      	ldrh	r3, [r4, #54]	; 0x36
        hspi->pTxBuffPtr += sizeof(uint16_t);
 80046aa:	6321      	str	r1, [r4, #48]	; 0x30
        hspi->TxXferCount--;
 80046ac:	3b01      	subs	r3, #1
 80046ae:	b29b      	uxth	r3, r3
 80046b0:	86e3      	strh	r3, [r4, #54]	; 0x36
        txallowed = 0U;
 80046b2:	2600      	movs	r6, #0
      if ((__HAL_SPI_GET_FLAG(hspi, SPI_FLAG_RXNE)) && (hspi->RxXferCount > 0U))
 80046b4:	6893      	ldr	r3, [r2, #8]
 80046b6:	f013 0301 	ands.w	r3, r3, #1
 80046ba:	d00c      	beq.n	80046d6 <HAL_SPI_TransmitReceive+0x286>
 80046bc:	8fe1      	ldrh	r1, [r4, #62]	; 0x3e
 80046be:	b289      	uxth	r1, r1
 80046c0:	b149      	cbz	r1, 80046d6 <HAL_SPI_TransmitReceive+0x286>
        *((uint16_t *)hspi->pRxBuffPtr) = (uint16_t)hspi->Instance->DR;
 80046c2:	6ba1      	ldr	r1, [r4, #56]	; 0x38
 80046c4:	68d2      	ldr	r2, [r2, #12]
 80046c6:	f821 2b02 	strh.w	r2, [r1], #2
        hspi->RxXferCount--;
 80046ca:	8fe2      	ldrh	r2, [r4, #62]	; 0x3e
        hspi->pRxBuffPtr += sizeof(uint16_t);
 80046cc:	63a1      	str	r1, [r4, #56]	; 0x38
        hspi->RxXferCount--;
 80046ce:	3a01      	subs	r2, #1
 80046d0:	b292      	uxth	r2, r2
        txallowed = 1U;
 80046d2:	461e      	mov	r6, r3
        hspi->RxXferCount--;
 80046d4:	87e2      	strh	r2, [r4, #62]	; 0x3e
      if (((HAL_GetTick() - tickstart) >=  Timeout) && (Timeout != HAL_MAX_DELAY))
 80046d6:	f7fd f9d1 	bl	8001a7c <HAL_GetTick>
    while ((hspi->TxXferCount > 0U) || (hspi->RxXferCount > 0U))
 80046da:	8ee3      	ldrh	r3, [r4, #54]	; 0x36
 80046dc:	b29b      	uxth	r3, r3
 80046de:	2b00      	cmp	r3, #0
 80046e0:	d1d6      	bne.n	8004690 <HAL_SPI_TransmitReceive+0x240>
 80046e2:	8fe3      	ldrh	r3, [r4, #62]	; 0x3e
 80046e4:	b29b      	uxth	r3, r3
 80046e6:	2b00      	cmp	r3, #0
 80046e8:	d1d2      	bne.n	8004690 <HAL_SPI_TransmitReceive+0x240>
 80046ea:	e746      	b.n	800457a <HAL_SPI_TransmitReceive+0x12a>
        (*(uint8_t *)hspi->pRxBuffPtr) = hspi->Instance->DR;
 80046ec:	6ba1      	ldr	r1, [r4, #56]	; 0x38
 80046ee:	68d2      	ldr	r2, [r2, #12]
 80046f0:	700a      	strb	r2, [r1, #0]
        hspi->RxXferCount--;
 80046f2:	8fe2      	ldrh	r2, [r4, #62]	; 0x3e
        hspi->pRxBuffPtr++;
 80046f4:	6ba1      	ldr	r1, [r4, #56]	; 0x38
        hspi->RxXferCount--;
 80046f6:	3a01      	subs	r2, #1
 80046f8:	b292      	uxth	r2, r2
        hspi->pRxBuffPtr++;
 80046fa:	3101      	adds	r1, #1
        txallowed = 1U;
 80046fc:	461e      	mov	r6, r3
        hspi->RxXferCount--;
 80046fe:	87e2      	strh	r2, [r4, #62]	; 0x3e
        hspi->pRxBuffPtr++;
 8004700:	63a1      	str	r1, [r4, #56]	; 0x38
        txallowed = 1U;
 8004702:	e78b      	b.n	800461c <HAL_SPI_TransmitReceive+0x1cc>
    if ((hspi->Init.Mode == SPI_MODE_SLAVE) || (initial_TxXferCount == 0x01U))
 8004704:	2f01      	cmp	r7, #1
 8004706:	d1bd      	bne.n	8004684 <HAL_SPI_TransmitReceive+0x234>
 8004708:	e7b3      	b.n	8004672 <HAL_SPI_TransmitReceive+0x222>
    while ((hspi->TxXferCount > 0U) || (hspi->RxXferCount > 0U))
 800470a:	8ee3      	ldrh	r3, [r4, #54]	; 0x36
 800470c:	b29b      	uxth	r3, r3
 800470e:	b923      	cbnz	r3, 800471a <HAL_SPI_TransmitReceive+0x2ca>
 8004710:	8fe3      	ldrh	r3, [r4, #62]	; 0x3e
 8004712:	b29b      	uxth	r3, r3
 8004714:	2b00      	cmp	r3, #0
 8004716:	f43f af30 	beq.w	800457a <HAL_SPI_TransmitReceive+0x12a>
      if ((__HAL_SPI_GET_FLAG(hspi, SPI_FLAG_TXE)) && (hspi->TxXferCount > 0U) && (txallowed == 1U))
 800471a:	6822      	ldr	r2, [r4, #0]
 800471c:	6893      	ldr	r3, [r2, #8]
 800471e:	079f      	lsls	r7, r3, #30
 8004720:	d50d      	bpl.n	800473e <HAL_SPI_TransmitReceive+0x2ee>
 8004722:	8ee3      	ldrh	r3, [r4, #54]	; 0x36
 8004724:	b29b      	uxth	r3, r3
 8004726:	b153      	cbz	r3, 800473e <HAL_SPI_TransmitReceive+0x2ee>
 8004728:	b14e      	cbz	r6, 800473e <HAL_SPI_TransmitReceive+0x2ee>
        hspi->Instance->DR = *((uint16_t *)hspi->pTxBuffPtr);
 800472a:	6b21      	ldr	r1, [r4, #48]	; 0x30
 800472c:	f831 3b02 	ldrh.w	r3, [r1], #2
 8004730:	60d3      	str	r3, [r2, #12]
        hspi->TxXferCount--;
 8004732:	8ee3      	ldrh	r3, [r4, #54]	; 0x36
        hspi->pTxBuffPtr += sizeof(uint16_t);
 8004734:	6321      	str	r1, [r4, #48]	; 0x30
        hspi->TxXferCount--;
 8004736:	3b01      	subs	r3, #1
 8004738:	b29b      	uxth	r3, r3
 800473a:	86e3      	strh	r3, [r4, #54]	; 0x36
        txallowed = 0U;
 800473c:	2600      	movs	r6, #0
      if ((__HAL_SPI_GET_FLAG(hspi, SPI_FLAG_RXNE)) && (hspi->RxXferCount > 0U))
 800473e:	6893      	ldr	r3, [r2, #8]
 8004740:	f013 0301 	ands.w	r3, r3, #1
 8004744:	d00c      	beq.n	8004760 <HAL_SPI_TransmitReceive+0x310>
 8004746:	8fe1      	ldrh	r1, [r4, #62]	; 0x3e
 8004748:	b289      	uxth	r1, r1
 800474a:	b149      	cbz	r1, 8004760 <HAL_SPI_TransmitReceive+0x310>
        *((uint16_t *)hspi->pRxBuffPtr) = (uint16_t)hspi->Instance->DR;
 800474c:	6ba1      	ldr	r1, [r4, #56]	; 0x38
 800474e:	68d2      	ldr	r2, [r2, #12]
 8004750:	f821 2b02 	strh.w	r2, [r1], #2
        hspi->RxXferCount--;
 8004754:	8fe2      	ldrh	r2, [r4, #62]	; 0x3e
        hspi->pRxBuffPtr += sizeof(uint16_t);
 8004756:	63a1      	str	r1, [r4, #56]	; 0x38
        hspi->RxXferCount--;
 8004758:	3a01      	subs	r2, #1
 800475a:	b292      	uxth	r2, r2
        txallowed = 1U;
 800475c:	461e      	mov	r6, r3
        hspi->RxXferCount--;
 800475e:	87e2      	strh	r2, [r4, #62]	; 0x3e
      if (((HAL_GetTick() - tickstart) >=  Timeout) && (Timeout != HAL_MAX_DELAY))
 8004760:	f7fd f98c 	bl	8001a7c <HAL_GetTick>
 8004764:	9b0a      	ldr	r3, [sp, #40]	; 0x28
 8004766:	1b40      	subs	r0, r0, r5
 8004768:	4298      	cmp	r0, r3
 800476a:	d3ce      	bcc.n	800470a <HAL_SPI_TransmitReceive+0x2ba>
 800476c:	e75c      	b.n	8004628 <HAL_SPI_TransmitReceive+0x1d8>
  HAL_StatusTypeDef    errorcode = HAL_OK;
 800476e:	2000      	movs	r0, #0
 8004770:	e68e      	b.n	8004490 <HAL_SPI_TransmitReceive+0x40>
 8004772:	bf00      	nop
 8004774:	20000000 	.word	0x20000000
 8004778:	165e9f81 	.word	0x165e9f81
 800477c:	08009718 	.word	0x08009718

08004780 <HAL_SPI_GetState>:
  return hspi->State;
 8004780:	f890 0051 	ldrb.w	r0, [r0, #81]	; 0x51
}
 8004784:	4770      	bx	lr
 8004786:	bf00      	nop

08004788 <HAL_TIM_Base_Init>:
  * @retval HAL status
  */
HAL_StatusTypeDef HAL_TIM_Base_Init(TIM_HandleTypeDef *htim)
{
  /* Check the TIM handle allocation */
  if (htim == NULL)
 8004788:	2800      	cmp	r0, #0
 800478a:	f000 80cd 	beq.w	8004928 <HAL_TIM_Base_Init+0x1a0>
{
 800478e:	b538      	push	{r3, r4, r5, lr}
  {
    return HAL_ERROR;
  }

  /* Check the parameters */
  assert_param(IS_TIM_INSTANCE(htim->Instance));
 8004790:	4a66      	ldr	r2, [pc, #408]	; (800492c <HAL_TIM_Base_Init+0x1a4>)
 8004792:	6803      	ldr	r3, [r0, #0]
 8004794:	4293      	cmp	r3, r2
 8004796:	4604      	mov	r4, r0
 8004798:	d01f      	beq.n	80047da <HAL_TIM_Base_Init+0x52>
 800479a:	f1b3 4f80 	cmp.w	r3, #1073741824	; 0x40000000
 800479e:	d01c      	beq.n	80047da <HAL_TIM_Base_Init+0x52>
 80047a0:	f5a2 427c 	sub.w	r2, r2, #64512	; 0xfc00
 80047a4:	4293      	cmp	r3, r2
 80047a6:	d018      	beq.n	80047da <HAL_TIM_Base_Init+0x52>
 80047a8:	f502 6280 	add.w	r2, r2, #1024	; 0x400
 80047ac:	4293      	cmp	r3, r2
 80047ae:	d014      	beq.n	80047da <HAL_TIM_Base_Init+0x52>
 80047b0:	f502 6280 	add.w	r2, r2, #1024	; 0x400
 80047b4:	4293      	cmp	r3, r2
 80047b6:	d010      	beq.n	80047da <HAL_TIM_Base_Init+0x52>
 80047b8:	f502 329a 	add.w	r2, r2, #78848	; 0x13400
 80047bc:	4293      	cmp	r3, r2
 80047be:	d00c      	beq.n	80047da <HAL_TIM_Base_Init+0x52>
 80047c0:	f502 6280 	add.w	r2, r2, #1024	; 0x400
 80047c4:	4293      	cmp	r3, r2
 80047c6:	d008      	beq.n	80047da <HAL_TIM_Base_Init+0x52>
 80047c8:	f502 6280 	add.w	r2, r2, #1024	; 0x400
 80047cc:	4293      	cmp	r3, r2
 80047ce:	d004      	beq.n	80047da <HAL_TIM_Base_Init+0x52>
 80047d0:	4857      	ldr	r0, [pc, #348]	; (8004930 <HAL_TIM_Base_Init+0x1a8>)
 80047d2:	f240 1113 	movw	r1, #275	; 0x113
 80047d6:	f7fc ff61 	bl	800169c <assert_failed>
  assert_param(IS_TIM_COUNTER_MODE(htim->Init.CounterMode));
 80047da:	68a3      	ldr	r3, [r4, #8]
 80047dc:	f033 0210 	bics.w	r2, r3, #16
 80047e0:	d00a      	beq.n	80047f8 <HAL_TIM_Base_Init+0x70>
 80047e2:	f023 0240 	bic.w	r2, r3, #64	; 0x40
 80047e6:	2a20      	cmp	r2, #32
 80047e8:	d006      	beq.n	80047f8 <HAL_TIM_Base_Init+0x70>
 80047ea:	2b40      	cmp	r3, #64	; 0x40
 80047ec:	d004      	beq.n	80047f8 <HAL_TIM_Base_Init+0x70>
 80047ee:	4850      	ldr	r0, [pc, #320]	; (8004930 <HAL_TIM_Base_Init+0x1a8>)
 80047f0:	f44f 718a 	mov.w	r1, #276	; 0x114
 80047f4:	f7fc ff52 	bl	800169c <assert_failed>
  assert_param(IS_TIM_CLOCKDIVISION_DIV(htim->Init.ClockDivision));
 80047f8:	6923      	ldr	r3, [r4, #16]
 80047fa:	f433 7280 	bics.w	r2, r3, #256	; 0x100
 80047fe:	d003      	beq.n	8004808 <HAL_TIM_Base_Init+0x80>
 8004800:	f5b3 7f00 	cmp.w	r3, #512	; 0x200
 8004804:	f040 8085 	bne.w	8004912 <HAL_TIM_Base_Init+0x18a>
  assert_param(IS_TIM_AUTORELOAD_PRELOAD(htim->Init.AutoReloadPreload));
 8004808:	69a3      	ldr	r3, [r4, #24]
 800480a:	f033 0380 	bics.w	r3, r3, #128	; 0x80
 800480e:	d132      	bne.n	8004876 <HAL_TIM_Base_Init+0xee>

  if (htim->State == HAL_TIM_STATE_RESET)
 8004810:	f894 303d 	ldrb.w	r3, [r4, #61]	; 0x3d
 8004814:	f003 02ff 	and.w	r2, r3, #255	; 0xff
 8004818:	2b00      	cmp	r3, #0
 800481a:	d037      	beq.n	800488c <HAL_TIM_Base_Init+0x104>

  /* Set the TIM state */
  htim->State = HAL_TIM_STATE_BUSY;

  /* Set the Time Base configuration */
  TIM_Base_SetConfig(htim->Instance, &htim->Init);
 800481c:	6822      	ldr	r2, [r4, #0]
{
  uint32_t tmpcr1;
  tmpcr1 = TIMx->CR1;

  /* Set TIM Time Base Unit parameters ---------------------------------------*/
  if (IS_TIM_COUNTER_MODE_SELECT_INSTANCE(TIMx))
 800481e:	4943      	ldr	r1, [pc, #268]	; (800492c <HAL_TIM_Base_Init+0x1a4>)
  htim->State = HAL_TIM_STATE_BUSY;
 8004820:	2302      	movs	r3, #2
 8004822:	f884 303d 	strb.w	r3, [r4, #61]	; 0x3d
  if (IS_TIM_COUNTER_MODE_SELECT_INSTANCE(TIMx))
 8004826:	428a      	cmp	r2, r1
  tmpcr1 = TIMx->CR1;
 8004828:	6813      	ldr	r3, [r2, #0]
  if (IS_TIM_COUNTER_MODE_SELECT_INSTANCE(TIMx))
 800482a:	d05e      	beq.n	80048ea <HAL_TIM_Base_Init+0x162>
 800482c:	f1b2 4f80 	cmp.w	r2, #1073741824	; 0x40000000
 8004830:	d032      	beq.n	8004898 <HAL_TIM_Base_Init+0x110>
 8004832:	f5a1 417c 	sub.w	r1, r1, #64512	; 0xfc00
 8004836:	428a      	cmp	r2, r1
 8004838:	d02e      	beq.n	8004898 <HAL_TIM_Base_Init+0x110>
 800483a:	f501 6180 	add.w	r1, r1, #1024	; 0x400
 800483e:	428a      	cmp	r2, r1
 8004840:	d02a      	beq.n	8004898 <HAL_TIM_Base_Init+0x110>
 8004842:	f501 6180 	add.w	r1, r1, #1024	; 0x400
 8004846:	428a      	cmp	r2, r1
 8004848:	d026      	beq.n	8004898 <HAL_TIM_Base_Init+0x110>
    /* Select the Counter Mode */
    tmpcr1 &= ~(TIM_CR1_DIR | TIM_CR1_CMS);
    tmpcr1 |= Structure->CounterMode;
  }

  if (IS_TIM_CLOCK_DIVISION_INSTANCE(TIMx))
 800484a:	f501 319a 	add.w	r1, r1, #78848	; 0x13400
 800484e:	428a      	cmp	r2, r1
 8004850:	d026      	beq.n	80048a0 <HAL_TIM_Base_Init+0x118>
 8004852:	f501 6180 	add.w	r1, r1, #1024	; 0x400
 8004856:	428a      	cmp	r2, r1
 8004858:	d022      	beq.n	80048a0 <HAL_TIM_Base_Init+0x118>
 800485a:	f501 6180 	add.w	r1, r1, #1024	; 0x400
 800485e:	428a      	cmp	r2, r1
 8004860:	d01e      	beq.n	80048a0 <HAL_TIM_Base_Init+0x118>
    tmpcr1 &= ~TIM_CR1_CKD;
    tmpcr1 |= (uint32_t)Structure->ClockDivision;
  }

  /* Set the auto-reload preload */
  MODIFY_REG(tmpcr1, TIM_CR1_ARPE, Structure->AutoReloadPreload);
 8004862:	69a5      	ldr	r5, [r4, #24]

  TIMx->CR1 = tmpcr1;

  /* Set the Autoreload value */
  TIMx->ARR = (uint32_t)Structure->Period ;
 8004864:	68e0      	ldr	r0, [r4, #12]

  /* Set the Prescaler value */
  TIMx->PSC = Structure->Prescaler;
 8004866:	6861      	ldr	r1, [r4, #4]
  MODIFY_REG(tmpcr1, TIM_CR1_ARPE, Structure->AutoReloadPreload);
 8004868:	f023 0380 	bic.w	r3, r3, #128	; 0x80
 800486c:	432b      	orrs	r3, r5
  TIMx->CR1 = tmpcr1;
 800486e:	6013      	str	r3, [r2, #0]
  TIMx->ARR = (uint32_t)Structure->Period ;
 8004870:	62d0      	str	r0, [r2, #44]	; 0x2c
  TIMx->PSC = Structure->Prescaler;
 8004872:	6291      	str	r1, [r2, #40]	; 0x28

  if (IS_TIM_REPETITION_COUNTER_INSTANCE(TIMx))
 8004874:	e021      	b.n	80048ba <HAL_TIM_Base_Init+0x132>
  assert_param(IS_TIM_AUTORELOAD_PRELOAD(htim->Init.AutoReloadPreload));
 8004876:	482e      	ldr	r0, [pc, #184]	; (8004930 <HAL_TIM_Base_Init+0x1a8>)
 8004878:	f44f 718b 	mov.w	r1, #278	; 0x116
 800487c:	f7fc ff0e 	bl	800169c <assert_failed>
  if (htim->State == HAL_TIM_STATE_RESET)
 8004880:	f894 303d 	ldrb.w	r3, [r4, #61]	; 0x3d
 8004884:	f003 02ff 	and.w	r2, r3, #255	; 0xff
 8004888:	2b00      	cmp	r3, #0
 800488a:	d1c7      	bne.n	800481c <HAL_TIM_Base_Init+0x94>
    htim->Lock = HAL_UNLOCKED;
 800488c:	f884 203c 	strb.w	r2, [r4, #60]	; 0x3c
    HAL_TIM_Base_MspInit(htim);
 8004890:	4620      	mov	r0, r4
 8004892:	f7fd f863 	bl	800195c <HAL_TIM_Base_MspInit>
 8004896:	e7c1      	b.n	800481c <HAL_TIM_Base_Init+0x94>
    tmpcr1 |= Structure->CounterMode;
 8004898:	68a1      	ldr	r1, [r4, #8]
    tmpcr1 &= ~(TIM_CR1_DIR | TIM_CR1_CMS);
 800489a:	f023 0370 	bic.w	r3, r3, #112	; 0x70
    tmpcr1 |= Structure->CounterMode;
 800489e:	430b      	orrs	r3, r1
    tmpcr1 |= (uint32_t)Structure->ClockDivision;
 80048a0:	6925      	ldr	r5, [r4, #16]
  MODIFY_REG(tmpcr1, TIM_CR1_ARPE, Structure->AutoReloadPreload);
 80048a2:	69a1      	ldr	r1, [r4, #24]
  TIMx->ARR = (uint32_t)Structure->Period ;
 80048a4:	68e0      	ldr	r0, [r4, #12]
    tmpcr1 &= ~TIM_CR1_CKD;
 80048a6:	f423 7340 	bic.w	r3, r3, #768	; 0x300
    tmpcr1 |= (uint32_t)Structure->ClockDivision;
 80048aa:	432b      	orrs	r3, r5
  MODIFY_REG(tmpcr1, TIM_CR1_ARPE, Structure->AutoReloadPreload);
 80048ac:	f023 0380 	bic.w	r3, r3, #128	; 0x80
 80048b0:	430b      	orrs	r3, r1
  TIMx->PSC = Structure->Prescaler;
 80048b2:	6861      	ldr	r1, [r4, #4]
  TIMx->CR1 = tmpcr1;
 80048b4:	6013      	str	r3, [r2, #0]
  TIMx->ARR = (uint32_t)Structure->Period ;
 80048b6:	62d0      	str	r0, [r2, #44]	; 0x2c
  TIMx->PSC = Structure->Prescaler;
 80048b8:	6291      	str	r1, [r2, #40]	; 0x28
    TIMx->RCR = Structure->RepetitionCounter;
  }

  /* Generate an update event to reload the Prescaler
     and the repetition counter (only for advanced timer) value immediately */
  TIMx->EGR = TIM_EGR_UG;
 80048ba:	2301      	movs	r3, #1
 80048bc:	6153      	str	r3, [r2, #20]
  htim->DMABurstState = HAL_DMA_BURST_STATE_READY;
 80048be:	f884 3046 	strb.w	r3, [r4, #70]	; 0x46
  TIM_CHANNEL_STATE_SET_ALL(htim, HAL_TIM_CHANNEL_STATE_READY);
 80048c2:	f884 303e 	strb.w	r3, [r4, #62]	; 0x3e
 80048c6:	f884 303f 	strb.w	r3, [r4, #63]	; 0x3f
 80048ca:	f884 3040 	strb.w	r3, [r4, #64]	; 0x40
 80048ce:	f884 3041 	strb.w	r3, [r4, #65]	; 0x41
  TIM_CHANNEL_N_STATE_SET_ALL(htim, HAL_TIM_CHANNEL_STATE_READY);
 80048d2:	f884 3042 	strb.w	r3, [r4, #66]	; 0x42
 80048d6:	f884 3043 	strb.w	r3, [r4, #67]	; 0x43
 80048da:	f884 3044 	strb.w	r3, [r4, #68]	; 0x44
 80048de:	f884 3045 	strb.w	r3, [r4, #69]	; 0x45
  htim->State = HAL_TIM_STATE_READY;
 80048e2:	f884 303d 	strb.w	r3, [r4, #61]	; 0x3d
  return HAL_OK;
 80048e6:	2000      	movs	r0, #0
}
 80048e8:	bd38      	pop	{r3, r4, r5, pc}
    tmpcr1 |= Structure->CounterMode;
 80048ea:	68a5      	ldr	r5, [r4, #8]
    tmpcr1 |= (uint32_t)Structure->ClockDivision;
 80048ec:	6920      	ldr	r0, [r4, #16]
  MODIFY_REG(tmpcr1, TIM_CR1_ARPE, Structure->AutoReloadPreload);
 80048ee:	69a1      	ldr	r1, [r4, #24]
    tmpcr1 &= ~(TIM_CR1_DIR | TIM_CR1_CMS);
 80048f0:	f023 0370 	bic.w	r3, r3, #112	; 0x70
    tmpcr1 |= Structure->CounterMode;
 80048f4:	432b      	orrs	r3, r5
    tmpcr1 &= ~TIM_CR1_CKD;
 80048f6:	f423 7340 	bic.w	r3, r3, #768	; 0x300
    tmpcr1 |= (uint32_t)Structure->ClockDivision;
 80048fa:	4303      	orrs	r3, r0
  MODIFY_REG(tmpcr1, TIM_CR1_ARPE, Structure->AutoReloadPreload);
 80048fc:	f023 0380 	bic.w	r3, r3, #128	; 0x80
 8004900:	430b      	orrs	r3, r1
  TIMx->CR1 = tmpcr1;
 8004902:	6013      	str	r3, [r2, #0]
  TIMx->ARR = (uint32_t)Structure->Period ;
 8004904:	68e3      	ldr	r3, [r4, #12]
 8004906:	62d3      	str	r3, [r2, #44]	; 0x2c
  TIMx->PSC = Structure->Prescaler;
 8004908:	6863      	ldr	r3, [r4, #4]
 800490a:	6293      	str	r3, [r2, #40]	; 0x28
    TIMx->RCR = Structure->RepetitionCounter;
 800490c:	6963      	ldr	r3, [r4, #20]
 800490e:	6313      	str	r3, [r2, #48]	; 0x30
 8004910:	e7d3      	b.n	80048ba <HAL_TIM_Base_Init+0x132>
  assert_param(IS_TIM_CLOCKDIVISION_DIV(htim->Init.ClockDivision));
 8004912:	4807      	ldr	r0, [pc, #28]	; (8004930 <HAL_TIM_Base_Init+0x1a8>)
 8004914:	f240 1115 	movw	r1, #277	; 0x115
 8004918:	f7fc fec0 	bl	800169c <assert_failed>
  assert_param(IS_TIM_AUTORELOAD_PRELOAD(htim->Init.AutoReloadPreload));
 800491c:	69a3      	ldr	r3, [r4, #24]
 800491e:	f033 0380 	bics.w	r3, r3, #128	; 0x80
 8004922:	f43f af75 	beq.w	8004810 <HAL_TIM_Base_Init+0x88>
 8004926:	e7a6      	b.n	8004876 <HAL_TIM_Base_Init+0xee>
    return HAL_ERROR;
 8004928:	2001      	movs	r0, #1
}
 800492a:	4770      	bx	lr
 800492c:	40010000 	.word	0x40010000
 8004930:	08009750 	.word	0x08009750

08004934 <HAL_TIM_Base_Start_IT>:
  assert_param(IS_TIM_INSTANCE(htim->Instance));
 8004934:	4a2a      	ldr	r2, [pc, #168]	; (80049e0 <HAL_TIM_Base_Start_IT+0xac>)
 8004936:	6803      	ldr	r3, [r0, #0]
 8004938:	4293      	cmp	r3, r2
{
 800493a:	b510      	push	{r4, lr}
 800493c:	4604      	mov	r4, r0
  assert_param(IS_TIM_INSTANCE(htim->Instance));
 800493e:	d01f      	beq.n	8004980 <HAL_TIM_Base_Start_IT+0x4c>
 8004940:	f1b3 4f80 	cmp.w	r3, #1073741824	; 0x40000000
 8004944:	d01c      	beq.n	8004980 <HAL_TIM_Base_Start_IT+0x4c>
 8004946:	f5a2 427c 	sub.w	r2, r2, #64512	; 0xfc00
 800494a:	4293      	cmp	r3, r2
 800494c:	d018      	beq.n	8004980 <HAL_TIM_Base_Start_IT+0x4c>
 800494e:	f502 6280 	add.w	r2, r2, #1024	; 0x400
 8004952:	4293      	cmp	r3, r2
 8004954:	d014      	beq.n	8004980 <HAL_TIM_Base_Start_IT+0x4c>
 8004956:	f502 6280 	add.w	r2, r2, #1024	; 0x400
 800495a:	4293      	cmp	r3, r2
 800495c:	d010      	beq.n	8004980 <HAL_TIM_Base_Start_IT+0x4c>
 800495e:	f502 329a 	add.w	r2, r2, #78848	; 0x13400
 8004962:	4293      	cmp	r3, r2
 8004964:	d00c      	beq.n	8004980 <HAL_TIM_Base_Start_IT+0x4c>
 8004966:	f502 6280 	add.w	r2, r2, #1024	; 0x400
 800496a:	4293      	cmp	r3, r2
 800496c:	d008      	beq.n	8004980 <HAL_TIM_Base_Start_IT+0x4c>
 800496e:	f502 6280 	add.w	r2, r2, #1024	; 0x400
 8004972:	4293      	cmp	r3, r2
 8004974:	d004      	beq.n	8004980 <HAL_TIM_Base_Start_IT+0x4c>
 8004976:	481b      	ldr	r0, [pc, #108]	; (80049e4 <HAL_TIM_Base_Start_IT+0xb0>)
 8004978:	f240 11cf 	movw	r1, #463	; 0x1cf
 800497c:	f7fc fe8e 	bl	800169c <assert_failed>
  if (htim->State != HAL_TIM_STATE_READY)
 8004980:	f894 303d 	ldrb.w	r3, [r4, #61]	; 0x3d
 8004984:	2b01      	cmp	r3, #1
 8004986:	d127      	bne.n	80049d8 <HAL_TIM_Base_Start_IT+0xa4>
  __HAL_TIM_ENABLE_IT(htim, TIM_IT_UPDATE);
 8004988:	6823      	ldr	r3, [r4, #0]
  if (IS_TIM_SLAVE_INSTANCE(htim->Instance))
 800498a:	4915      	ldr	r1, [pc, #84]	; (80049e0 <HAL_TIM_Base_Start_IT+0xac>)
  htim->State = HAL_TIM_STATE_BUSY;
 800498c:	2202      	movs	r2, #2
 800498e:	f884 203d 	strb.w	r2, [r4, #61]	; 0x3d
  __HAL_TIM_ENABLE_IT(htim, TIM_IT_UPDATE);
 8004992:	68da      	ldr	r2, [r3, #12]
  if (IS_TIM_SLAVE_INSTANCE(htim->Instance))
 8004994:	428b      	cmp	r3, r1
  __HAL_TIM_ENABLE_IT(htim, TIM_IT_UPDATE);
 8004996:	f042 0201 	orr.w	r2, r2, #1
 800499a:	60da      	str	r2, [r3, #12]
  if (IS_TIM_SLAVE_INSTANCE(htim->Instance))
 800499c:	d011      	beq.n	80049c2 <HAL_TIM_Base_Start_IT+0x8e>
 800499e:	f1b3 4f80 	cmp.w	r3, #1073741824	; 0x40000000
 80049a2:	d00e      	beq.n	80049c2 <HAL_TIM_Base_Start_IT+0x8e>
 80049a4:	4a10      	ldr	r2, [pc, #64]	; (80049e8 <HAL_TIM_Base_Start_IT+0xb4>)
 80049a6:	4293      	cmp	r3, r2
 80049a8:	d00b      	beq.n	80049c2 <HAL_TIM_Base_Start_IT+0x8e>
 80049aa:	f502 6280 	add.w	r2, r2, #1024	; 0x400
 80049ae:	4293      	cmp	r3, r2
 80049b0:	d007      	beq.n	80049c2 <HAL_TIM_Base_Start_IT+0x8e>
 80049b2:	f502 6280 	add.w	r2, r2, #1024	; 0x400
 80049b6:	4293      	cmp	r3, r2
 80049b8:	d003      	beq.n	80049c2 <HAL_TIM_Base_Start_IT+0x8e>
 80049ba:	f502 329a 	add.w	r2, r2, #78848	; 0x13400
 80049be:	4293      	cmp	r3, r2
 80049c0:	d104      	bne.n	80049cc <HAL_TIM_Base_Start_IT+0x98>
    tmpsmcr = htim->Instance->SMCR & TIM_SMCR_SMS;
 80049c2:	689a      	ldr	r2, [r3, #8]
 80049c4:	f002 0207 	and.w	r2, r2, #7
    if (!IS_TIM_SLAVEMODE_TRIGGER_ENABLED(tmpsmcr))
 80049c8:	2a06      	cmp	r2, #6
 80049ca:	d007      	beq.n	80049dc <HAL_TIM_Base_Start_IT+0xa8>
    __HAL_TIM_ENABLE(htim);
 80049cc:	681a      	ldr	r2, [r3, #0]
 80049ce:	f042 0201 	orr.w	r2, r2, #1
 80049d2:	601a      	str	r2, [r3, #0]
  return HAL_OK;
 80049d4:	2000      	movs	r0, #0
}
 80049d6:	bd10      	pop	{r4, pc}
    return HAL_ERROR;
 80049d8:	2001      	movs	r0, #1
}
 80049da:	bd10      	pop	{r4, pc}
  return HAL_OK;
 80049dc:	2000      	movs	r0, #0
}
 80049de:	bd10      	pop	{r4, pc}
 80049e0:	40010000 	.word	0x40010000
 80049e4:	08009750 	.word	0x08009750
 80049e8:	40000400 	.word	0x40000400

080049ec <HAL_TIM_ConfigClockSource>:
  __HAL_LOCK(htim);
 80049ec:	f890 303c 	ldrb.w	r3, [r0, #60]	; 0x3c
 80049f0:	2b01      	cmp	r3, #1
 80049f2:	f000 8177 	beq.w	8004ce4 <HAL_TIM_ConfigClockSource+0x2f8>
  htim->State = HAL_TIM_STATE_BUSY;
 80049f6:	2302      	movs	r3, #2
  __HAL_LOCK(htim);
 80049f8:	2201      	movs	r2, #1
{
 80049fa:	b570      	push	{r4, r5, r6, lr}
  __HAL_LOCK(htim);
 80049fc:	f880 203c 	strb.w	r2, [r0, #60]	; 0x3c
  htim->State = HAL_TIM_STATE_BUSY;
 8004a00:	f880 303d 	strb.w	r3, [r0, #61]	; 0x3d
  assert_param(IS_TIM_CLOCKSOURCE(sClockSourceConfig->ClockSource));
 8004a04:	680b      	ldr	r3, [r1, #0]
 8004a06:	f5b3 5f80 	cmp.w	r3, #4096	; 0x1000
 8004a0a:	4604      	mov	r4, r0
 8004a0c:	460d      	mov	r5, r1
 8004a0e:	f000 8124 	beq.w	8004c5a <HAL_TIM_ConfigClockSource+0x26e>
 8004a12:	f5b3 5f00 	cmp.w	r3, #8192	; 0x2000
 8004a16:	f000 8153 	beq.w	8004cc0 <HAL_TIM_ConfigClockSource+0x2d4>
 8004a1a:	f033 0230 	bics.w	r2, r3, #48	; 0x30
 8004a1e:	f040 8157 	bne.w	8004cd0 <HAL_TIM_ConfigClockSource+0x2e4>
  tmpsmcr = htim->Instance->SMCR;
 8004a22:	6822      	ldr	r2, [r4, #0]
 8004a24:	6891      	ldr	r1, [r2, #8]
  tmpsmcr &= ~(TIM_SMCR_ETF | TIM_SMCR_ETPS | TIM_SMCR_ECE | TIM_SMCR_ETP);
 8004a26:	f421 417f 	bic.w	r1, r1, #65280	; 0xff00
 8004a2a:	f021 0177 	bic.w	r1, r1, #119	; 0x77
  switch (sClockSourceConfig->ClockSource)
 8004a2e:	2b60      	cmp	r3, #96	; 0x60
  htim->Instance->SMCR = tmpsmcr;
 8004a30:	6091      	str	r1, [r2, #8]
  switch (sClockSourceConfig->ClockSource)
 8004a32:	f000 81a1 	beq.w	8004d78 <HAL_TIM_ConfigClockSource+0x38c>
 8004a36:	d87e      	bhi.n	8004b36 <HAL_TIM_ConfigClockSource+0x14a>
 8004a38:	2b40      	cmp	r3, #64	; 0x40
 8004a3a:	f000 8159 	beq.w	8004cf0 <HAL_TIM_ConfigClockSource+0x304>
 8004a3e:	d94c      	bls.n	8004ada <HAL_TIM_ConfigClockSource+0xee>
 8004a40:	2b50      	cmp	r3, #80	; 0x50
 8004a42:	d143      	bne.n	8004acc <HAL_TIM_ConfigClockSource+0xe0>
      assert_param(IS_TIM_CLOCKSOURCE_TIX_INSTANCE(htim->Instance));
 8004a44:	4ba8      	ldr	r3, [pc, #672]	; (8004ce8 <HAL_TIM_ConfigClockSource+0x2fc>)
 8004a46:	429a      	cmp	r2, r3
 8004a48:	d017      	beq.n	8004a7a <HAL_TIM_ConfigClockSource+0x8e>
 8004a4a:	f1b2 4f80 	cmp.w	r2, #1073741824	; 0x40000000
 8004a4e:	d014      	beq.n	8004a7a <HAL_TIM_ConfigClockSource+0x8e>
 8004a50:	f5a3 437c 	sub.w	r3, r3, #64512	; 0xfc00
 8004a54:	429a      	cmp	r2, r3
 8004a56:	d010      	beq.n	8004a7a <HAL_TIM_ConfigClockSource+0x8e>
 8004a58:	f503 6380 	add.w	r3, r3, #1024	; 0x400
 8004a5c:	429a      	cmp	r2, r3
 8004a5e:	d00c      	beq.n	8004a7a <HAL_TIM_ConfigClockSource+0x8e>
 8004a60:	f503 6380 	add.w	r3, r3, #1024	; 0x400
 8004a64:	429a      	cmp	r2, r3
 8004a66:	d008      	beq.n	8004a7a <HAL_TIM_ConfigClockSource+0x8e>
 8004a68:	f503 339a 	add.w	r3, r3, #78848	; 0x13400
 8004a6c:	429a      	cmp	r2, r3
 8004a6e:	d004      	beq.n	8004a7a <HAL_TIM_ConfigClockSource+0x8e>
 8004a70:	489e      	ldr	r0, [pc, #632]	; (8004cec <HAL_TIM_ConfigClockSource+0x300>)
 8004a72:	f241 4161 	movw	r1, #5217	; 0x1461
 8004a76:	f7fc fe11 	bl	800169c <assert_failed>
      assert_param(IS_TIM_CLOCKPOLARITY(sClockSourceConfig->ClockPolarity));
 8004a7a:	686b      	ldr	r3, [r5, #4]
 8004a7c:	f5b3 4f00 	cmp.w	r3, #32768	; 0x8000
 8004a80:	d009      	beq.n	8004a96 <HAL_TIM_ConfigClockSource+0xaa>
 8004a82:	f033 0202 	bics.w	r2, r3, #2
 8004a86:	d006      	beq.n	8004a96 <HAL_TIM_ConfigClockSource+0xaa>
 8004a88:	2b0a      	cmp	r3, #10
 8004a8a:	d004      	beq.n	8004a96 <HAL_TIM_ConfigClockSource+0xaa>
 8004a8c:	4897      	ldr	r0, [pc, #604]	; (8004cec <HAL_TIM_ConfigClockSource+0x300>)
 8004a8e:	f241 4164 	movw	r1, #5220	; 0x1464
 8004a92:	f7fc fe03 	bl	800169c <assert_failed>
      assert_param(IS_TIM_CLOCKFILTER(sClockSourceConfig->ClockFilter));
 8004a96:	68ee      	ldr	r6, [r5, #12]
 8004a98:	2e0f      	cmp	r6, #15
 8004a9a:	f200 81ce 	bhi.w	8004e3a <HAL_TIM_ConfigClockSource+0x44e>
      TIM_TI1_ConfigInputStage(htim->Instance,
 8004a9e:	6823      	ldr	r3, [r4, #0]
 8004aa0:	6869      	ldr	r1, [r5, #4]
{
  uint32_t tmpccmr1;
  uint32_t tmpccer;

  /* Disable the Channel 1: Reset the CC1E Bit */
  tmpccer = TIMx->CCER;
 8004aa2:	6a18      	ldr	r0, [r3, #32]
  TIMx->CCER &= ~TIM_CCER_CC1E;
 8004aa4:	6a1d      	ldr	r5, [r3, #32]
 8004aa6:	f025 0501 	bic.w	r5, r5, #1
 8004aaa:	621d      	str	r5, [r3, #32]
  tmpccmr1 = TIMx->CCMR1;
 8004aac:	699a      	ldr	r2, [r3, #24]
  /* Set the filter */
  tmpccmr1 &= ~TIM_CCMR1_IC1F;
  tmpccmr1 |= (TIM_ICFilter << 4U);

  /* Select the Polarity and set the CC1E Bit */
  tmpccer &= ~(TIM_CCER_CC1P | TIM_CCER_CC1NP);
 8004aae:	f020 000a 	bic.w	r0, r0, #10
  tmpccmr1 &= ~TIM_CCMR1_IC1F;
 8004ab2:	f022 02f0 	bic.w	r2, r2, #240	; 0xf0
  tmpccmr1 |= (TIM_ICFilter << 4U);
 8004ab6:	ea42 1206 	orr.w	r2, r2, r6, lsl #4
  tmpccer |= TIM_ICPolarity;
 8004aba:	4301      	orrs	r1, r0

  /* Write to TIMx CCMR1 and CCER registers */
  TIMx->CCMR1 = tmpccmr1;
 8004abc:	619a      	str	r2, [r3, #24]
  TIMx->CCER = tmpccer;
 8004abe:	6219      	str	r1, [r3, #32]
static void TIM_ITRx_SetConfig(TIM_TypeDef *TIMx, uint32_t InputTriggerSource)
{
  uint32_t tmpsmcr;

  /* Get the TIMx SMCR register value */
  tmpsmcr = TIMx->SMCR;
 8004ac0:	689a      	ldr	r2, [r3, #8]
  /* Reset the TS Bits */
  tmpsmcr &= ~TIM_SMCR_TS;
 8004ac2:	f022 0270 	bic.w	r2, r2, #112	; 0x70
  /* Set the Input Trigger source and the slave mode*/
  tmpsmcr |= (InputTriggerSource | TIM_SLAVEMODE_EXTERNAL1);
 8004ac6:	f042 0257 	orr.w	r2, r2, #87	; 0x57
  /* Write to TIMx SMCR */
  TIMx->SMCR = tmpsmcr;
 8004aca:	609a      	str	r2, [r3, #8]
  htim->State = HAL_TIM_STATE_READY;
 8004acc:	2301      	movs	r3, #1
  __HAL_UNLOCK(htim);
 8004ace:	2000      	movs	r0, #0
  htim->State = HAL_TIM_STATE_READY;
 8004ad0:	f884 303d 	strb.w	r3, [r4, #61]	; 0x3d
  __HAL_UNLOCK(htim);
 8004ad4:	f884 003c 	strb.w	r0, [r4, #60]	; 0x3c
}
 8004ad8:	bd70      	pop	{r4, r5, r6, pc}
  switch (sClockSourceConfig->ClockSource)
 8004ada:	2b20      	cmp	r3, #32
 8004adc:	d002      	beq.n	8004ae4 <HAL_TIM_ConfigClockSource+0xf8>
 8004ade:	d926      	bls.n	8004b2e <HAL_TIM_ConfigClockSource+0x142>
 8004ae0:	2b30      	cmp	r3, #48	; 0x30
 8004ae2:	d1f3      	bne.n	8004acc <HAL_TIM_ConfigClockSource+0xe0>
        assert_param(IS_TIM_CLOCKSOURCE_ITRX_INSTANCE(htim->Instance));
 8004ae4:	4980      	ldr	r1, [pc, #512]	; (8004ce8 <HAL_TIM_ConfigClockSource+0x2fc>)
 8004ae6:	428a      	cmp	r2, r1
 8004ae8:	d019      	beq.n	8004b1e <HAL_TIM_ConfigClockSource+0x132>
 8004aea:	f1b2 4f80 	cmp.w	r2, #1073741824	; 0x40000000
 8004aee:	d016      	beq.n	8004b1e <HAL_TIM_ConfigClockSource+0x132>
 8004af0:	f5a1 417c 	sub.w	r1, r1, #64512	; 0xfc00
 8004af4:	428a      	cmp	r2, r1
 8004af6:	d012      	beq.n	8004b1e <HAL_TIM_ConfigClockSource+0x132>
 8004af8:	f501 6180 	add.w	r1, r1, #1024	; 0x400
 8004afc:	428a      	cmp	r2, r1
 8004afe:	d00e      	beq.n	8004b1e <HAL_TIM_ConfigClockSource+0x132>
 8004b00:	f501 6180 	add.w	r1, r1, #1024	; 0x400
 8004b04:	428a      	cmp	r2, r1
 8004b06:	d00a      	beq.n	8004b1e <HAL_TIM_ConfigClockSource+0x132>
 8004b08:	f501 319a 	add.w	r1, r1, #78848	; 0x13400
 8004b0c:	428a      	cmp	r2, r1
 8004b0e:	d006      	beq.n	8004b1e <HAL_TIM_ConfigClockSource+0x132>
 8004b10:	4876      	ldr	r0, [pc, #472]	; (8004cec <HAL_TIM_ConfigClockSource+0x300>)
 8004b12:	f241 4194 	movw	r1, #5268	; 0x1494
 8004b16:	f7fc fdc1 	bl	800169c <assert_failed>
 8004b1a:	682b      	ldr	r3, [r5, #0]
 8004b1c:	6822      	ldr	r2, [r4, #0]
  tmpsmcr = TIMx->SMCR;
 8004b1e:	6891      	ldr	r1, [r2, #8]
  tmpsmcr &= ~TIM_SMCR_TS;
 8004b20:	f021 0170 	bic.w	r1, r1, #112	; 0x70
  tmpsmcr |= (InputTriggerSource | TIM_SLAVEMODE_EXTERNAL1);
 8004b24:	430b      	orrs	r3, r1
 8004b26:	f043 0307 	orr.w	r3, r3, #7
  TIMx->SMCR = tmpsmcr;
 8004b2a:	6093      	str	r3, [r2, #8]
}
 8004b2c:	e7ce      	b.n	8004acc <HAL_TIM_ConfigClockSource+0xe0>
  switch (sClockSourceConfig->ClockSource)
 8004b2e:	f033 0110 	bics.w	r1, r3, #16
 8004b32:	d1cb      	bne.n	8004acc <HAL_TIM_ConfigClockSource+0xe0>
 8004b34:	e7d6      	b.n	8004ae4 <HAL_TIM_ConfigClockSource+0xf8>
 8004b36:	f5b3 5f80 	cmp.w	r3, #4096	; 0x1000
 8004b3a:	f000 8095 	beq.w	8004c68 <HAL_TIM_ConfigClockSource+0x27c>
 8004b3e:	f5b3 5f00 	cmp.w	r3, #8192	; 0x2000
 8004b42:	d141      	bne.n	8004bc8 <HAL_TIM_ConfigClockSource+0x1dc>
      assert_param(IS_TIM_CLOCKSOURCE_ETRMODE2_INSTANCE(htim->Instance));
 8004b44:	4b68      	ldr	r3, [pc, #416]	; (8004ce8 <HAL_TIM_ConfigClockSource+0x2fc>)
 8004b46:	429a      	cmp	r2, r3
 8004b48:	d013      	beq.n	8004b72 <HAL_TIM_ConfigClockSource+0x186>
 8004b4a:	f1b2 4f80 	cmp.w	r2, #1073741824	; 0x40000000
 8004b4e:	d010      	beq.n	8004b72 <HAL_TIM_ConfigClockSource+0x186>
 8004b50:	f5a3 437c 	sub.w	r3, r3, #64512	; 0xfc00
 8004b54:	429a      	cmp	r2, r3
 8004b56:	d00c      	beq.n	8004b72 <HAL_TIM_ConfigClockSource+0x186>
 8004b58:	f503 6380 	add.w	r3, r3, #1024	; 0x400
 8004b5c:	429a      	cmp	r2, r3
 8004b5e:	d008      	beq.n	8004b72 <HAL_TIM_ConfigClockSource+0x186>
 8004b60:	f503 6380 	add.w	r3, r3, #1024	; 0x400
 8004b64:	429a      	cmp	r2, r3
 8004b66:	d004      	beq.n	8004b72 <HAL_TIM_ConfigClockSource+0x186>
 8004b68:	4860      	ldr	r0, [pc, #384]	; (8004cec <HAL_TIM_ConfigClockSource+0x300>)
 8004b6a:	f241 414d 	movw	r1, #5197	; 0x144d
 8004b6e:	f7fc fd95 	bl	800169c <assert_failed>
      assert_param(IS_TIM_CLOCKPRESCALER(sClockSourceConfig->ClockPrescaler));
 8004b72:	68ab      	ldr	r3, [r5, #8]
 8004b74:	f433 5340 	bics.w	r3, r3, #12288	; 0x3000
 8004b78:	d004      	beq.n	8004b84 <HAL_TIM_ConfigClockSource+0x198>
 8004b7a:	485c      	ldr	r0, [pc, #368]	; (8004cec <HAL_TIM_ConfigClockSource+0x300>)
 8004b7c:	f241 4150 	movw	r1, #5200	; 0x1450
 8004b80:	f7fc fd8c 	bl	800169c <assert_failed>
      assert_param(IS_TIM_CLOCKPOLARITY(sClockSourceConfig->ClockPolarity));
 8004b84:	686b      	ldr	r3, [r5, #4]
 8004b86:	f5b3 4f00 	cmp.w	r3, #32768	; 0x8000
 8004b8a:	d009      	beq.n	8004ba0 <HAL_TIM_ConfigClockSource+0x1b4>
 8004b8c:	f033 0202 	bics.w	r2, r3, #2
 8004b90:	d006      	beq.n	8004ba0 <HAL_TIM_ConfigClockSource+0x1b4>
 8004b92:	2b0a      	cmp	r3, #10
 8004b94:	d004      	beq.n	8004ba0 <HAL_TIM_ConfigClockSource+0x1b4>
 8004b96:	4855      	ldr	r0, [pc, #340]	; (8004cec <HAL_TIM_ConfigClockSource+0x300>)
 8004b98:	f241 4151 	movw	r1, #5201	; 0x1451
 8004b9c:	f7fc fd7e 	bl	800169c <assert_failed>
      assert_param(IS_TIM_CLOCKFILTER(sClockSourceConfig->ClockFilter));
 8004ba0:	68e8      	ldr	r0, [r5, #12]
 8004ba2:	280f      	cmp	r0, #15
 8004ba4:	f200 813b 	bhi.w	8004e1e <HAL_TIM_ConfigClockSource+0x432>
      TIM_ETR_SetConfig(htim->Instance,
 8004ba8:	6822      	ldr	r2, [r4, #0]
void TIM_ETR_SetConfig(TIM_TypeDef *TIMx, uint32_t TIM_ExtTRGPrescaler,
                       uint32_t TIM_ExtTRGPolarity, uint32_t ExtTRGFilter)
{
  uint32_t tmpsmcr;

  tmpsmcr = TIMx->SMCR;
 8004baa:	68ab      	ldr	r3, [r5, #8]
 8004bac:	6891      	ldr	r1, [r2, #8]

  /* Reset the ETR Bits */
  tmpsmcr &= ~(TIM_SMCR_ETF | TIM_SMCR_ETPS | TIM_SMCR_ECE | TIM_SMCR_ETP);

  /* Set the Prescaler, the Filter value and the Polarity */
  tmpsmcr |= (uint32_t)(TIM_ExtTRGPrescaler | (TIM_ExtTRGPolarity | (ExtTRGFilter << 8U)));
 8004bae:	686d      	ldr	r5, [r5, #4]
  tmpsmcr &= ~(TIM_SMCR_ETF | TIM_SMCR_ETPS | TIM_SMCR_ECE | TIM_SMCR_ETP);
 8004bb0:	f421 417f 	bic.w	r1, r1, #65280	; 0xff00
 8004bb4:	432b      	orrs	r3, r5
 8004bb6:	430b      	orrs	r3, r1
  tmpsmcr |= (uint32_t)(TIM_ExtTRGPrescaler | (TIM_ExtTRGPolarity | (ExtTRGFilter << 8U)));
 8004bb8:	ea43 2300 	orr.w	r3, r3, r0, lsl #8

  /* Write to TIMx SMCR */
  TIMx->SMCR = tmpsmcr;
 8004bbc:	6093      	str	r3, [r2, #8]
      htim->Instance->SMCR |= TIM_SMCR_ECE;
 8004bbe:	6893      	ldr	r3, [r2, #8]
 8004bc0:	f443 4380 	orr.w	r3, r3, #16384	; 0x4000
 8004bc4:	6093      	str	r3, [r2, #8]
      break;
 8004bc6:	e781      	b.n	8004acc <HAL_TIM_ConfigClockSource+0xe0>
  switch (sClockSourceConfig->ClockSource)
 8004bc8:	2b70      	cmp	r3, #112	; 0x70
 8004bca:	f47f af7f 	bne.w	8004acc <HAL_TIM_ConfigClockSource+0xe0>
      assert_param(IS_TIM_CLOCKSOURCE_ETRMODE1_INSTANCE(htim->Instance));
 8004bce:	4b46      	ldr	r3, [pc, #280]	; (8004ce8 <HAL_TIM_ConfigClockSource+0x2fc>)
 8004bd0:	429a      	cmp	r2, r3
 8004bd2:	d017      	beq.n	8004c04 <HAL_TIM_ConfigClockSource+0x218>
 8004bd4:	f1b2 4f80 	cmp.w	r2, #1073741824	; 0x40000000
 8004bd8:	d014      	beq.n	8004c04 <HAL_TIM_ConfigClockSource+0x218>
 8004bda:	f5a3 437c 	sub.w	r3, r3, #64512	; 0xfc00
 8004bde:	429a      	cmp	r2, r3
 8004be0:	d010      	beq.n	8004c04 <HAL_TIM_ConfigClockSource+0x218>
 8004be2:	f503 6380 	add.w	r3, r3, #1024	; 0x400
 8004be6:	429a      	cmp	r2, r3
 8004be8:	d00c      	beq.n	8004c04 <HAL_TIM_ConfigClockSource+0x218>
 8004bea:	f503 6380 	add.w	r3, r3, #1024	; 0x400
 8004bee:	429a      	cmp	r2, r3
 8004bf0:	d008      	beq.n	8004c04 <HAL_TIM_ConfigClockSource+0x218>
 8004bf2:	f503 339a 	add.w	r3, r3, #78848	; 0x13400
 8004bf6:	429a      	cmp	r2, r3
 8004bf8:	d004      	beq.n	8004c04 <HAL_TIM_ConfigClockSource+0x218>
 8004bfa:	483c      	ldr	r0, [pc, #240]	; (8004cec <HAL_TIM_ConfigClockSource+0x300>)
 8004bfc:	f241 4135 	movw	r1, #5173	; 0x1435
 8004c00:	f7fc fd4c 	bl	800169c <assert_failed>
      assert_param(IS_TIM_CLOCKPRESCALER(sClockSourceConfig->ClockPrescaler));
 8004c04:	68ab      	ldr	r3, [r5, #8]
 8004c06:	f433 5340 	bics.w	r3, r3, #12288	; 0x3000
 8004c0a:	d004      	beq.n	8004c16 <HAL_TIM_ConfigClockSource+0x22a>
 8004c0c:	4837      	ldr	r0, [pc, #220]	; (8004cec <HAL_TIM_ConfigClockSource+0x300>)
 8004c0e:	f241 4138 	movw	r1, #5176	; 0x1438
 8004c12:	f7fc fd43 	bl	800169c <assert_failed>
      assert_param(IS_TIM_CLOCKPOLARITY(sClockSourceConfig->ClockPolarity));
 8004c16:	686b      	ldr	r3, [r5, #4]
 8004c18:	f5b3 4f00 	cmp.w	r3, #32768	; 0x8000
 8004c1c:	d009      	beq.n	8004c32 <HAL_TIM_ConfigClockSource+0x246>
 8004c1e:	f033 0202 	bics.w	r2, r3, #2
 8004c22:	d006      	beq.n	8004c32 <HAL_TIM_ConfigClockSource+0x246>
 8004c24:	2b0a      	cmp	r3, #10
 8004c26:	d004      	beq.n	8004c32 <HAL_TIM_ConfigClockSource+0x246>
 8004c28:	4830      	ldr	r0, [pc, #192]	; (8004cec <HAL_TIM_ConfigClockSource+0x300>)
 8004c2a:	f241 4139 	movw	r1, #5177	; 0x1439
 8004c2e:	f7fc fd35 	bl	800169c <assert_failed>
      assert_param(IS_TIM_CLOCKFILTER(sClockSourceConfig->ClockFilter));
 8004c32:	68e8      	ldr	r0, [r5, #12]
 8004c34:	280f      	cmp	r0, #15
 8004c36:	f200 80eb 	bhi.w	8004e10 <HAL_TIM_ConfigClockSource+0x424>
      TIM_ETR_SetConfig(htim->Instance,
 8004c3a:	6822      	ldr	r2, [r4, #0]
  tmpsmcr = TIMx->SMCR;
 8004c3c:	68ab      	ldr	r3, [r5, #8]
 8004c3e:	6891      	ldr	r1, [r2, #8]
  tmpsmcr |= (uint32_t)(TIM_ExtTRGPrescaler | (TIM_ExtTRGPolarity | (ExtTRGFilter << 8U)));
 8004c40:	686d      	ldr	r5, [r5, #4]
  tmpsmcr &= ~(TIM_SMCR_ETF | TIM_SMCR_ETPS | TIM_SMCR_ECE | TIM_SMCR_ETP);
 8004c42:	f421 417f 	bic.w	r1, r1, #65280	; 0xff00
 8004c46:	432b      	orrs	r3, r5
 8004c48:	430b      	orrs	r3, r1
  tmpsmcr |= (uint32_t)(TIM_ExtTRGPrescaler | (TIM_ExtTRGPolarity | (ExtTRGFilter << 8U)));
 8004c4a:	ea43 2300 	orr.w	r3, r3, r0, lsl #8
  TIMx->SMCR = tmpsmcr;
 8004c4e:	6093      	str	r3, [r2, #8]
      tmpsmcr = htim->Instance->SMCR;
 8004c50:	6893      	ldr	r3, [r2, #8]
      tmpsmcr |= (TIM_SLAVEMODE_EXTERNAL1 | TIM_CLOCKSOURCE_ETRMODE1);
 8004c52:	f043 0377 	orr.w	r3, r3, #119	; 0x77
      htim->Instance->SMCR = tmpsmcr;
 8004c56:	6093      	str	r3, [r2, #8]
      break;
 8004c58:	e738      	b.n	8004acc <HAL_TIM_ConfigClockSource+0xe0>
  tmpsmcr = htim->Instance->SMCR;
 8004c5a:	6802      	ldr	r2, [r0, #0]
 8004c5c:	6893      	ldr	r3, [r2, #8]
  tmpsmcr &= ~(TIM_SMCR_ETF | TIM_SMCR_ETPS | TIM_SMCR_ECE | TIM_SMCR_ETP);
 8004c5e:	f423 437f 	bic.w	r3, r3, #65280	; 0xff00
 8004c62:	f023 0377 	bic.w	r3, r3, #119	; 0x77
  htim->Instance->SMCR = tmpsmcr;
 8004c66:	6093      	str	r3, [r2, #8]
      assert_param(IS_TIM_INSTANCE(htim->Instance));
 8004c68:	4b1f      	ldr	r3, [pc, #124]	; (8004ce8 <HAL_TIM_ConfigClockSource+0x2fc>)
 8004c6a:	429a      	cmp	r2, r3
 8004c6c:	f43f af2e 	beq.w	8004acc <HAL_TIM_ConfigClockSource+0xe0>
 8004c70:	f1b2 4f80 	cmp.w	r2, #1073741824	; 0x40000000
 8004c74:	f43f af2a 	beq.w	8004acc <HAL_TIM_ConfigClockSource+0xe0>
 8004c78:	f5a3 437c 	sub.w	r3, r3, #64512	; 0xfc00
 8004c7c:	429a      	cmp	r2, r3
 8004c7e:	f43f af25 	beq.w	8004acc <HAL_TIM_ConfigClockSource+0xe0>
 8004c82:	f503 6380 	add.w	r3, r3, #1024	; 0x400
 8004c86:	429a      	cmp	r2, r3
 8004c88:	f43f af20 	beq.w	8004acc <HAL_TIM_ConfigClockSource+0xe0>
 8004c8c:	f503 6380 	add.w	r3, r3, #1024	; 0x400
 8004c90:	429a      	cmp	r2, r3
 8004c92:	f43f af1b 	beq.w	8004acc <HAL_TIM_ConfigClockSource+0xe0>
 8004c96:	f503 339a 	add.w	r3, r3, #78848	; 0x13400
 8004c9a:	429a      	cmp	r2, r3
 8004c9c:	f43f af16 	beq.w	8004acc <HAL_TIM_ConfigClockSource+0xe0>
 8004ca0:	f503 6380 	add.w	r3, r3, #1024	; 0x400
 8004ca4:	429a      	cmp	r2, r3
 8004ca6:	f43f af11 	beq.w	8004acc <HAL_TIM_ConfigClockSource+0xe0>
 8004caa:	f503 6380 	add.w	r3, r3, #1024	; 0x400
 8004cae:	429a      	cmp	r2, r3
 8004cb0:	f43f af0c 	beq.w	8004acc <HAL_TIM_ConfigClockSource+0xe0>
 8004cb4:	480d      	ldr	r0, [pc, #52]	; (8004cec <HAL_TIM_ConfigClockSource+0x300>)
 8004cb6:	f241 412e 	movw	r1, #5166	; 0x142e
 8004cba:	f7fc fcef 	bl	800169c <assert_failed>
 8004cbe:	e705      	b.n	8004acc <HAL_TIM_ConfigClockSource+0xe0>
  tmpsmcr = htim->Instance->SMCR;
 8004cc0:	6802      	ldr	r2, [r0, #0]
 8004cc2:	6893      	ldr	r3, [r2, #8]
  tmpsmcr &= ~(TIM_SMCR_ETF | TIM_SMCR_ETPS | TIM_SMCR_ECE | TIM_SMCR_ETP);
 8004cc4:	f423 437f 	bic.w	r3, r3, #65280	; 0xff00
 8004cc8:	f023 0377 	bic.w	r3, r3, #119	; 0x77
  htim->Instance->SMCR = tmpsmcr;
 8004ccc:	6093      	str	r3, [r2, #8]
  switch (sClockSourceConfig->ClockSource)
 8004cce:	e739      	b.n	8004b44 <HAL_TIM_ConfigClockSource+0x158>
  assert_param(IS_TIM_CLOCKSOURCE(sClockSourceConfig->ClockSource));
 8004cd0:	2a40      	cmp	r2, #64	; 0x40
 8004cd2:	f43f aea6 	beq.w	8004a22 <HAL_TIM_ConfigClockSource+0x36>
 8004cd6:	4805      	ldr	r0, [pc, #20]	; (8004cec <HAL_TIM_ConfigClockSource+0x300>)
 8004cd8:	f241 4122 	movw	r1, #5154	; 0x1422
 8004cdc:	f7fc fcde 	bl	800169c <assert_failed>
 8004ce0:	682b      	ldr	r3, [r5, #0]
 8004ce2:	e69e      	b.n	8004a22 <HAL_TIM_ConfigClockSource+0x36>
  __HAL_LOCK(htim);
 8004ce4:	2002      	movs	r0, #2
}
 8004ce6:	4770      	bx	lr
 8004ce8:	40010000 	.word	0x40010000
 8004cec:	08009750 	.word	0x08009750
      assert_param(IS_TIM_CLOCKSOURCE_TIX_INSTANCE(htim->Instance));
 8004cf0:	4b55      	ldr	r3, [pc, #340]	; (8004e48 <HAL_TIM_ConfigClockSource+0x45c>)
 8004cf2:	429a      	cmp	r2, r3
 8004cf4:	d017      	beq.n	8004d26 <HAL_TIM_ConfigClockSource+0x33a>
 8004cf6:	f1b2 4f80 	cmp.w	r2, #1073741824	; 0x40000000
 8004cfa:	d014      	beq.n	8004d26 <HAL_TIM_ConfigClockSource+0x33a>
 8004cfc:	f5a3 437c 	sub.w	r3, r3, #64512	; 0xfc00
 8004d00:	429a      	cmp	r2, r3
 8004d02:	d010      	beq.n	8004d26 <HAL_TIM_ConfigClockSource+0x33a>
 8004d04:	f503 6380 	add.w	r3, r3, #1024	; 0x400
 8004d08:	429a      	cmp	r2, r3
 8004d0a:	d00c      	beq.n	8004d26 <HAL_TIM_ConfigClockSource+0x33a>
 8004d0c:	f503 6380 	add.w	r3, r3, #1024	; 0x400
 8004d10:	429a      	cmp	r2, r3
 8004d12:	d008      	beq.n	8004d26 <HAL_TIM_ConfigClockSource+0x33a>
 8004d14:	f503 339a 	add.w	r3, r3, #78848	; 0x13400
 8004d18:	429a      	cmp	r2, r3
 8004d1a:	d004      	beq.n	8004d26 <HAL_TIM_ConfigClockSource+0x33a>
 8004d1c:	484b      	ldr	r0, [pc, #300]	; (8004e4c <HAL_TIM_ConfigClockSource+0x460>)
 8004d1e:	f241 4181 	movw	r1, #5249	; 0x1481
 8004d22:	f7fc fcbb 	bl	800169c <assert_failed>
      assert_param(IS_TIM_CLOCKPOLARITY(sClockSourceConfig->ClockPolarity));
 8004d26:	686b      	ldr	r3, [r5, #4]
 8004d28:	f5b3 4f00 	cmp.w	r3, #32768	; 0x8000
 8004d2c:	d009      	beq.n	8004d42 <HAL_TIM_ConfigClockSource+0x356>
 8004d2e:	f033 0202 	bics.w	r2, r3, #2
 8004d32:	d006      	beq.n	8004d42 <HAL_TIM_ConfigClockSource+0x356>
 8004d34:	2b0a      	cmp	r3, #10
 8004d36:	d004      	beq.n	8004d42 <HAL_TIM_ConfigClockSource+0x356>
 8004d38:	4844      	ldr	r0, [pc, #272]	; (8004e4c <HAL_TIM_ConfigClockSource+0x460>)
 8004d3a:	f241 4184 	movw	r1, #5252	; 0x1484
 8004d3e:	f7fc fcad 	bl	800169c <assert_failed>
      assert_param(IS_TIM_CLOCKFILTER(sClockSourceConfig->ClockFilter));
 8004d42:	68ee      	ldr	r6, [r5, #12]
 8004d44:	2e0f      	cmp	r6, #15
 8004d46:	d871      	bhi.n	8004e2c <HAL_TIM_ConfigClockSource+0x440>
      TIM_TI1_ConfigInputStage(htim->Instance,
 8004d48:	6823      	ldr	r3, [r4, #0]
 8004d4a:	6869      	ldr	r1, [r5, #4]
  tmpccer = TIMx->CCER;
 8004d4c:	6a18      	ldr	r0, [r3, #32]
  TIMx->CCER &= ~TIM_CCER_CC1E;
 8004d4e:	6a1d      	ldr	r5, [r3, #32]
 8004d50:	f025 0501 	bic.w	r5, r5, #1
 8004d54:	621d      	str	r5, [r3, #32]
  tmpccmr1 = TIMx->CCMR1;
 8004d56:	699a      	ldr	r2, [r3, #24]
  tmpccer &= ~(TIM_CCER_CC1P | TIM_CCER_CC1NP);
 8004d58:	f020 000a 	bic.w	r0, r0, #10
  tmpccmr1 &= ~TIM_CCMR1_IC1F;
 8004d5c:	f022 02f0 	bic.w	r2, r2, #240	; 0xf0
  tmpccmr1 |= (TIM_ICFilter << 4U);
 8004d60:	ea42 1206 	orr.w	r2, r2, r6, lsl #4
  tmpccer |= TIM_ICPolarity;
 8004d64:	4301      	orrs	r1, r0
  TIMx->CCMR1 = tmpccmr1;
 8004d66:	619a      	str	r2, [r3, #24]
  TIMx->CCER = tmpccer;
 8004d68:	6219      	str	r1, [r3, #32]
  tmpsmcr = TIMx->SMCR;
 8004d6a:	689a      	ldr	r2, [r3, #8]
  tmpsmcr &= ~TIM_SMCR_TS;
 8004d6c:	f022 0270 	bic.w	r2, r2, #112	; 0x70
  tmpsmcr |= (InputTriggerSource | TIM_SLAVEMODE_EXTERNAL1);
 8004d70:	f042 0247 	orr.w	r2, r2, #71	; 0x47
  TIMx->SMCR = tmpsmcr;
 8004d74:	609a      	str	r2, [r3, #8]
}
 8004d76:	e6a9      	b.n	8004acc <HAL_TIM_ConfigClockSource+0xe0>
      assert_param(IS_TIM_CLOCKSOURCE_TIX_INSTANCE(htim->Instance));
 8004d78:	4b33      	ldr	r3, [pc, #204]	; (8004e48 <HAL_TIM_ConfigClockSource+0x45c>)
 8004d7a:	429a      	cmp	r2, r3
 8004d7c:	d017      	beq.n	8004dae <HAL_TIM_ConfigClockSource+0x3c2>
 8004d7e:	f1b2 4f80 	cmp.w	r2, #1073741824	; 0x40000000
 8004d82:	d014      	beq.n	8004dae <HAL_TIM_ConfigClockSource+0x3c2>
 8004d84:	f5a3 437c 	sub.w	r3, r3, #64512	; 0xfc00
 8004d88:	429a      	cmp	r2, r3
 8004d8a:	d010      	beq.n	8004dae <HAL_TIM_ConfigClockSource+0x3c2>
 8004d8c:	f503 6380 	add.w	r3, r3, #1024	; 0x400
 8004d90:	429a      	cmp	r2, r3
 8004d92:	d00c      	beq.n	8004dae <HAL_TIM_ConfigClockSource+0x3c2>
 8004d94:	f503 6380 	add.w	r3, r3, #1024	; 0x400
 8004d98:	429a      	cmp	r2, r3
 8004d9a:	d008      	beq.n	8004dae <HAL_TIM_ConfigClockSource+0x3c2>
 8004d9c:	f503 339a 	add.w	r3, r3, #78848	; 0x13400
 8004da0:	429a      	cmp	r2, r3
 8004da2:	d004      	beq.n	8004dae <HAL_TIM_ConfigClockSource+0x3c2>
 8004da4:	4829      	ldr	r0, [pc, #164]	; (8004e4c <HAL_TIM_ConfigClockSource+0x460>)
 8004da6:	f241 4171 	movw	r1, #5233	; 0x1471
 8004daa:	f7fc fc77 	bl	800169c <assert_failed>
      assert_param(IS_TIM_CLOCKPOLARITY(sClockSourceConfig->ClockPolarity));
 8004dae:	686b      	ldr	r3, [r5, #4]
 8004db0:	f5b3 4f00 	cmp.w	r3, #32768	; 0x8000
 8004db4:	d009      	beq.n	8004dca <HAL_TIM_ConfigClockSource+0x3de>
 8004db6:	f033 0202 	bics.w	r2, r3, #2
 8004dba:	d006      	beq.n	8004dca <HAL_TIM_ConfigClockSource+0x3de>
 8004dbc:	2b0a      	cmp	r3, #10
 8004dbe:	d004      	beq.n	8004dca <HAL_TIM_ConfigClockSource+0x3de>
 8004dc0:	4822      	ldr	r0, [pc, #136]	; (8004e4c <HAL_TIM_ConfigClockSource+0x460>)
 8004dc2:	f241 4174 	movw	r1, #5236	; 0x1474
 8004dc6:	f7fc fc69 	bl	800169c <assert_failed>
      assert_param(IS_TIM_CLOCKFILTER(sClockSourceConfig->ClockFilter));
 8004dca:	68ee      	ldr	r6, [r5, #12]
 8004dcc:	2e0f      	cmp	r6, #15
 8004dce:	d818      	bhi.n	8004e02 <HAL_TIM_ConfigClockSource+0x416>
      TIM_TI2_ConfigInputStage(htim->Instance,
 8004dd0:	6823      	ldr	r3, [r4, #0]
 8004dd2:	686d      	ldr	r5, [r5, #4]
  TIMx->CCER &= ~TIM_CCER_CC2E;
 8004dd4:	6a18      	ldr	r0, [r3, #32]
 8004dd6:	f020 0010 	bic.w	r0, r0, #16
 8004dda:	6218      	str	r0, [r3, #32]
  tmpccmr1 = TIMx->CCMR1;
 8004ddc:	6999      	ldr	r1, [r3, #24]
  tmpccer = TIMx->CCER;
 8004dde:	6a1a      	ldr	r2, [r3, #32]
  tmpccmr1 &= ~TIM_CCMR1_IC2F;
 8004de0:	f421 4170 	bic.w	r1, r1, #61440	; 0xf000
  tmpccer &= ~(TIM_CCER_CC2P | TIM_CCER_CC2NP);
 8004de4:	f022 02a0 	bic.w	r2, r2, #160	; 0xa0
  tmpccer |= (TIM_ICPolarity << 4U);
 8004de8:	ea42 1205 	orr.w	r2, r2, r5, lsl #4
  tmpccmr1 |= (TIM_ICFilter << 12U);
 8004dec:	ea41 3106 	orr.w	r1, r1, r6, lsl #12
  TIMx->CCMR1 = tmpccmr1 ;
 8004df0:	6199      	str	r1, [r3, #24]
  TIMx->CCER = tmpccer;
 8004df2:	621a      	str	r2, [r3, #32]
  tmpsmcr = TIMx->SMCR;
 8004df4:	689a      	ldr	r2, [r3, #8]
  tmpsmcr &= ~TIM_SMCR_TS;
 8004df6:	f022 0270 	bic.w	r2, r2, #112	; 0x70
  tmpsmcr |= (InputTriggerSource | TIM_SLAVEMODE_EXTERNAL1);
 8004dfa:	f042 0267 	orr.w	r2, r2, #103	; 0x67
  TIMx->SMCR = tmpsmcr;
 8004dfe:	609a      	str	r2, [r3, #8]
}
 8004e00:	e664      	b.n	8004acc <HAL_TIM_ConfigClockSource+0xe0>
      assert_param(IS_TIM_CLOCKFILTER(sClockSourceConfig->ClockFilter));
 8004e02:	4812      	ldr	r0, [pc, #72]	; (8004e4c <HAL_TIM_ConfigClockSource+0x460>)
 8004e04:	f241 4175 	movw	r1, #5237	; 0x1475
 8004e08:	f7fc fc48 	bl	800169c <assert_failed>
 8004e0c:	68ee      	ldr	r6, [r5, #12]
 8004e0e:	e7df      	b.n	8004dd0 <HAL_TIM_ConfigClockSource+0x3e4>
      assert_param(IS_TIM_CLOCKFILTER(sClockSourceConfig->ClockFilter));
 8004e10:	480e      	ldr	r0, [pc, #56]	; (8004e4c <HAL_TIM_ConfigClockSource+0x460>)
 8004e12:	f241 413a 	movw	r1, #5178	; 0x143a
 8004e16:	f7fc fc41 	bl	800169c <assert_failed>
 8004e1a:	68e8      	ldr	r0, [r5, #12]
 8004e1c:	e70d      	b.n	8004c3a <HAL_TIM_ConfigClockSource+0x24e>
      assert_param(IS_TIM_CLOCKFILTER(sClockSourceConfig->ClockFilter));
 8004e1e:	480b      	ldr	r0, [pc, #44]	; (8004e4c <HAL_TIM_ConfigClockSource+0x460>)
 8004e20:	f241 4152 	movw	r1, #5202	; 0x1452
 8004e24:	f7fc fc3a 	bl	800169c <assert_failed>
 8004e28:	68e8      	ldr	r0, [r5, #12]
 8004e2a:	e6bd      	b.n	8004ba8 <HAL_TIM_ConfigClockSource+0x1bc>
      assert_param(IS_TIM_CLOCKFILTER(sClockSourceConfig->ClockFilter));
 8004e2c:	4807      	ldr	r0, [pc, #28]	; (8004e4c <HAL_TIM_ConfigClockSource+0x460>)
 8004e2e:	f241 4185 	movw	r1, #5253	; 0x1485
 8004e32:	f7fc fc33 	bl	800169c <assert_failed>
 8004e36:	68ee      	ldr	r6, [r5, #12]
 8004e38:	e786      	b.n	8004d48 <HAL_TIM_ConfigClockSource+0x35c>
      assert_param(IS_TIM_CLOCKFILTER(sClockSourceConfig->ClockFilter));
 8004e3a:	4804      	ldr	r0, [pc, #16]	; (8004e4c <HAL_TIM_ConfigClockSource+0x460>)
 8004e3c:	f241 4165 	movw	r1, #5221	; 0x1465
 8004e40:	f7fc fc2c 	bl	800169c <assert_failed>
 8004e44:	68ee      	ldr	r6, [r5, #12]
 8004e46:	e62a      	b.n	8004a9e <HAL_TIM_ConfigClockSource+0xb2>
 8004e48:	40010000 	.word	0x40010000
 8004e4c:	08009750 	.word	0x08009750

08004e50 <HAL_TIM_OC_DelayElapsedCallback>:
 8004e50:	4770      	bx	lr
 8004e52:	bf00      	nop

08004e54 <HAL_TIM_IC_CaptureCallback>:
 8004e54:	4770      	bx	lr
 8004e56:	bf00      	nop

08004e58 <HAL_TIM_PWM_PulseFinishedCallback>:
 8004e58:	4770      	bx	lr
 8004e5a:	bf00      	nop

08004e5c <HAL_TIM_TriggerCallback>:
 8004e5c:	4770      	bx	lr
 8004e5e:	bf00      	nop

08004e60 <HAL_TIM_IRQHandler>:
  if (__HAL_TIM_GET_FLAG(htim, TIM_FLAG_CC1) != RESET)
 8004e60:	6803      	ldr	r3, [r0, #0]
 8004e62:	691a      	ldr	r2, [r3, #16]
 8004e64:	0791      	lsls	r1, r2, #30
{
 8004e66:	b510      	push	{r4, lr}
 8004e68:	4604      	mov	r4, r0
  if (__HAL_TIM_GET_FLAG(htim, TIM_FLAG_CC1) != RESET)
 8004e6a:	d502      	bpl.n	8004e72 <HAL_TIM_IRQHandler+0x12>
    if (__HAL_TIM_GET_IT_SOURCE(htim, TIM_IT_CC1) != RESET)
 8004e6c:	68da      	ldr	r2, [r3, #12]
 8004e6e:	0792      	lsls	r2, r2, #30
 8004e70:	d45f      	bmi.n	8004f32 <HAL_TIM_IRQHandler+0xd2>
  if (__HAL_TIM_GET_FLAG(htim, TIM_FLAG_CC2) != RESET)
 8004e72:	691a      	ldr	r2, [r3, #16]
 8004e74:	0750      	lsls	r0, r2, #29
 8004e76:	d502      	bpl.n	8004e7e <HAL_TIM_IRQHandler+0x1e>
    if (__HAL_TIM_GET_IT_SOURCE(htim, TIM_IT_CC2) != RESET)
 8004e78:	68da      	ldr	r2, [r3, #12]
 8004e7a:	0751      	lsls	r1, r2, #29
 8004e7c:	d446      	bmi.n	8004f0c <HAL_TIM_IRQHandler+0xac>
  if (__HAL_TIM_GET_FLAG(htim, TIM_FLAG_CC3) != RESET)
 8004e7e:	691a      	ldr	r2, [r3, #16]
 8004e80:	0712      	lsls	r2, r2, #28
 8004e82:	d502      	bpl.n	8004e8a <HAL_TIM_IRQHandler+0x2a>
    if (__HAL_TIM_GET_IT_SOURCE(htim, TIM_IT_CC3) != RESET)
 8004e84:	68da      	ldr	r2, [r3, #12]
 8004e86:	0710      	lsls	r0, r2, #28
 8004e88:	d42e      	bmi.n	8004ee8 <HAL_TIM_IRQHandler+0x88>
  if (__HAL_TIM_GET_FLAG(htim, TIM_FLAG_CC4) != RESET)
 8004e8a:	691a      	ldr	r2, [r3, #16]
 8004e8c:	06d2      	lsls	r2, r2, #27
 8004e8e:	d502      	bpl.n	8004e96 <HAL_TIM_IRQHandler+0x36>
    if (__HAL_TIM_GET_IT_SOURCE(htim, TIM_IT_CC4) != RESET)
 8004e90:	68da      	ldr	r2, [r3, #12]
 8004e92:	06d0      	lsls	r0, r2, #27
 8004e94:	d418      	bmi.n	8004ec8 <HAL_TIM_IRQHandler+0x68>
  if (__HAL_TIM_GET_FLAG(htim, TIM_FLAG_UPDATE) != RESET)
 8004e96:	691a      	ldr	r2, [r3, #16]
 8004e98:	07d1      	lsls	r1, r2, #31
 8004e9a:	d502      	bpl.n	8004ea2 <HAL_TIM_IRQHandler+0x42>
    if (__HAL_TIM_GET_IT_SOURCE(htim, TIM_IT_UPDATE) != RESET)
 8004e9c:	68da      	ldr	r2, [r3, #12]
 8004e9e:	07d2      	lsls	r2, r2, #31
 8004ea0:	d45d      	bmi.n	8004f5e <HAL_TIM_IRQHandler+0xfe>
  if (__HAL_TIM_GET_FLAG(htim, TIM_FLAG_BREAK) != RESET)
 8004ea2:	691a      	ldr	r2, [r3, #16]
 8004ea4:	0610      	lsls	r0, r2, #24
 8004ea6:	d502      	bpl.n	8004eae <HAL_TIM_IRQHandler+0x4e>
    if (__HAL_TIM_GET_IT_SOURCE(htim, TIM_IT_BREAK) != RESET)
 8004ea8:	68da      	ldr	r2, [r3, #12]
 8004eaa:	0611      	lsls	r1, r2, #24
 8004eac:	d45f      	bmi.n	8004f6e <HAL_TIM_IRQHandler+0x10e>
  if (__HAL_TIM_GET_FLAG(htim, TIM_FLAG_TRIGGER) != RESET)
 8004eae:	691a      	ldr	r2, [r3, #16]
 8004eb0:	0652      	lsls	r2, r2, #25
 8004eb2:	d502      	bpl.n	8004eba <HAL_TIM_IRQHandler+0x5a>
    if (__HAL_TIM_GET_IT_SOURCE(htim, TIM_IT_TRIGGER) != RESET)
 8004eb4:	68da      	ldr	r2, [r3, #12]
 8004eb6:	0650      	lsls	r0, r2, #25
 8004eb8:	d461      	bmi.n	8004f7e <HAL_TIM_IRQHandler+0x11e>
  if (__HAL_TIM_GET_FLAG(htim, TIM_FLAG_COM) != RESET)
 8004eba:	691a      	ldr	r2, [r3, #16]
 8004ebc:	0691      	lsls	r1, r2, #26
 8004ebe:	d502      	bpl.n	8004ec6 <HAL_TIM_IRQHandler+0x66>
    if (__HAL_TIM_GET_IT_SOURCE(htim, TIM_IT_COM) != RESET)
 8004ec0:	68da      	ldr	r2, [r3, #12]
 8004ec2:	0692      	lsls	r2, r2, #26
 8004ec4:	d443      	bmi.n	8004f4e <HAL_TIM_IRQHandler+0xee>
}
 8004ec6:	bd10      	pop	{r4, pc}
      __HAL_TIM_CLEAR_IT(htim, TIM_IT_CC4);
 8004ec8:	f06f 0110 	mvn.w	r1, #16
      htim->Channel = HAL_TIM_ACTIVE_CHANNEL_4;
 8004ecc:	2208      	movs	r2, #8
      __HAL_TIM_CLEAR_IT(htim, TIM_IT_CC4);
 8004ece:	6119      	str	r1, [r3, #16]
      htim->Channel = HAL_TIM_ACTIVE_CHANNEL_4;
 8004ed0:	7722      	strb	r2, [r4, #28]
      if ((htim->Instance->CCMR2 & TIM_CCMR2_CC4S) != 0x00U)
 8004ed2:	69db      	ldr	r3, [r3, #28]
 8004ed4:	f413 7f40 	tst.w	r3, #768	; 0x300
        HAL_TIM_IC_CaptureCallback(htim);
 8004ed8:	4620      	mov	r0, r4
      if ((htim->Instance->CCMR2 & TIM_CCMR2_CC4S) != 0x00U)
 8004eda:	d064      	beq.n	8004fa6 <HAL_TIM_IRQHandler+0x146>
        HAL_TIM_IC_CaptureCallback(htim);
 8004edc:	f7ff ffba 	bl	8004e54 <HAL_TIM_IC_CaptureCallback>
      htim->Channel = HAL_TIM_ACTIVE_CHANNEL_CLEARED;
 8004ee0:	2200      	movs	r2, #0
 8004ee2:	6823      	ldr	r3, [r4, #0]
 8004ee4:	7722      	strb	r2, [r4, #28]
 8004ee6:	e7d6      	b.n	8004e96 <HAL_TIM_IRQHandler+0x36>
      __HAL_TIM_CLEAR_IT(htim, TIM_IT_CC3);
 8004ee8:	f06f 0108 	mvn.w	r1, #8
      htim->Channel = HAL_TIM_ACTIVE_CHANNEL_3;
 8004eec:	2204      	movs	r2, #4
      __HAL_TIM_CLEAR_IT(htim, TIM_IT_CC3);
 8004eee:	6119      	str	r1, [r3, #16]
      htim->Channel = HAL_TIM_ACTIVE_CHANNEL_3;
 8004ef0:	7722      	strb	r2, [r4, #28]
      if ((htim->Instance->CCMR2 & TIM_CCMR2_CC3S) != 0x00U)
 8004ef2:	69db      	ldr	r3, [r3, #28]
 8004ef4:	0799      	lsls	r1, r3, #30
        HAL_TIM_IC_CaptureCallback(htim);
 8004ef6:	4620      	mov	r0, r4
      if ((htim->Instance->CCMR2 & TIM_CCMR2_CC3S) != 0x00U)
 8004ef8:	d152      	bne.n	8004fa0 <HAL_TIM_IRQHandler+0x140>
        HAL_TIM_OC_DelayElapsedCallback(htim);
 8004efa:	f7ff ffa9 	bl	8004e50 <HAL_TIM_OC_DelayElapsedCallback>
        HAL_TIM_PWM_PulseFinishedCallback(htim);
 8004efe:	4620      	mov	r0, r4
 8004f00:	f7ff ffaa 	bl	8004e58 <HAL_TIM_PWM_PulseFinishedCallback>
      htim->Channel = HAL_TIM_ACTIVE_CHANNEL_CLEARED;
 8004f04:	2200      	movs	r2, #0
 8004f06:	6823      	ldr	r3, [r4, #0]
 8004f08:	7722      	strb	r2, [r4, #28]
 8004f0a:	e7be      	b.n	8004e8a <HAL_TIM_IRQHandler+0x2a>
      __HAL_TIM_CLEAR_IT(htim, TIM_IT_CC2);
 8004f0c:	f06f 0104 	mvn.w	r1, #4
      htim->Channel = HAL_TIM_ACTIVE_CHANNEL_2;
 8004f10:	2202      	movs	r2, #2
      __HAL_TIM_CLEAR_IT(htim, TIM_IT_CC2);
 8004f12:	6119      	str	r1, [r3, #16]
      htim->Channel = HAL_TIM_ACTIVE_CHANNEL_2;
 8004f14:	7722      	strb	r2, [r4, #28]
      if ((htim->Instance->CCMR1 & TIM_CCMR1_CC2S) != 0x00U)
 8004f16:	699b      	ldr	r3, [r3, #24]
 8004f18:	f413 7f40 	tst.w	r3, #768	; 0x300
        HAL_TIM_IC_CaptureCallback(htim);
 8004f1c:	4620      	mov	r0, r4
      if ((htim->Instance->CCMR1 & TIM_CCMR1_CC2S) != 0x00U)
 8004f1e:	d13c      	bne.n	8004f9a <HAL_TIM_IRQHandler+0x13a>
        HAL_TIM_OC_DelayElapsedCallback(htim);
 8004f20:	f7ff ff96 	bl	8004e50 <HAL_TIM_OC_DelayElapsedCallback>
        HAL_TIM_PWM_PulseFinishedCallback(htim);
 8004f24:	4620      	mov	r0, r4
 8004f26:	f7ff ff97 	bl	8004e58 <HAL_TIM_PWM_PulseFinishedCallback>
      htim->Channel = HAL_TIM_ACTIVE_CHANNEL_CLEARED;
 8004f2a:	2200      	movs	r2, #0
 8004f2c:	6823      	ldr	r3, [r4, #0]
 8004f2e:	7722      	strb	r2, [r4, #28]
 8004f30:	e7a5      	b.n	8004e7e <HAL_TIM_IRQHandler+0x1e>
        __HAL_TIM_CLEAR_IT(htim, TIM_IT_CC1);
 8004f32:	f06f 0102 	mvn.w	r1, #2
        htim->Channel = HAL_TIM_ACTIVE_CHANNEL_1;
 8004f36:	2201      	movs	r2, #1
        __HAL_TIM_CLEAR_IT(htim, TIM_IT_CC1);
 8004f38:	6119      	str	r1, [r3, #16]
        htim->Channel = HAL_TIM_ACTIVE_CHANNEL_1;
 8004f3a:	7702      	strb	r2, [r0, #28]
        if ((htim->Instance->CCMR1 & TIM_CCMR1_CC1S) != 0x00U)
 8004f3c:	699b      	ldr	r3, [r3, #24]
 8004f3e:	079b      	lsls	r3, r3, #30
 8004f40:	d025      	beq.n	8004f8e <HAL_TIM_IRQHandler+0x12e>
          HAL_TIM_IC_CaptureCallback(htim);
 8004f42:	f7ff ff87 	bl	8004e54 <HAL_TIM_IC_CaptureCallback>
        htim->Channel = HAL_TIM_ACTIVE_CHANNEL_CLEARED;
 8004f46:	2200      	movs	r2, #0
 8004f48:	6823      	ldr	r3, [r4, #0]
 8004f4a:	7722      	strb	r2, [r4, #28]
 8004f4c:	e791      	b.n	8004e72 <HAL_TIM_IRQHandler+0x12>
      __HAL_TIM_CLEAR_IT(htim, TIM_FLAG_COM);
 8004f4e:	f06f 0220 	mvn.w	r2, #32
      HAL_TIMEx_CommutCallback(htim);
 8004f52:	4620      	mov	r0, r4
      __HAL_TIM_CLEAR_IT(htim, TIM_FLAG_COM);
 8004f54:	611a      	str	r2, [r3, #16]
}
 8004f56:	e8bd 4010 	ldmia.w	sp!, {r4, lr}
      HAL_TIMEx_CommutCallback(htim);
 8004f5a:	f000 b897 	b.w	800508c <HAL_TIMEx_CommutCallback>
      __HAL_TIM_CLEAR_IT(htim, TIM_IT_UPDATE);
 8004f5e:	f06f 0201 	mvn.w	r2, #1
 8004f62:	611a      	str	r2, [r3, #16]
      HAL_TIM_PeriodElapsedCallback(htim);
 8004f64:	4620      	mov	r0, r4
 8004f66:	f7fc fc35 	bl	80017d4 <HAL_TIM_PeriodElapsedCallback>
 8004f6a:	6823      	ldr	r3, [r4, #0]
 8004f6c:	e799      	b.n	8004ea2 <HAL_TIM_IRQHandler+0x42>
      __HAL_TIM_CLEAR_IT(htim, TIM_IT_BREAK);
 8004f6e:	f06f 0280 	mvn.w	r2, #128	; 0x80
 8004f72:	611a      	str	r2, [r3, #16]
      HAL_TIMEx_BreakCallback(htim);
 8004f74:	4620      	mov	r0, r4
 8004f76:	f000 f88b 	bl	8005090 <HAL_TIMEx_BreakCallback>
 8004f7a:	6823      	ldr	r3, [r4, #0]
 8004f7c:	e797      	b.n	8004eae <HAL_TIM_IRQHandler+0x4e>
      __HAL_TIM_CLEAR_IT(htim, TIM_IT_TRIGGER);
 8004f7e:	f06f 0240 	mvn.w	r2, #64	; 0x40
 8004f82:	611a      	str	r2, [r3, #16]
      HAL_TIM_TriggerCallback(htim);
 8004f84:	4620      	mov	r0, r4
 8004f86:	f7ff ff69 	bl	8004e5c <HAL_TIM_TriggerCallback>
 8004f8a:	6823      	ldr	r3, [r4, #0]
 8004f8c:	e795      	b.n	8004eba <HAL_TIM_IRQHandler+0x5a>
          HAL_TIM_OC_DelayElapsedCallback(htim);
 8004f8e:	f7ff ff5f 	bl	8004e50 <HAL_TIM_OC_DelayElapsedCallback>
          HAL_TIM_PWM_PulseFinishedCallback(htim);
 8004f92:	4620      	mov	r0, r4
 8004f94:	f7ff ff60 	bl	8004e58 <HAL_TIM_PWM_PulseFinishedCallback>
 8004f98:	e7d5      	b.n	8004f46 <HAL_TIM_IRQHandler+0xe6>
        HAL_TIM_IC_CaptureCallback(htim);
 8004f9a:	f7ff ff5b 	bl	8004e54 <HAL_TIM_IC_CaptureCallback>
 8004f9e:	e7c4      	b.n	8004f2a <HAL_TIM_IRQHandler+0xca>
        HAL_TIM_IC_CaptureCallback(htim);
 8004fa0:	f7ff ff58 	bl	8004e54 <HAL_TIM_IC_CaptureCallback>
 8004fa4:	e7ae      	b.n	8004f04 <HAL_TIM_IRQHandler+0xa4>
        HAL_TIM_OC_DelayElapsedCallback(htim);
 8004fa6:	f7ff ff53 	bl	8004e50 <HAL_TIM_OC_DelayElapsedCallback>
        HAL_TIM_PWM_PulseFinishedCallback(htim);
 8004faa:	4620      	mov	r0, r4
 8004fac:	f7ff ff54 	bl	8004e58 <HAL_TIM_PWM_PulseFinishedCallback>
 8004fb0:	e796      	b.n	8004ee0 <HAL_TIM_IRQHandler+0x80>
 8004fb2:	bf00      	nop

08004fb4 <HAL_TIMEx_MasterConfigSynchronization>:
  *         mode.
  * @retval HAL status
  */
HAL_StatusTypeDef HAL_TIMEx_MasterConfigSynchronization(TIM_HandleTypeDef *htim,
                                                        TIM_MasterConfigTypeDef *sMasterConfig)
{
 8004fb4:	b538      	push	{r3, r4, r5, lr}
  uint32_t tmpcr2;
  uint32_t tmpsmcr;

  /* Check the parameters */
  assert_param(IS_TIM_MASTER_INSTANCE(htim->Instance));
 8004fb6:	4a32      	ldr	r2, [pc, #200]	; (8005080 <HAL_TIMEx_MasterConfigSynchronization+0xcc>)
 8004fb8:	6803      	ldr	r3, [r0, #0]
 8004fba:	4293      	cmp	r3, r2
{
 8004fbc:	4604      	mov	r4, r0
 8004fbe:	460d      	mov	r5, r1
  assert_param(IS_TIM_MASTER_INSTANCE(htim->Instance));
 8004fc0:	d013      	beq.n	8004fea <HAL_TIMEx_MasterConfigSynchronization+0x36>
 8004fc2:	f1b3 4f80 	cmp.w	r3, #1073741824	; 0x40000000
 8004fc6:	d010      	beq.n	8004fea <HAL_TIMEx_MasterConfigSynchronization+0x36>
 8004fc8:	f5a2 427c 	sub.w	r2, r2, #64512	; 0xfc00
 8004fcc:	4293      	cmp	r3, r2
 8004fce:	d00c      	beq.n	8004fea <HAL_TIMEx_MasterConfigSynchronization+0x36>
 8004fd0:	f502 6280 	add.w	r2, r2, #1024	; 0x400
 8004fd4:	4293      	cmp	r3, r2
 8004fd6:	d008      	beq.n	8004fea <HAL_TIMEx_MasterConfigSynchronization+0x36>
 8004fd8:	f502 6280 	add.w	r2, r2, #1024	; 0x400
 8004fdc:	4293      	cmp	r3, r2
 8004fde:	d004      	beq.n	8004fea <HAL_TIMEx_MasterConfigSynchronization+0x36>
 8004fe0:	4828      	ldr	r0, [pc, #160]	; (8005084 <HAL_TIMEx_MasterConfigSynchronization+0xd0>)
 8004fe2:	f240 7177 	movw	r1, #1911	; 0x777
 8004fe6:	f7fc fb59 	bl	800169c <assert_failed>
  assert_param(IS_TIM_TRGO_SOURCE(sMasterConfig->MasterOutputTrigger));
 8004fea:	682b      	ldr	r3, [r5, #0]
 8004fec:	f033 0330 	bics.w	r3, r3, #48	; 0x30
 8004ff0:	d006      	beq.n	8005000 <HAL_TIMEx_MasterConfigSynchronization+0x4c>
 8004ff2:	2b40      	cmp	r3, #64	; 0x40
 8004ff4:	d004      	beq.n	8005000 <HAL_TIMEx_MasterConfigSynchronization+0x4c>
 8004ff6:	4823      	ldr	r0, [pc, #140]	; (8005084 <HAL_TIMEx_MasterConfigSynchronization+0xd0>)
 8004ff8:	f44f 61ef 	mov.w	r1, #1912	; 0x778
 8004ffc:	f7fc fb4e 	bl	800169c <assert_failed>
  assert_param(IS_TIM_MSM_STATE(sMasterConfig->MasterSlaveMode));
 8005000:	686b      	ldr	r3, [r5, #4]
 8005002:	f033 0380 	bics.w	r3, r3, #128	; 0x80
 8005006:	d12f      	bne.n	8005068 <HAL_TIMEx_MasterConfigSynchronization+0xb4>

  /* Check input state */
  __HAL_LOCK(htim);
 8005008:	f894 303c 	ldrb.w	r3, [r4, #60]	; 0x3c
 800500c:	2b01      	cmp	r3, #1
 800500e:	d034      	beq.n	800507a <HAL_TIMEx_MasterConfigSynchronization+0xc6>

  /* Change the handler state */
  htim->State = HAL_TIM_STATE_BUSY;

  /* Get the TIMx CR2 register value */
  tmpcr2 = htim->Instance->CR2;
 8005010:	6823      	ldr	r3, [r4, #0]
  tmpcr2 |=  sMasterConfig->MasterOutputTrigger;

  /* Update TIMx CR2 */
  htim->Instance->CR2 = tmpcr2;

  if (IS_TIM_SLAVE_INSTANCE(htim->Instance))
 8005012:	481b      	ldr	r0, [pc, #108]	; (8005080 <HAL_TIMEx_MasterConfigSynchronization+0xcc>)
  htim->State = HAL_TIM_STATE_BUSY;
 8005014:	2202      	movs	r2, #2
 8005016:	f884 203d 	strb.w	r2, [r4, #61]	; 0x3d
  tmpcr2 = htim->Instance->CR2;
 800501a:	685a      	ldr	r2, [r3, #4]
  tmpcr2 |=  sMasterConfig->MasterOutputTrigger;
 800501c:	6829      	ldr	r1, [r5, #0]
  tmpcr2 &= ~TIM_CR2_MMS;
 800501e:	f022 0270 	bic.w	r2, r2, #112	; 0x70
  tmpcr2 |=  sMasterConfig->MasterOutputTrigger;
 8005022:	430a      	orrs	r2, r1
  if (IS_TIM_SLAVE_INSTANCE(htim->Instance))
 8005024:	4283      	cmp	r3, r0
  tmpsmcr = htim->Instance->SMCR;
 8005026:	6899      	ldr	r1, [r3, #8]
  htim->Instance->CR2 = tmpcr2;
 8005028:	605a      	str	r2, [r3, #4]
  if (IS_TIM_SLAVE_INSTANCE(htim->Instance))
 800502a:	d011      	beq.n	8005050 <HAL_TIMEx_MasterConfigSynchronization+0x9c>
 800502c:	f1b3 4f80 	cmp.w	r3, #1073741824	; 0x40000000
 8005030:	d00e      	beq.n	8005050 <HAL_TIMEx_MasterConfigSynchronization+0x9c>
 8005032:	4a15      	ldr	r2, [pc, #84]	; (8005088 <HAL_TIMEx_MasterConfigSynchronization+0xd4>)
 8005034:	4293      	cmp	r3, r2
 8005036:	d00b      	beq.n	8005050 <HAL_TIMEx_MasterConfigSynchronization+0x9c>
 8005038:	f502 6280 	add.w	r2, r2, #1024	; 0x400
 800503c:	4293      	cmp	r3, r2
 800503e:	d007      	beq.n	8005050 <HAL_TIMEx_MasterConfigSynchronization+0x9c>
 8005040:	f502 6280 	add.w	r2, r2, #1024	; 0x400
 8005044:	4293      	cmp	r3, r2
 8005046:	d003      	beq.n	8005050 <HAL_TIMEx_MasterConfigSynchronization+0x9c>
 8005048:	f502 329a 	add.w	r2, r2, #78848	; 0x13400
 800504c:	4293      	cmp	r3, r2
 800504e:	d104      	bne.n	800505a <HAL_TIMEx_MasterConfigSynchronization+0xa6>
  {
    /* Reset the MSM Bit */
    tmpsmcr &= ~TIM_SMCR_MSM;
    /* Set master mode */
    tmpsmcr |= sMasterConfig->MasterSlaveMode;
 8005050:	686a      	ldr	r2, [r5, #4]
    tmpsmcr &= ~TIM_SMCR_MSM;
 8005052:	f021 0180 	bic.w	r1, r1, #128	; 0x80
    tmpsmcr |= sMasterConfig->MasterSlaveMode;
 8005056:	4311      	orrs	r1, r2

    /* Update TIMx SMCR */
    htim->Instance->SMCR = tmpsmcr;
 8005058:	6099      	str	r1, [r3, #8]
  }

  /* Change the htim state */
  htim->State = HAL_TIM_STATE_READY;
 800505a:	2301      	movs	r3, #1

  __HAL_UNLOCK(htim);
 800505c:	2000      	movs	r0, #0
  htim->State = HAL_TIM_STATE_READY;
 800505e:	f884 303d 	strb.w	r3, [r4, #61]	; 0x3d
  __HAL_UNLOCK(htim);
 8005062:	f884 003c 	strb.w	r0, [r4, #60]	; 0x3c

  return HAL_OK;
}
 8005066:	bd38      	pop	{r3, r4, r5, pc}
  assert_param(IS_TIM_MSM_STATE(sMasterConfig->MasterSlaveMode));
 8005068:	4806      	ldr	r0, [pc, #24]	; (8005084 <HAL_TIMEx_MasterConfigSynchronization+0xd0>)
 800506a:	f240 7179 	movw	r1, #1913	; 0x779
 800506e:	f7fc fb15 	bl	800169c <assert_failed>
  __HAL_LOCK(htim);
 8005072:	f894 303c 	ldrb.w	r3, [r4, #60]	; 0x3c
 8005076:	2b01      	cmp	r3, #1
 8005078:	d1ca      	bne.n	8005010 <HAL_TIMEx_MasterConfigSynchronization+0x5c>
 800507a:	2002      	movs	r0, #2
}
 800507c:	bd38      	pop	{r3, r4, r5, pc}
 800507e:	bf00      	nop
 8005080:	40010000 	.word	0x40010000
 8005084:	08009788 	.word	0x08009788
 8005088:	40000400 	.word	0x40000400

0800508c <HAL_TIMEx_CommutCallback>:
 800508c:	4770      	bx	lr
 800508e:	bf00      	nop

08005090 <HAL_TIMEx_BreakCallback>:
 8005090:	4770      	bx	lr
 8005092:	bf00      	nop

08005094 <hci_disconnection_complete_event_process>:
 * @param Reason Reason for disconnection. See Error Codes.
 * @retval None
 */

tBleStatus hci_disconnection_complete_event_process(uint8_t *buffer_in)
{
 8005094:	b508      	push	{r3, lr}
  tBleStatus status = BLE_STATUS_SUCCESS;
  /* Input params */
  hci_disconnection_complete_event_rp0 *rp0 = (hci_disconnection_complete_event_rp0 *)buffer_in;
  hci_disconnection_complete_event(rp0->Status,
 8005096:	f8b0 1001 	ldrh.w	r1, [r0, #1]
 800509a:	78c2      	ldrb	r2, [r0, #3]
 800509c:	7800      	ldrb	r0, [r0, #0]
 800509e:	f7fb ffa3 	bl	8000fe8 <hci_disconnection_complete_event>
                                   rp0->Connection_Handle,
                                   rp0->Reason);

  return status;
}
 80050a2:	2000      	movs	r0, #0
 80050a4:	bd08      	pop	{r3, pc}
 80050a6:	bf00      	nop

080050a8 <hci_encryption_change_event_process>:
 *        - 0x01: Link Level Encryption is ON with AES-CCM
 * @retval None
 */

tBleStatus hci_encryption_change_event_process(uint8_t *buffer_in)
{
 80050a8:	b508      	push	{r3, lr}
  tBleStatus status = BLE_STATUS_SUCCESS;
  /* Input params */
  hci_encryption_change_event_rp0 *rp0 = (hci_encryption_change_event_rp0 *)buffer_in;
  hci_encryption_change_event(rp0->Status,
 80050aa:	f8b0 1001 	ldrh.w	r1, [r0, #1]
 80050ae:	78c2      	ldrb	r2, [r0, #3]
 80050b0:	7800      	ldrb	r0, [r0, #0]
 80050b2:	f000 faf1 	bl	8005698 <hci_encryption_change_event>
                              rp0->Connection_Handle,
                              rp0->Encryption_Enabled);

  return status;
}
 80050b6:	2000      	movs	r0, #0
 80050b8:	bd08      	pop	{r3, pc}
 80050ba:	bf00      	nop

080050bc <hci_read_remote_version_information_complete_event_process>:
 * @param Subversion Subversion of the LMP in the remote Controller
 * @retval None
 */

tBleStatus hci_read_remote_version_information_complete_event_process(uint8_t *buffer_in)
{
 80050bc:	b500      	push	{lr}
 80050be:	b083      	sub	sp, #12
  tBleStatus status = BLE_STATUS_SUCCESS;
  /* Input params */
  hci_read_remote_version_information_complete_event_rp0 *rp0 = (hci_read_remote_version_information_complete_event_rp0 *)buffer_in;
  hci_read_remote_version_information_complete_event(rp0->Status,
 80050c0:	88c3      	ldrh	r3, [r0, #6]
 80050c2:	9300      	str	r3, [sp, #0]
 80050c4:	8883      	ldrh	r3, [r0, #4]
 80050c6:	78c2      	ldrb	r2, [r0, #3]
 80050c8:	f8b0 1001 	ldrh.w	r1, [r0, #1]
 80050cc:	7800      	ldrb	r0, [r0, #0]
 80050ce:	f000 fae5 	bl	800569c <hci_read_remote_version_information_complete_event>
                                                     rp0->Version,
                                                     rp0->Manufacturer_Name,
                                                     rp0->Subversion);

  return status;
}
 80050d2:	2000      	movs	r0, #0
 80050d4:	b003      	add	sp, #12
 80050d6:	f85d fb04 	ldr.w	pc, [sp], #4
 80050da:	bf00      	nop

080050dc <hci_hardware_error_event_process>:
 *        - 0x03: Internal queue overflow error
 * @retval None
 */

tBleStatus hci_hardware_error_event_process(uint8_t *buffer_in)
{
 80050dc:	b508      	push	{r3, lr}
  tBleStatus status = BLE_STATUS_SUCCESS;
  /* Input params */
  hci_hardware_error_event_rp0 *rp0 = (hci_hardware_error_event_rp0 *)buffer_in;
  hci_hardware_error_event(rp0->Hardware_Code);
 80050de:	7800      	ldrb	r0, [r0, #0]
 80050e0:	f000 fade 	bl	80056a0 <hci_hardware_error_event>

  return status;
}
 80050e4:	2000      	movs	r0, #0
 80050e6:	bd08      	pop	{r3, pc}

080050e8 <hci_number_of_completed_packets_event_process>:
 * @param Handle_Packets_Pair_Entry See @ref Handle_Packets_Pair_Entry_t
 * @retval None
 */

tBleStatus hci_number_of_completed_packets_event_process(uint8_t *buffer_in)
{
 80050e8:	b530      	push	{r4, r5, lr}
 80050ea:	4602      	mov	r2, r0
  /* Input params */
  hci_number_of_completed_packets_event_rp0 *rp0 = (hci_number_of_completed_packets_event_rp0 *)buffer_in;
  uint8_t size = 1;
  int i;
  Handle_Packets_Pair_Entry_t Handle_Packets_Pair_Entry[HCI_MAX_PAYLOAD_SIZE/sizeof(Handle_Packets_Pair_Entry_t)];
  for (i = 0; i < rp0->Number_of_Handles; i++) {
 80050ec:	7800      	ldrb	r0, [r0, #0]
{
 80050ee:	b0a1      	sub	sp, #132	; 0x84
 80050f0:	4669      	mov	r1, sp
  for (i = 0; i < rp0->Number_of_Handles; i++) {
 80050f2:	b148      	cbz	r0, 8005108 <hci_number_of_completed_packets_event_process+0x20>
 80050f4:	3201      	adds	r2, #1
 80050f6:	eb01 0580 	add.w	r5, r1, r0, lsl #2
 80050fa:	460b      	mov	r3, r1
    Handle_Packets_Pair_Entry[i].Connection_Handle = rp0->Handle_Packets_Pair_Entry[i].Connection_Handle;
 80050fc:	f852 4b04 	ldr.w	r4, [r2], #4
 8005100:	f843 4b04 	str.w	r4, [r3], #4
  for (i = 0; i < rp0->Number_of_Handles; i++) {
 8005104:	429d      	cmp	r5, r3
 8005106:	d1f9      	bne.n	80050fc <hci_number_of_completed_packets_event_process+0x14>
    size += 2;
    Handle_Packets_Pair_Entry[i].HC_Num_Of_Completed_Packets = rp0->Handle_Packets_Pair_Entry[i].HC_Num_Of_Completed_Packets;
    size += 2;
  }
  hci_number_of_completed_packets_event(rp0->Number_of_Handles,
 8005108:	f000 facc 	bl	80056a4 <hci_number_of_completed_packets_event>
                                        Handle_Packets_Pair_Entry);

  return status;
}
 800510c:	2000      	movs	r0, #0
 800510e:	b021      	add	sp, #132	; 0x84
 8005110:	bd30      	pop	{r4, r5, pc}
 8005112:	bf00      	nop

08005114 <hci_data_buffer_overflow_event_process>:
 *        - 0x01: ACL Buffer Overflow
 * @retval None
 */

tBleStatus hci_data_buffer_overflow_event_process(uint8_t *buffer_in)
{
 8005114:	b508      	push	{r3, lr}
  tBleStatus status = BLE_STATUS_SUCCESS;
  /* Input params */
  hci_data_buffer_overflow_event_rp0 *rp0 = (hci_data_buffer_overflow_event_rp0 *)buffer_in;
  hci_data_buffer_overflow_event(rp0->Link_Type);
 8005116:	7800      	ldrb	r0, [r0, #0]
 8005118:	f000 fac6 	bl	80056a8 <hci_data_buffer_overflow_event>

  return status;
}
 800511c:	2000      	movs	r0, #0
 800511e:	bd08      	pop	{r3, pc}

08005120 <hci_encryption_key_refresh_complete_event_process>:
 *        - 0x0000 ... 0x0EFF
 * @retval None
 */

tBleStatus hci_encryption_key_refresh_complete_event_process(uint8_t *buffer_in)
{
 8005120:	b508      	push	{r3, lr}
  tBleStatus status = BLE_STATUS_SUCCESS;
  /* Input params */
  hci_encryption_key_refresh_complete_event_rp0 *rp0 = (hci_encryption_key_refresh_complete_event_rp0 *)buffer_in;
  hci_encryption_key_refresh_complete_event(rp0->Status,
 8005122:	f8b0 1001 	ldrh.w	r1, [r0, #1]
 8005126:	7800      	ldrb	r0, [r0, #0]
 8005128:	f000 fac0 	bl	80056ac <hci_encryption_key_refresh_complete_event>
                                            rp0->Connection_Handle);

  return status;
}
 800512c:	2000      	movs	r0, #0
 800512e:	bd08      	pop	{r3, pc}

08005130 <aci_blue_initialized_event_process>:
 *        - 0x09: System reset due to ECC error
 * @retval None
 */

tBleStatus aci_blue_initialized_event_process(uint8_t *buffer_in)
{
 8005130:	b508      	push	{r3, lr}
  tBleStatus status = BLE_STATUS_SUCCESS;
  /* Input params */
  aci_blue_initialized_event_rp0 *rp0 = (aci_blue_initialized_event_rp0 *)buffer_in;
  aci_blue_initialized_event(rp0->Reason_Code);
 8005132:	7800      	ldrb	r0, [r0, #0]
 8005134:	f000 fb14 	bl	8005760 <aci_blue_initialized_event>

  return status;
}
 8005138:	2000      	movs	r0, #0
 800513a:	bd08      	pop	{r3, pc}

0800513c <aci_blue_events_lost_event_process>:
 *        - 0x0080000000000000: ACI_GAP_KEYPRESS_NOTIFICATION_EVENT
 * @retval None
 */

tBleStatus aci_blue_events_lost_event_process(uint8_t *buffer_in)
{
 800513c:	b508      	push	{r3, lr}
  tBleStatus status = BLE_STATUS_SUCCESS;
  /* Input params */
  aci_blue_events_lost_event_rp0 *rp0 = (aci_blue_events_lost_event_rp0 *)buffer_in;
  aci_blue_events_lost_event(rp0->Lost_Events);
 800513e:	f000 fb11 	bl	8005764 <aci_blue_events_lost_event>

  return status;
}
 8005142:	2000      	movs	r0, #0
 8005144:	bd08      	pop	{r3, pc}
 8005146:	bf00      	nop

08005148 <aci_blue_crash_info_event_process>:
 * @param Debug_Data Debug data
 * @retval None
 */

tBleStatus aci_blue_crash_info_event_process(uint8_t *buffer_in)
{
 8005148:	b570      	push	{r4, r5, r6, lr}
  tBleStatus status = BLE_STATUS_SUCCESS;
  /* Input params */
  aci_blue_crash_info_event_rp0 *rp0 = (aci_blue_crash_info_event_rp0 *)buffer_in;
  aci_blue_crash_info_event(rp0->Crash_Type,
 800514a:	4603      	mov	r3, r0
{
 800514c:	b088      	sub	sp, #32
 800514e:	4601      	mov	r1, r0
  aci_blue_crash_info_event(rp0->Crash_Type,
 8005150:	f890 4025 	ldrb.w	r4, [r0, #37]	; 0x25
 8005154:	f813 0b26 	ldrb.w	r0, [r3], #38
 8005158:	f8d1 2021 	ldr.w	r2, [r1, #33]	; 0x21
 800515c:	f8d1 601d 	ldr.w	r6, [r1, #29]
 8005160:	9307      	str	r3, [sp, #28]
 8005162:	f8d1 5019 	ldr.w	r5, [r1, #25]
 8005166:	9406      	str	r4, [sp, #24]
 8005168:	f8d1 4015 	ldr.w	r4, [r1, #21]
 800516c:	9205      	str	r2, [sp, #20]
 800516e:	f8d1 2011 	ldr.w	r2, [r1, #17]
 8005172:	9604      	str	r6, [sp, #16]
 8005174:	f8d1 300d 	ldr.w	r3, [r1, #13]
 8005178:	e9cd 4502 	strd	r4, r5, [sp, #8]
 800517c:	e9cd 3200 	strd	r3, r2, [sp]
 8005180:	f8d1 3009 	ldr.w	r3, [r1, #9]
 8005184:	f8d1 2005 	ldr.w	r2, [r1, #5]
 8005188:	f8d1 1001 	ldr.w	r1, [r1, #1]
 800518c:	f000 faec 	bl	8005768 <aci_blue_crash_info_event>
                            rp0->xPSR,
                            rp0->Debug_Data_Length,
                            rp0->Debug_Data);

  return status;
}
 8005190:	2000      	movs	r0, #0
 8005192:	b008      	add	sp, #32
 8005194:	bd70      	pop	{r4, r5, r6, pc}
 8005196:	bf00      	nop

08005198 <aci_hal_end_of_radio_activity_event_process>:
 *        time units.
 * @retval None
 */

tBleStatus aci_hal_end_of_radio_activity_event_process(uint8_t *buffer_in)
{
 8005198:	b508      	push	{r3, lr}
  tBleStatus status = BLE_STATUS_SUCCESS;
  /* Input params */
  aci_hal_end_of_radio_activity_event_rp0 *rp0 = (aci_hal_end_of_radio_activity_event_rp0 *)buffer_in;
  aci_hal_end_of_radio_activity_event(rp0->Last_State,
 800519a:	f8d0 2002 	ldr.w	r2, [r0, #2]
 800519e:	7841      	ldrb	r1, [r0, #1]
 80051a0:	7800      	ldrb	r0, [r0, #0]
 80051a2:	f000 fae3 	bl	800576c <aci_hal_end_of_radio_activity_event>
                                      rp0->Next_State,
                                      rp0->Next_State_SysTime);

  return status;
}
 80051a6:	2000      	movs	r0, #0
 80051a8:	bd08      	pop	{r3, pc}
 80051aa:	bf00      	nop

080051ac <aci_hal_scan_req_report_event_process>:
 *        peer device
 * @retval None
 */

tBleStatus aci_hal_scan_req_report_event_process(uint8_t *buffer_in)
{
 80051ac:	b508      	push	{r3, lr}
  tBleStatus status = BLE_STATUS_SUCCESS;
  /* Input params */
  aci_hal_scan_req_report_event_rp0 *rp0 = (aci_hal_scan_req_report_event_rp0 *)buffer_in;
  aci_hal_scan_req_report_event(rp0->RSSI,
 80051ae:	1c82      	adds	r2, r0, #2
 80051b0:	7841      	ldrb	r1, [r0, #1]
 80051b2:	f990 0000 	ldrsb.w	r0, [r0]
 80051b6:	f000 fadb 	bl	8005770 <aci_hal_scan_req_report_event>
                                rp0->Peer_Address_Type,
                                rp0->Peer_Address);

  return status;
}
 80051ba:	2000      	movs	r0, #0
 80051bc:	bd08      	pop	{r3, pc}
 80051be:	bf00      	nop

080051c0 <aci_hal_fw_error_event_process>:
 *        the connection handle where the abnormal condition has occurred.
 * @retval None
 */

tBleStatus aci_hal_fw_error_event_process(uint8_t *buffer_in)
{
 80051c0:	b508      	push	{r3, lr}
  tBleStatus status = BLE_STATUS_SUCCESS;
  /* Input params */
  aci_hal_fw_error_event_rp0 *rp0 = (aci_hal_fw_error_event_rp0 *)buffer_in;
  aci_hal_fw_error_event(rp0->FW_Error_Type,
 80051c2:	1c82      	adds	r2, r0, #2
 80051c4:	7841      	ldrb	r1, [r0, #1]
 80051c6:	7800      	ldrb	r0, [r0, #0]
 80051c8:	f000 fad4 	bl	8005774 <aci_hal_fw_error_event>
                         rp0->Data_Length,
                         rp0->Data);

  return status;
}
 80051cc:	2000      	movs	r0, #0
 80051ce:	bd08      	pop	{r3, pc}

080051d0 <aci_gap_limited_discoverable_event_process>:
 *        discoverable mode ends due to timeout. The timeout is 180 seconds.
 * @retval None
 */

tBleStatus aci_gap_limited_discoverable_event_process(uint8_t *buffer_in)
{
 80051d0:	b508      	push	{r3, lr}
  tBleStatus status = BLE_STATUS_SUCCESS;
  aci_gap_limited_discoverable_event();
 80051d2:	f000 fa7f 	bl	80056d4 <aci_gap_limited_discoverable_event>

  return status;
}
 80051d6:	2000      	movs	r0, #0
 80051d8:	bd08      	pop	{r3, pc}
 80051da:	bf00      	nop

080051dc <aci_gap_pairing_complete_event_process>:
 *        - 0x0C: SMP_SC_NUMCOMPARISON_FAILED
 * @retval None
 */

tBleStatus aci_gap_pairing_complete_event_process(uint8_t *buffer_in)
{
 80051dc:	b508      	push	{r3, lr}
  tBleStatus status = BLE_STATUS_SUCCESS;
  /* Input params */
  aci_gap_pairing_complete_event_rp0 *rp0 = (aci_gap_pairing_complete_event_rp0 *)buffer_in;
  aci_gap_pairing_complete_event(rp0->Connection_Handle,
 80051de:	78c2      	ldrb	r2, [r0, #3]
 80051e0:	7881      	ldrb	r1, [r0, #2]
 80051e2:	8800      	ldrh	r0, [r0, #0]
 80051e4:	f000 fa78 	bl	80056d8 <aci_gap_pairing_complete_event>
                                 rp0->Status,
                                 rp0->Reason);

  return status;
}
 80051e8:	2000      	movs	r0, #0
 80051ea:	bd08      	pop	{r3, pc}

080051ec <aci_gap_pass_key_req_event_process>:
 *        requested.
 * @retval None
 */

tBleStatus aci_gap_pass_key_req_event_process(uint8_t *buffer_in)
{
 80051ec:	b508      	push	{r3, lr}
  tBleStatus status = BLE_STATUS_SUCCESS;
  /* Input params */
  aci_gap_pass_key_req_event_rp0 *rp0 = (aci_gap_pass_key_req_event_rp0 *)buffer_in;
  aci_gap_pass_key_req_event(rp0->Connection_Handle);
 80051ee:	8800      	ldrh	r0, [r0, #0]
 80051f0:	f000 fa74 	bl	80056dc <aci_gap_pass_key_req_event>

  return status;
}
 80051f4:	2000      	movs	r0, #0
 80051f6:	bd08      	pop	{r3, pc}

080051f8 <aci_gap_authorization_req_event_process>:
 *        requested.
 * @retval None
 */

tBleStatus aci_gap_authorization_req_event_process(uint8_t *buffer_in)
{
 80051f8:	b508      	push	{r3, lr}
  tBleStatus status = BLE_STATUS_SUCCESS;
  /* Input params */
  aci_gap_authorization_req_event_rp0 *rp0 = (aci_gap_authorization_req_event_rp0 *)buffer_in;
  aci_gap_authorization_req_event(rp0->Connection_Handle);
 80051fa:	8800      	ldrh	r0, [r0, #0]
 80051fc:	f000 fa70 	bl	80056e0 <aci_gap_authorization_req_event>

  return status;
}
 8005200:	2000      	movs	r0, #0
 8005202:	bd08      	pop	{r3, pc}

08005204 <aci_gap_slave_security_initiated_event_process>:
 *        successfully sent to the master.
 * @retval None
 */

tBleStatus aci_gap_slave_security_initiated_event_process(uint8_t *buffer_in)
{
 8005204:	b508      	push	{r3, lr}
  tBleStatus status = BLE_STATUS_SUCCESS;
  aci_gap_slave_security_initiated_event();
 8005206:	f000 fa6d 	bl	80056e4 <aci_gap_slave_security_initiated_event>

  return status;
}
 800520a:	2000      	movs	r0, #0
 800520c:	bd08      	pop	{r3, pc}
 800520e:	bf00      	nop

08005210 <aci_gap_bond_lost_event_process>:
 *        force_rebond set to 1.
 * @retval None
 */

tBleStatus aci_gap_bond_lost_event_process(uint8_t *buffer_in)
{
 8005210:	b508      	push	{r3, lr}
  tBleStatus status = BLE_STATUS_SUCCESS;
  aci_gap_bond_lost_event();
 8005212:	f000 fa69 	bl	80056e8 <aci_gap_bond_lost_event>

  return status;
}
 8005216:	2000      	movs	r0, #0
 8005218:	bd08      	pop	{r3, pc}
 800521a:	bf00      	nop

0800521c <aci_gap_proc_complete_event_process>:
 *        of the peer device if the procedure completed successfully.
 * @retval None
 */

tBleStatus aci_gap_proc_complete_event_process(uint8_t *buffer_in)
{
 800521c:	b508      	push	{r3, lr}
  tBleStatus status = BLE_STATUS_SUCCESS;
  /* Input params */
  aci_gap_proc_complete_event_rp0 *rp0 = (aci_gap_proc_complete_event_rp0 *)buffer_in;
  aci_gap_proc_complete_event(rp0->Procedure_Code,
 800521e:	1cc3      	adds	r3, r0, #3
 8005220:	7882      	ldrb	r2, [r0, #2]
 8005222:	7841      	ldrb	r1, [r0, #1]
 8005224:	7800      	ldrb	r0, [r0, #0]
 8005226:	f000 fa61 	bl	80056ec <aci_gap_proc_complete_event>
                              rp0->Status,
                              rp0->Data_Length,
                              rp0->Data);

  return status;
}
 800522a:	2000      	movs	r0, #0
 800522c:	bd08      	pop	{r3, pc}
 800522e:	bf00      	nop

08005230 <aci_gap_addr_not_resolved_event_process>:
 *        could not be resolved with any of the stored IRK's.
 * @retval None
 */

tBleStatus aci_gap_addr_not_resolved_event_process(uint8_t *buffer_in)
{
 8005230:	b508      	push	{r3, lr}
  tBleStatus status = BLE_STATUS_SUCCESS;
  /* Input params */
  aci_gap_addr_not_resolved_event_rp0 *rp0 = (aci_gap_addr_not_resolved_event_rp0 *)buffer_in;
  aci_gap_addr_not_resolved_event(rp0->Connection_Handle);
 8005232:	8800      	ldrh	r0, [r0, #0]
 8005234:	f000 fa5c 	bl	80056f0 <aci_gap_addr_not_resolved_event>

  return status;
}
 8005238:	2000      	movs	r0, #0
 800523a:	bd08      	pop	{r3, pc}

0800523c <aci_gap_numeric_comparison_value_event_process>:
 * @param Numeric_Value
 * @retval None
 */

tBleStatus aci_gap_numeric_comparison_value_event_process(uint8_t *buffer_in)
{
 800523c:	b508      	push	{r3, lr}
  tBleStatus status = BLE_STATUS_SUCCESS;
  /* Input params */
  aci_gap_numeric_comparison_value_event_rp0 *rp0 = (aci_gap_numeric_comparison_value_event_rp0 *)buffer_in;
  aci_gap_numeric_comparison_value_event(rp0->Connection_Handle,
 800523e:	f8d0 1002 	ldr.w	r1, [r0, #2]
 8005242:	8800      	ldrh	r0, [r0, #0]
 8005244:	f000 fa56 	bl	80056f4 <aci_gap_numeric_comparison_value_event>
                                         rp0->Numeric_Value);

  return status;
}
 8005248:	2000      	movs	r0, #0
 800524a:	bd08      	pop	{r3, pc}

0800524c <aci_gap_keypress_notification_event_process>:
 *        - 0x04: PASSKEY_ENTRY_COMPLETED
 * @retval None
 */

tBleStatus aci_gap_keypress_notification_event_process(uint8_t *buffer_in)
{
 800524c:	b508      	push	{r3, lr}
  tBleStatus status = BLE_STATUS_SUCCESS;
  /* Input params */
  aci_gap_keypress_notification_event_rp0 *rp0 = (aci_gap_keypress_notification_event_rp0 *)buffer_in;
  aci_gap_keypress_notification_event(rp0->Connection_Handle,
 800524e:	7881      	ldrb	r1, [r0, #2]
 8005250:	8800      	ldrh	r0, [r0, #0]
 8005252:	f000 fa51 	bl	80056f8 <aci_gap_keypress_notification_event>
                                      rp0->Notification_Type);

  return status;
}
 8005256:	2000      	movs	r0, #0
 8005258:	bd08      	pop	{r3, pc}
 800525a:	bf00      	nop

0800525c <aci_l2cap_connection_update_resp_event_process>:
 * @param Result
 * @retval None
 */

tBleStatus aci_l2cap_connection_update_resp_event_process(uint8_t *buffer_in)
{
 800525c:	b508      	push	{r3, lr}
  tBleStatus status = BLE_STATUS_SUCCESS;
  /* Input params */
  aci_l2cap_connection_update_resp_event_rp0 *rp0 = (aci_l2cap_connection_update_resp_event_rp0 *)buffer_in;
  aci_l2cap_connection_update_resp_event(rp0->Connection_Handle,
 800525e:	8841      	ldrh	r1, [r0, #2]
 8005260:	8800      	ldrh	r0, [r0, #0]
 8005262:	f000 fa75 	bl	8005750 <aci_l2cap_connection_update_resp_event>
                                         rp0->Result);

  return status;
}
 8005266:	2000      	movs	r0, #0
 8005268:	bd08      	pop	{r3, pc}
 800526a:	bf00      	nop

0800526c <aci_l2cap_proc_timeout_event_process>:
 * @param Data
 * @retval None
 */

tBleStatus aci_l2cap_proc_timeout_event_process(uint8_t *buffer_in)
{
 800526c:	b508      	push	{r3, lr}
  tBleStatus status = BLE_STATUS_SUCCESS;
  /* Input params */
  aci_l2cap_proc_timeout_event_rp0 *rp0 = (aci_l2cap_proc_timeout_event_rp0 *)buffer_in;
  aci_l2cap_proc_timeout_event(rp0->Connection_Handle,
 800526e:	1cc2      	adds	r2, r0, #3
 8005270:	7881      	ldrb	r1, [r0, #2]
 8005272:	8800      	ldrh	r0, [r0, #0]
 8005274:	f000 fa6e 	bl	8005754 <aci_l2cap_proc_timeout_event>
                               rp0->Data_Length,
                               rp0->Data);

  return status;
}
 8005278:	2000      	movs	r0, #0
 800527a:	bd08      	pop	{r3, pc}

0800527c <aci_l2cap_connection_update_req_event_process>:
 *        - 10 (100 ms)  ... 3200 (32000 ms) 
 * @retval None
 */

tBleStatus aci_l2cap_connection_update_req_event_process(uint8_t *buffer_in)
{
 800527c:	b500      	push	{lr}
  tBleStatus status = BLE_STATUS_SUCCESS;
  /* Input params */
  aci_l2cap_connection_update_req_event_rp0 *rp0 = (aci_l2cap_connection_update_req_event_rp0 *)buffer_in;
  aci_l2cap_connection_update_req_event(rp0->Connection_Handle,
 800527e:	f8b0 100b 	ldrh.w	r1, [r0, #11]
 8005282:	f8b0 2009 	ldrh.w	r2, [r0, #9]
 8005286:	f8b0 3007 	ldrh.w	r3, [r0, #7]
{
 800528a:	b085      	sub	sp, #20
  aci_l2cap_connection_update_req_event(rp0->Connection_Handle,
 800528c:	e9cd 2101 	strd	r2, r1, [sp, #4]
 8005290:	9300      	str	r3, [sp, #0]
 8005292:	f8b0 3005 	ldrh.w	r3, [r0, #5]
 8005296:	f8b0 2003 	ldrh.w	r2, [r0, #3]
 800529a:	7881      	ldrb	r1, [r0, #2]
 800529c:	8800      	ldrh	r0, [r0, #0]
 800529e:	f000 fa5b 	bl	8005758 <aci_l2cap_connection_update_req_event>
                                        rp0->Interval_Max,
                                        rp0->Slave_Latency,
                                        rp0->Timeout_Multiplier);

  return status;
}
 80052a2:	2000      	movs	r0, #0
 80052a4:	b005      	add	sp, #20
 80052a6:	f85d fb04 	ldr.w	pc, [sp], #4
 80052aa:	bf00      	nop

080052ac <aci_l2cap_command_reject_event_process>:
 * @param Data Data field associated with Reason
 * @retval None
 */

tBleStatus aci_l2cap_command_reject_event_process(uint8_t *buffer_in)
{
 80052ac:	b500      	push	{lr}
  tBleStatus status = BLE_STATUS_SUCCESS;
  /* Input params */
  aci_l2cap_command_reject_event_rp0 *rp0 = (aci_l2cap_command_reject_event_rp0 *)buffer_in;
  aci_l2cap_command_reject_event(rp0->Connection_Handle,
 80052ae:	4602      	mov	r2, r0
{
 80052b0:	b083      	sub	sp, #12
  aci_l2cap_command_reject_event(rp0->Connection_Handle,
 80052b2:	7943      	ldrb	r3, [r0, #5]
{
 80052b4:	4601      	mov	r1, r0
  aci_l2cap_command_reject_event(rp0->Connection_Handle,
 80052b6:	f832 0b06 	ldrh.w	r0, [r2], #6
 80052ba:	9200      	str	r2, [sp, #0]
 80052bc:	f8b1 2003 	ldrh.w	r2, [r1, #3]
 80052c0:	7889      	ldrb	r1, [r1, #2]
 80052c2:	f000 fa4b 	bl	800575c <aci_l2cap_command_reject_event>
                                 rp0->Reason,
                                 rp0->Data_Length,
                                 rp0->Data);

  return status;
}
 80052c6:	2000      	movs	r0, #0
 80052c8:	b003      	add	sp, #12
 80052ca:	f85d fb04 	ldr.w	pc, [sp], #4
 80052ce:	bf00      	nop

080052d0 <aci_gatt_attribute_modified_event_process>:
 * @param Attr_Data The modified value
 * @retval None
 */

tBleStatus aci_gatt_attribute_modified_event_process(uint8_t *buffer_in)
{
 80052d0:	b500      	push	{lr}
  tBleStatus status = BLE_STATUS_SUCCESS;
  /* Input params */
  aci_gatt_attribute_modified_event_rp0 *rp0 = (aci_gatt_attribute_modified_event_rp0 *)buffer_in;
  aci_gatt_attribute_modified_event(rp0->Connection_Handle,
 80052d2:	4602      	mov	r2, r0
{
 80052d4:	b083      	sub	sp, #12
  aci_gatt_attribute_modified_event(rp0->Connection_Handle,
 80052d6:	88c3      	ldrh	r3, [r0, #6]
{
 80052d8:	4601      	mov	r1, r0
  aci_gatt_attribute_modified_event(rp0->Connection_Handle,
 80052da:	f832 0b08 	ldrh.w	r0, [r2], #8
 80052de:	9200      	str	r2, [sp, #0]
 80052e0:	888a      	ldrh	r2, [r1, #4]
 80052e2:	8849      	ldrh	r1, [r1, #2]
 80052e4:	f7fb feb6 	bl	8001054 <aci_gatt_attribute_modified_event>
                                    rp0->Offset,
                                    rp0->Attr_Data_Length,
                                    rp0->Attr_Data);

  return status;
}
 80052e8:	2000      	movs	r0, #0
 80052ea:	b003      	add	sp, #12
 80052ec:	f85d fb04 	ldr.w	pc, [sp], #4

080052f0 <aci_gatt_proc_timeout_event_process>:
 *        timed out
 * @retval None
 */

tBleStatus aci_gatt_proc_timeout_event_process(uint8_t *buffer_in)
{
 80052f0:	b508      	push	{r3, lr}
  tBleStatus status = BLE_STATUS_SUCCESS;
  /* Input params */
  aci_gatt_proc_timeout_event_rp0 *rp0 = (aci_gatt_proc_timeout_event_rp0 *)buffer_in;
  aci_gatt_proc_timeout_event(rp0->Connection_Handle);
 80052f2:	8800      	ldrh	r0, [r0, #0]
 80052f4:	f000 fa02 	bl	80056fc <aci_gatt_proc_timeout_event>

  return status;
}
 80052f8:	2000      	movs	r0, #0
 80052fa:	bd08      	pop	{r3, pc}

080052fc <aci_att_exchange_mtu_resp_event_process>:
 * @param Server_RX_MTU ATT_MTU value agreed between server and client
 * @retval None
 */

tBleStatus aci_att_exchange_mtu_resp_event_process(uint8_t *buffer_in)
{
 80052fc:	b508      	push	{r3, lr}
  tBleStatus status = BLE_STATUS_SUCCESS;
  /* Input params */
  aci_att_exchange_mtu_resp_event_rp0 *rp0 = (aci_att_exchange_mtu_resp_event_rp0 *)buffer_in;
  aci_att_exchange_mtu_resp_event(rp0->Connection_Handle,
 80052fe:	8841      	ldrh	r1, [r0, #2]
 8005300:	8800      	ldrh	r0, [r0, #0]
 8005302:	f000 f9fd 	bl	8005700 <aci_att_exchange_mtu_resp_event>
                                  rp0->Server_RX_MTU);

  return status;
}
 8005306:	2000      	movs	r0, #0
 8005308:	bd08      	pop	{r3, pc}
 800530a:	bf00      	nop

0800530c <aci_att_find_info_resp_event_process>:
 *        pair is:[2 octets for handle, 16 octets for UUIDs]
 * @retval None
 */

tBleStatus aci_att_find_info_resp_event_process(uint8_t *buffer_in)
{
 800530c:	b508      	push	{r3, lr}
  tBleStatus status = BLE_STATUS_SUCCESS;
  /* Input params */
  aci_att_find_info_resp_event_rp0 *rp0 = (aci_att_find_info_resp_event_rp0 *)buffer_in;
  aci_att_find_info_resp_event(rp0->Connection_Handle,
 800530e:	1d03      	adds	r3, r0, #4
 8005310:	78c2      	ldrb	r2, [r0, #3]
 8005312:	7881      	ldrb	r1, [r0, #2]
 8005314:	8800      	ldrh	r0, [r0, #0]
 8005316:	f000 f9f5 	bl	8005704 <aci_att_find_info_resp_event>
                               rp0->Format,
                               rp0->Event_Data_Length,
                               rp0->Handle_UUID_Pair);

  return status;
}
 800531a:	2000      	movs	r0, #0
 800531c:	bd08      	pop	{r3, pc}
 800531e:	bf00      	nop

08005320 <aci_att_find_by_type_value_resp_event_process>:
 * @param Attribute_Group_Handle_Pair See @ref Attribute_Group_Handle_Pair_t
 * @retval None
 */

tBleStatus aci_att_find_by_type_value_resp_event_process(uint8_t *buffer_in)
{
 8005320:	b570      	push	{r4, r5, r6, lr}
  /* Input params */
  aci_att_find_by_type_value_resp_event_rp0 *rp0 = (aci_att_find_by_type_value_resp_event_rp0 *)buffer_in;
  uint8_t size = 3;
  int i;
  Attribute_Group_Handle_Pair_t Attribute_Group_Handle_Pair[HCI_MAX_PAYLOAD_SIZE/sizeof(Attribute_Group_Handle_Pair_t)];
  for (i = 0; i < rp0->Num_of_Handle_Pair; i++) {
 8005322:	7881      	ldrb	r1, [r0, #2]
{
 8005324:	b0a0      	sub	sp, #128	; 0x80
 8005326:	466a      	mov	r2, sp
  for (i = 0; i < rp0->Num_of_Handle_Pair; i++) {
 8005328:	b149      	cbz	r1, 800533e <aci_att_find_by_type_value_resp_event_process+0x1e>
 800532a:	eb02 0681 	add.w	r6, r2, r1, lsl #2
 800532e:	4613      	mov	r3, r2
 8005330:	1cc4      	adds	r4, r0, #3
    Attribute_Group_Handle_Pair[i].Found_Attribute_Handle = rp0->Attribute_Group_Handle_Pair[i].Found_Attribute_Handle;
 8005332:	f854 5b04 	ldr.w	r5, [r4], #4
 8005336:	f843 5b04 	str.w	r5, [r3], #4
  for (i = 0; i < rp0->Num_of_Handle_Pair; i++) {
 800533a:	429e      	cmp	r6, r3
 800533c:	d1f9      	bne.n	8005332 <aci_att_find_by_type_value_resp_event_process+0x12>
    size += 2;
    Attribute_Group_Handle_Pair[i].Group_End_Handle = rp0->Attribute_Group_Handle_Pair[i].Group_End_Handle;
    size += 2;
  }
  aci_att_find_by_type_value_resp_event(rp0->Connection_Handle,
 800533e:	8800      	ldrh	r0, [r0, #0]
 8005340:	f000 f9e2 	bl	8005708 <aci_att_find_by_type_value_resp_event>
                                        rp0->Num_of_Handle_Pair,
                                        Attribute_Group_Handle_Pair);

  return status;
}
 8005344:	2000      	movs	r0, #0
 8005346:	b020      	add	sp, #128	; 0x80
 8005348:	bd70      	pop	{r4, r5, r6, pc}
 800534a:	bf00      	nop

0800534c <aci_att_read_by_type_resp_event_process>:
 *        Value]
 * @retval None
 */

tBleStatus aci_att_read_by_type_resp_event_process(uint8_t *buffer_in)
{
 800534c:	b508      	push	{r3, lr}
  tBleStatus status = BLE_STATUS_SUCCESS;
  /* Input params */
  aci_att_read_by_type_resp_event_rp0 *rp0 = (aci_att_read_by_type_resp_event_rp0 *)buffer_in;
  aci_att_read_by_type_resp_event(rp0->Connection_Handle,
 800534e:	1d03      	adds	r3, r0, #4
 8005350:	78c2      	ldrb	r2, [r0, #3]
 8005352:	7881      	ldrb	r1, [r0, #2]
 8005354:	8800      	ldrh	r0, [r0, #0]
 8005356:	f000 f9d9 	bl	800570c <aci_att_read_by_type_resp_event>
                                  rp0->Handle_Value_Pair_Length,
                                  rp0->Data_Length,
                                  rp0->Handle_Value_Pair_Data);

  return status;
}
 800535a:	2000      	movs	r0, #0
 800535c:	bd08      	pop	{r3, pc}
 800535e:	bf00      	nop

08005360 <aci_att_read_resp_event_process>:
 * @param Attribute_Value The value of the attribute.
 * @retval None
 */

tBleStatus aci_att_read_resp_event_process(uint8_t *buffer_in)
{
 8005360:	b508      	push	{r3, lr}
  tBleStatus status = BLE_STATUS_SUCCESS;
  /* Input params */
  aci_att_read_resp_event_rp0 *rp0 = (aci_att_read_resp_event_rp0 *)buffer_in;
  aci_att_read_resp_event(rp0->Connection_Handle,
 8005362:	1cc2      	adds	r2, r0, #3
 8005364:	7881      	ldrb	r1, [r0, #2]
 8005366:	8800      	ldrh	r0, [r0, #0]
 8005368:	f000 f9d2 	bl	8005710 <aci_att_read_resp_event>
                          rp0->Event_Data_Length,
                          rp0->Attribute_Value);

  return status;
}
 800536c:	2000      	movs	r0, #0
 800536e:	bd08      	pop	{r3, pc}

08005370 <aci_att_read_blob_resp_event_process>:
 * @param Attribute_Value Part of the attribute value.
 * @retval None
 */

tBleStatus aci_att_read_blob_resp_event_process(uint8_t *buffer_in)
{
 8005370:	b508      	push	{r3, lr}
  tBleStatus status = BLE_STATUS_SUCCESS;
  /* Input params */
  aci_att_read_blob_resp_event_rp0 *rp0 = (aci_att_read_blob_resp_event_rp0 *)buffer_in;
  aci_att_read_blob_resp_event(rp0->Connection_Handle,
 8005372:	1cc2      	adds	r2, r0, #3
 8005374:	7881      	ldrb	r1, [r0, #2]
 8005376:	8800      	ldrh	r0, [r0, #0]
 8005378:	f000 f9cc 	bl	8005714 <aci_att_read_blob_resp_event>
                               rp0->Event_Data_Length,
                               rp0->Attribute_Value);

  return status;
}
 800537c:	2000      	movs	r0, #0
 800537e:	bd08      	pop	{r3, pc}

08005380 <aci_att_read_multiple_resp_event_process>:
 *        the order that they were requested.
 * @retval None
 */

tBleStatus aci_att_read_multiple_resp_event_process(uint8_t *buffer_in)
{
 8005380:	b508      	push	{r3, lr}
  tBleStatus status = BLE_STATUS_SUCCESS;
  /* Input params */
  aci_att_read_multiple_resp_event_rp0 *rp0 = (aci_att_read_multiple_resp_event_rp0 *)buffer_in;
  aci_att_read_multiple_resp_event(rp0->Connection_Handle,
 8005382:	1cc2      	adds	r2, r0, #3
 8005384:	7881      	ldrb	r1, [r0, #2]
 8005386:	8800      	ldrh	r0, [r0, #0]
 8005388:	f000 f9c6 	bl	8005718 <aci_att_read_multiple_resp_event>
                                   rp0->Event_Data_Length,
                                   rp0->Set_Of_Values);

  return status;
}
 800538c:	2000      	movs	r0, #0
 800538e:	bd08      	pop	{r3, pc}

08005390 <aci_att_read_by_group_type_resp_event_process>:
 *        Handle, (Attribute_Data_Length - 4 octets) for Attribute Value]
 * @retval None
 */

tBleStatus aci_att_read_by_group_type_resp_event_process(uint8_t *buffer_in)
{
 8005390:	b508      	push	{r3, lr}
  tBleStatus status = BLE_STATUS_SUCCESS;
  /* Input params */
  aci_att_read_by_group_type_resp_event_rp0 *rp0 = (aci_att_read_by_group_type_resp_event_rp0 *)buffer_in;
  aci_att_read_by_group_type_resp_event(rp0->Connection_Handle,
 8005392:	1d03      	adds	r3, r0, #4
 8005394:	78c2      	ldrb	r2, [r0, #3]
 8005396:	7881      	ldrb	r1, [r0, #2]
 8005398:	8800      	ldrh	r0, [r0, #0]
 800539a:	f000 f9bf 	bl	800571c <aci_att_read_by_group_type_resp_event>
                                        rp0->Attribute_Data_Length,
                                        rp0->Data_Length,
                                        rp0->Attribute_Data_List);

  return status;
}
 800539e:	2000      	movs	r0, #0
 80053a0:	bd08      	pop	{r3, pc}
 80053a2:	bf00      	nop

080053a4 <aci_att_prepare_write_resp_event_process>:
 * @param Part_Attribute_Value The value of the attribute to be written
 * @retval None
 */

tBleStatus aci_att_prepare_write_resp_event_process(uint8_t *buffer_in)
{
 80053a4:	b500      	push	{lr}
  tBleStatus status = BLE_STATUS_SUCCESS;
  /* Input params */
  aci_att_prepare_write_resp_event_rp0 *rp0 = (aci_att_prepare_write_resp_event_rp0 *)buffer_in;
  aci_att_prepare_write_resp_event(rp0->Connection_Handle,
 80053a6:	4602      	mov	r2, r0
{
 80053a8:	b083      	sub	sp, #12
  aci_att_prepare_write_resp_event(rp0->Connection_Handle,
 80053aa:	7983      	ldrb	r3, [r0, #6]
{
 80053ac:	4601      	mov	r1, r0
  aci_att_prepare_write_resp_event(rp0->Connection_Handle,
 80053ae:	f832 0b07 	ldrh.w	r0, [r2], #7
 80053b2:	9200      	str	r2, [sp, #0]
 80053b4:	888a      	ldrh	r2, [r1, #4]
 80053b6:	8849      	ldrh	r1, [r1, #2]
 80053b8:	f000 f9b2 	bl	8005720 <aci_att_prepare_write_resp_event>
                                   rp0->Offset,
                                   rp0->Part_Attribute_Value_Length,
                                   rp0->Part_Attribute_Value);

  return status;
}
 80053bc:	2000      	movs	r0, #0
 80053be:	b003      	add	sp, #12
 80053c0:	f85d fb04 	ldr.w	pc, [sp], #4

080053c4 <aci_att_exec_write_resp_event_process>:
 * @param Connection_Handle Connection handle related to the response
 * @retval None
 */

tBleStatus aci_att_exec_write_resp_event_process(uint8_t *buffer_in)
{
 80053c4:	b508      	push	{r3, lr}
  tBleStatus status = BLE_STATUS_SUCCESS;
  /* Input params */
  aci_att_exec_write_resp_event_rp0 *rp0 = (aci_att_exec_write_resp_event_rp0 *)buffer_in;
  aci_att_exec_write_resp_event(rp0->Connection_Handle);
 80053c6:	8800      	ldrh	r0, [r0, #0]
 80053c8:	f000 f9ac 	bl	8005724 <aci_att_exec_write_resp_event>

  return status;
}
 80053cc:	2000      	movs	r0, #0
 80053ce:	bd08      	pop	{r3, pc}

080053d0 <aci_gatt_indication_event_process>:
 * @param Attribute_Value The current value of the attribute
 * @retval None
 */

tBleStatus aci_gatt_indication_event_process(uint8_t *buffer_in)
{
 80053d0:	b508      	push	{r3, lr}
  tBleStatus status = BLE_STATUS_SUCCESS;
  /* Input params */
  aci_gatt_indication_event_rp0 *rp0 = (aci_gatt_indication_event_rp0 *)buffer_in;
  aci_gatt_indication_event(rp0->Connection_Handle,
 80053d2:	1d43      	adds	r3, r0, #5
 80053d4:	7902      	ldrb	r2, [r0, #4]
 80053d6:	8841      	ldrh	r1, [r0, #2]
 80053d8:	8800      	ldrh	r0, [r0, #0]
 80053da:	f000 f9a5 	bl	8005728 <aci_gatt_indication_event>
                            rp0->Attribute_Handle,
                            rp0->Attribute_Value_Length,
                            rp0->Attribute_Value);

  return status;
}
 80053de:	2000      	movs	r0, #0
 80053e0:	bd08      	pop	{r3, pc}
 80053e2:	bf00      	nop

080053e4 <aci_gatt_notification_event_process>:
 * @param Attribute_Value The current value of the attribute
 * @retval None
 */

tBleStatus aci_gatt_notification_event_process(uint8_t *buffer_in)
{
 80053e4:	b508      	push	{r3, lr}
  tBleStatus status = BLE_STATUS_SUCCESS;
  /* Input params */
  aci_gatt_notification_event_rp0 *rp0 = (aci_gatt_notification_event_rp0 *)buffer_in;
  aci_gatt_notification_event(rp0->Connection_Handle,
 80053e6:	1d43      	adds	r3, r0, #5
 80053e8:	7902      	ldrb	r2, [r0, #4]
 80053ea:	8841      	ldrh	r1, [r0, #2]
 80053ec:	8800      	ldrh	r0, [r0, #0]
 80053ee:	f7fb fe2f 	bl	8001050 <aci_gatt_notification_event>
                              rp0->Attribute_Handle,
                              rp0->Attribute_Value_Length,
                              rp0->Attribute_Value);

  return status;
}
 80053f2:	2000      	movs	r0, #0
 80053f4:	bd08      	pop	{r3, pc}
 80053f6:	bf00      	nop

080053f8 <aci_gatt_proc_complete_event_process>:
 *        was successful.
 * @retval None
 */

tBleStatus aci_gatt_proc_complete_event_process(uint8_t *buffer_in)
{
 80053f8:	b508      	push	{r3, lr}
  tBleStatus status = BLE_STATUS_SUCCESS;
  /* Input params */
  aci_gatt_proc_complete_event_rp0 *rp0 = (aci_gatt_proc_complete_event_rp0 *)buffer_in;
  aci_gatt_proc_complete_event(rp0->Connection_Handle,
 80053fa:	7881      	ldrb	r1, [r0, #2]
 80053fc:	8800      	ldrh	r0, [r0, #0]
 80053fe:	f000 f995 	bl	800572c <aci_gatt_proc_complete_event>
                               rp0->Error_Code);

  return status;
}
 8005402:	2000      	movs	r0, #0
 8005404:	bd08      	pop	{r3, pc}
 8005406:	bf00      	nop

08005408 <aci_gatt_error_resp_event_process>:
 *        - 0x11: Insufficient resources
 * @retval None
 */

tBleStatus aci_gatt_error_resp_event_process(uint8_t *buffer_in)
{
 8005408:	b508      	push	{r3, lr}
  tBleStatus status = BLE_STATUS_SUCCESS;
  /* Input params */
  aci_gatt_error_resp_event_rp0 *rp0 = (aci_gatt_error_resp_event_rp0 *)buffer_in;
  aci_gatt_error_resp_event(rp0->Connection_Handle,
 800540a:	7943      	ldrb	r3, [r0, #5]
 800540c:	f8b0 2003 	ldrh.w	r2, [r0, #3]
 8005410:	7881      	ldrb	r1, [r0, #2]
 8005412:	8800      	ldrh	r0, [r0, #0]
 8005414:	f000 f98c 	bl	8005730 <aci_gatt_error_resp_event>
                            rp0->Req_Opcode,
                            rp0->Attribute_Handle,
                            rp0->Error_Code);

  return status;
}
 8005418:	2000      	movs	r0, #0
 800541a:	bd08      	pop	{r3, pc}

0800541c <aci_gatt_disc_read_char_by_uuid_resp_event_process>:
 *        been performed.
 * @retval None
 */

tBleStatus aci_gatt_disc_read_char_by_uuid_resp_event_process(uint8_t *buffer_in)
{
 800541c:	b508      	push	{r3, lr}
  tBleStatus status = BLE_STATUS_SUCCESS;
  /* Input params */
  aci_gatt_disc_read_char_by_uuid_resp_event_rp0 *rp0 = (aci_gatt_disc_read_char_by_uuid_resp_event_rp0 *)buffer_in;
  aci_gatt_disc_read_char_by_uuid_resp_event(rp0->Connection_Handle,
 800541e:	1d43      	adds	r3, r0, #5
 8005420:	7902      	ldrb	r2, [r0, #4]
 8005422:	8841      	ldrh	r1, [r0, #2]
 8005424:	8800      	ldrh	r0, [r0, #0]
 8005426:	f000 f985 	bl	8005734 <aci_gatt_disc_read_char_by_uuid_resp_event>
                                             rp0->Attribute_Handle,
                                             rp0->Attribute_Value_Length,
                                             rp0->Attribute_Value);

  return status;
}
 800542a:	2000      	movs	r0, #0
 800542c:	bd08      	pop	{r3, pc}
 800542e:	bf00      	nop

08005430 <aci_gatt_write_permit_req_event_process>:
 * @param Data The data that the client has requested to write
 * @retval None
 */

tBleStatus aci_gatt_write_permit_req_event_process(uint8_t *buffer_in)
{
 8005430:	b508      	push	{r3, lr}
  tBleStatus status = BLE_STATUS_SUCCESS;
  /* Input params */
  aci_gatt_write_permit_req_event_rp0 *rp0 = (aci_gatt_write_permit_req_event_rp0 *)buffer_in;
  aci_gatt_write_permit_req_event(rp0->Connection_Handle,
 8005432:	1d43      	adds	r3, r0, #5
 8005434:	7902      	ldrb	r2, [r0, #4]
 8005436:	8841      	ldrh	r1, [r0, #2]
 8005438:	8800      	ldrh	r0, [r0, #0]
 800543a:	f000 f97d 	bl	8005738 <aci_gatt_write_permit_req_event>
                                  rp0->Attribute_Handle,
                                  rp0->Data_Length,
                                  rp0->Data);

  return status;
}
 800543e:	2000      	movs	r0, #0
 8005440:	bd08      	pop	{r3, pc}
 8005442:	bf00      	nop

08005444 <aci_gatt_read_permit_req_event_process>:
 * @param Offset Contains the offset from which the read has been requested
 * @retval None
 */

tBleStatus aci_gatt_read_permit_req_event_process(uint8_t *buffer_in)
{
 8005444:	b508      	push	{r3, lr}
  tBleStatus status = BLE_STATUS_SUCCESS;
  /* Input params */
  aci_gatt_read_permit_req_event_rp0 *rp0 = (aci_gatt_read_permit_req_event_rp0 *)buffer_in;
  aci_gatt_read_permit_req_event(rp0->Connection_Handle,
 8005446:	8882      	ldrh	r2, [r0, #4]
 8005448:	8841      	ldrh	r1, [r0, #2]
 800544a:	8800      	ldrh	r0, [r0, #0]
 800544c:	f000 f976 	bl	800573c <aci_gatt_read_permit_req_event>
                                 rp0->Attribute_Handle,
                                 rp0->Offset);

  return status;
}
 8005450:	2000      	movs	r0, #0
 8005452:	bd08      	pop	{r3, pc}

08005454 <aci_gatt_read_multi_permit_req_event_process>:
 * @param Handle_Item See @ref Handle_Item_t
 * @retval None
 */

tBleStatus aci_gatt_read_multi_permit_req_event_process(uint8_t *buffer_in)
{
 8005454:	b530      	push	{r4, r5, lr}
  /* Input params */
  aci_gatt_read_multi_permit_req_event_rp0 *rp0 = (aci_gatt_read_multi_permit_req_event_rp0 *)buffer_in;
  uint8_t size = 3;
  int i;
  Handle_Item_t Handle_Item[HCI_MAX_PAYLOAD_SIZE/sizeof(Handle_Item_t)];
  for (i = 0; i < rp0->Number_of_Handles; i++) {
 8005456:	7885      	ldrb	r5, [r0, #2]
{
 8005458:	b0a1      	sub	sp, #132	; 0x84
 800545a:	4604      	mov	r4, r0
  for (i = 0; i < rp0->Number_of_Handles; i++) {
 800545c:	466b      	mov	r3, sp
 800545e:	b12d      	cbz	r5, 800546c <aci_gatt_read_multi_permit_req_event_process+0x18>
 8005460:	4618      	mov	r0, r3
 8005462:	006a      	lsls	r2, r5, #1
 8005464:	1ce1      	adds	r1, r4, #3
 8005466:	f003 f82f 	bl	80084c8 <memcpy>
 800546a:	4603      	mov	r3, r0
    Handle_Item[i].Handle = rp0->Handle_Item[i].Handle;
    size += 2;
  }
  aci_gatt_read_multi_permit_req_event(rp0->Connection_Handle,
 800546c:	8820      	ldrh	r0, [r4, #0]
 800546e:	461a      	mov	r2, r3
 8005470:	4629      	mov	r1, r5
 8005472:	f000 f965 	bl	8005740 <aci_gatt_read_multi_permit_req_event>
                                       rp0->Number_of_Handles,
                                       Handle_Item);

  return status;
}
 8005476:	2000      	movs	r0, #0
 8005478:	b021      	add	sp, #132	; 0x84
 800547a:	bd30      	pop	{r4, r5, pc}

0800547c <aci_gatt_tx_pool_available_event_process>:
 * @param Available_Buffers Not used.
 * @retval None
 */

tBleStatus aci_gatt_tx_pool_available_event_process(uint8_t *buffer_in)
{
 800547c:	b508      	push	{r3, lr}
  tBleStatus status = BLE_STATUS_SUCCESS;
  /* Input params */
  aci_gatt_tx_pool_available_event_rp0 *rp0 = (aci_gatt_tx_pool_available_event_rp0 *)buffer_in;
  aci_gatt_tx_pool_available_event(rp0->Connection_Handle,
 800547e:	8841      	ldrh	r1, [r0, #2]
 8005480:	8800      	ldrh	r0, [r0, #0]
 8005482:	f000 f95f 	bl	8005744 <aci_gatt_tx_pool_available_event>
                                   rp0->Available_Buffers);

  return status;
}
 8005486:	2000      	movs	r0, #0
 8005488:	bd08      	pop	{r3, pc}
 800548a:	bf00      	nop

0800548c <aci_gatt_server_confirmation_event_process>:
 * @param Connection_Handle Connection handle related to the event
 * @retval None
 */

tBleStatus aci_gatt_server_confirmation_event_process(uint8_t *buffer_in)
{
 800548c:	b508      	push	{r3, lr}
  tBleStatus status = BLE_STATUS_SUCCESS;
  /* Input params */
  aci_gatt_server_confirmation_event_rp0 *rp0 = (aci_gatt_server_confirmation_event_rp0 *)buffer_in;
  aci_gatt_server_confirmation_event(rp0->Connection_Handle);
 800548e:	8800      	ldrh	r0, [r0, #0]
 8005490:	f000 f95a 	bl	8005748 <aci_gatt_server_confirmation_event>

  return status;
}
 8005494:	2000      	movs	r0, #0
 8005496:	bd08      	pop	{r3, pc}

08005498 <aci_gatt_prepare_write_permit_req_event_process>:
 * @param Data The data that the client has requested to write
 * @retval None
 */

tBleStatus aci_gatt_prepare_write_permit_req_event_process(uint8_t *buffer_in)
{
 8005498:	b500      	push	{lr}
  tBleStatus status = BLE_STATUS_SUCCESS;
  /* Input params */
  aci_gatt_prepare_write_permit_req_event_rp0 *rp0 = (aci_gatt_prepare_write_permit_req_event_rp0 *)buffer_in;
  aci_gatt_prepare_write_permit_req_event(rp0->Connection_Handle,
 800549a:	4602      	mov	r2, r0
{
 800549c:	b083      	sub	sp, #12
  aci_gatt_prepare_write_permit_req_event(rp0->Connection_Handle,
 800549e:	7983      	ldrb	r3, [r0, #6]
{
 80054a0:	4601      	mov	r1, r0
  aci_gatt_prepare_write_permit_req_event(rp0->Connection_Handle,
 80054a2:	f832 0b07 	ldrh.w	r0, [r2], #7
 80054a6:	9200      	str	r2, [sp, #0]
 80054a8:	888a      	ldrh	r2, [r1, #4]
 80054aa:	8849      	ldrh	r1, [r1, #2]
 80054ac:	f000 f94e 	bl	800574c <aci_gatt_prepare_write_permit_req_event>
                                          rp0->Offset,
                                          rp0->Data_Length,
                                          rp0->Data);

  return status;
}
 80054b0:	2000      	movs	r0, #0
 80054b2:	b003      	add	sp, #12
 80054b4:	f85d fb04 	ldr.w	pc, [sp], #4

080054b8 <hci_le_connection_complete_event_process>:
 *        - 0x07: 20 ppm
 * @retval None
 */

tBleStatus hci_le_connection_complete_event_process(uint8_t *buffer_in)
{
 80054b8:	b530      	push	{r4, r5, lr}
  tBleStatus status = BLE_STATUS_SUCCESS;
  /* Input params */
  hci_le_connection_complete_event_rp0 *rp0 = (hci_le_connection_complete_event_rp0 *)buffer_in;
  hci_le_connection_complete_event(rp0->Status,
 80054ba:	7c45      	ldrb	r5, [r0, #17]
 80054bc:	f8b0 400f 	ldrh.w	r4, [r0, #15]
 80054c0:	f8b0 100d 	ldrh.w	r1, [r0, #13]
 80054c4:	f8b0 200b 	ldrh.w	r2, [r0, #11]
{
 80054c8:	b087      	sub	sp, #28
  hci_le_connection_complete_event(rp0->Status,
 80054ca:	e9cd 4503 	strd	r4, r5, [sp, #12]
 80054ce:	e9cd 2101 	strd	r2, r1, [sp, #4]
                                   rp0->Connection_Handle,
                                   rp0->Role,
                                   rp0->Peer_Address_Type,
                                   rp0->Peer_Address,
 80054d2:	1d43      	adds	r3, r0, #5
  hci_le_connection_complete_event(rp0->Status,
 80054d4:	9300      	str	r3, [sp, #0]
 80054d6:	7903      	ldrb	r3, [r0, #4]
 80054d8:	78c2      	ldrb	r2, [r0, #3]
 80054da:	f8b0 1001 	ldrh.w	r1, [r0, #1]
 80054de:	7800      	ldrb	r0, [r0, #0]
 80054e0:	f7fb fd44 	bl	8000f6c <hci_le_connection_complete_event>
                                   rp0->Conn_Latency,
                                   rp0->Supervision_Timeout,
                                   rp0->Master_Clock_Accuracy);

  return status;
}
 80054e4:	2000      	movs	r0, #0
 80054e6:	b007      	add	sp, #28
 80054e8:	bd30      	pop	{r4, r5, pc}
 80054ea:	bf00      	nop

080054ec <hci_le_advertising_report_event_process>:
 * @param Advertising_Report See @ref Advertising_Report_t
 * @retval None
 */

tBleStatus hci_le_advertising_report_event_process(uint8_t *buffer_in)
{
 80054ec:	e92d 43f0 	stmdb	sp!, {r4, r5, r6, r7, r8, r9, lr}
  /* Input params */
  hci_le_advertising_report_event_rp0 *rp0 = (hci_le_advertising_report_event_rp0 *)buffer_in;
  uint8_t size = 1;
  int i;
  Advertising_Report_t Advertising_Report[HCI_MAX_PAYLOAD_SIZE/sizeof(Advertising_Report_t)];
  for (i = 0; i < rp0->Num_Reports; i++) {
 80054f0:	f890 e000 	ldrb.w	lr, [r0]
{
 80054f4:	b09f      	sub	sp, #124	; 0x7c
  for (i = 0; i < rp0->Num_Reports; i++) {
 80054f6:	f1be 0f00 	cmp.w	lr, #0
 80054fa:	d02c      	beq.n	8005556 <hci_le_advertising_report_event_process+0x6a>
 80054fc:	f100 010a 	add.w	r1, r0, #10
 8005500:	f04f 0c0b 	mov.w	ip, #11
 8005504:	fb1c 1c0e 	smlabb	ip, ip, lr, r1
 8005508:	f10d 0302 	add.w	r3, sp, #2
  uint8_t size = 1;
 800550c:	2201      	movs	r2, #1
    size += 1;
    Advertising_Report[i].Address_Type = rp0->Advertising_Report[i].Address_Type;
    size += 1;
    BLUENRG_memcpy((void *) Advertising_Report[i].Address, (const void *) rp0->Advertising_Report[i].Address, 6);
    size += 6;
    Advertising_Report[i].Length_Data = rp0->Advertising_Report[i].Length_Data;
 800550e:	f811 5c01 	ldrb.w	r5, [r1, #-1]
    size += 1;
    Advertising_Report[i].Data = rp0->Advertising_Report[i].Data;
 8005512:	f8c3 100a 	str.w	r1, [r3, #10]
    BLUENRG_memcpy((void *) Advertising_Report[i].Address, (const void *) rp0->Advertising_Report[i].Address, 6);
 8005516:	460c      	mov	r4, r1
    size += rp0->Advertising_Report[i].Length_Data;
 8005518:	f105 0609 	add.w	r6, r5, #9
    BLUENRG_memcpy((void *) Advertising_Report[i].Address, (const void *) rp0->Advertising_Report[i].Address, 6);
 800551c:	f854 7d07 	ldr.w	r7, [r4, #-7]!
    Advertising_Report[i].Length_Data = rp0->Advertising_Report[i].Length_Data;
 8005520:	719d      	strb	r5, [r3, #6]
    size += rp0->Advertising_Report[i].Length_Data;
 8005522:	4432      	add	r2, r6
 8005524:	b2d2      	uxtb	r2, r2
    Advertising_Report[i].Event_Type = rp0->Advertising_Report[i].Event_Type;
 8005526:	f811 6c09 	ldrb.w	r6, [r1, #-9]
    BLUENRG_memcpy((void *) Advertising_Report[i].Address, (const void *) rp0->Advertising_Report[i].Address, 6);
 800552a:	f8b4 8004 	ldrh.w	r8, [r4, #4]
    Advertising_Report[i].Address_Type = rp0->Advertising_Report[i].Address_Type;
 800552e:	f811 4c08 	ldrb.w	r4, [r1, #-8]
    Advertising_Report[i].RSSI = (uint8_t)buffer_in[size];
 8005532:	f810 9002 	ldrb.w	r9, [r0, r2]
 8005536:	f883 900e 	strb.w	r9, [r3, #14]
 800553a:	310b      	adds	r1, #11
    size += 1;
 800553c:	3201      	adds	r2, #1
  for (i = 0; i < rp0->Num_Reports; i++) {
 800553e:	4561      	cmp	r1, ip
    BLUENRG_memcpy((void *) Advertising_Report[i].Address, (const void *) rp0->Advertising_Report[i].Address, 6);
 8005540:	f8a3 8004 	strh.w	r8, [r3, #4]
 8005544:	601f      	str	r7, [r3, #0]
    Advertising_Report[i].Event_Type = rp0->Advertising_Report[i].Event_Type;
 8005546:	f803 6c02 	strb.w	r6, [r3, #-2]
    Advertising_Report[i].Address_Type = rp0->Advertising_Report[i].Address_Type;
 800554a:	f803 4c01 	strb.w	r4, [r3, #-1]
    size += 1;
 800554e:	b2d2      	uxtb	r2, r2
  for (i = 0; i < rp0->Num_Reports; i++) {
 8005550:	f103 0314 	add.w	r3, r3, #20
 8005554:	d1db      	bne.n	800550e <hci_le_advertising_report_event_process+0x22>
  }
  hci_le_advertising_report_event(rp0->Num_Reports,
 8005556:	4670      	mov	r0, lr
 8005558:	4669      	mov	r1, sp
 800555a:	f000 f8a9 	bl	80056b0 <hci_le_advertising_report_event>
                                  Advertising_Report);

  return status;
}
 800555e:	2000      	movs	r0, #0
 8005560:	b01f      	add	sp, #124	; 0x7c
 8005562:	e8bd 83f0 	ldmia.w	sp!, {r4, r5, r6, r7, r8, r9, pc}
 8005566:	bf00      	nop

08005568 <hci_le_connection_update_complete_event_process>:
 *        - 0x000A (100 ms)  ... 0x0C80 (32000 ms) 
 * @retval None
 */

tBleStatus hci_le_connection_update_complete_event_process(uint8_t *buffer_in)
{
 8005568:	b500      	push	{lr}
 800556a:	b083      	sub	sp, #12
  tBleStatus status = BLE_STATUS_SUCCESS;
  /* Input params */
  hci_le_connection_update_complete_event_rp0 *rp0 = (hci_le_connection_update_complete_event_rp0 *)buffer_in;
  hci_le_connection_update_complete_event(rp0->Status,
 800556c:	f8b0 3007 	ldrh.w	r3, [r0, #7]
 8005570:	9300      	str	r3, [sp, #0]
 8005572:	f8b0 3005 	ldrh.w	r3, [r0, #5]
 8005576:	f8b0 2003 	ldrh.w	r2, [r0, #3]
 800557a:	f8b0 1001 	ldrh.w	r1, [r0, #1]
 800557e:	7800      	ldrb	r0, [r0, #0]
 8005580:	f000 f898 	bl	80056b4 <hci_le_connection_update_complete_event>
                                          rp0->Conn_Interval,
                                          rp0->Conn_Latency,
                                          rp0->Supervision_Timeout);

  return status;
}
 8005584:	2000      	movs	r0, #0
 8005586:	b003      	add	sp, #12
 8005588:	f85d fb04 	ldr.w	pc, [sp], #4

0800558c <hci_le_read_remote_used_features_complete_event_process>:
 *        Layer specification.
 * @retval None
 */

tBleStatus hci_le_read_remote_used_features_complete_event_process(uint8_t *buffer_in)
{
 800558c:	b508      	push	{r3, lr}
  tBleStatus status = BLE_STATUS_SUCCESS;
  /* Input params */
  hci_le_read_remote_used_features_complete_event_rp0 *rp0 = (hci_le_read_remote_used_features_complete_event_rp0 *)buffer_in;
  hci_le_read_remote_used_features_complete_event(rp0->Status,
 800558e:	f8b0 1001 	ldrh.w	r1, [r0, #1]
 8005592:	1cc2      	adds	r2, r0, #3
 8005594:	7800      	ldrb	r0, [r0, #0]
 8005596:	f000 f88f 	bl	80056b8 <hci_le_read_remote_used_features_complete_event>
                                                  rp0->Connection_Handle,
                                                  rp0->LE_Features);

  return status;
}
 800559a:	2000      	movs	r0, #0
 800559c:	bd08      	pop	{r3, pc}
 800559e:	bf00      	nop

080055a0 <hci_le_long_term_key_request_event_process>:
 * @param Encrypted_Diversifier 16-bit encrypted diversifier
 * @retval None
 */

tBleStatus hci_le_long_term_key_request_event_process(uint8_t *buffer_in)
{
 80055a0:	b508      	push	{r3, lr}
  tBleStatus status = BLE_STATUS_SUCCESS;
  /* Input params */
  hci_le_long_term_key_request_event_rp0 *rp0 = (hci_le_long_term_key_request_event_rp0 *)buffer_in;
  hci_le_long_term_key_request_event(rp0->Connection_Handle,
                                     rp0->Random_Number,
 80055a2:	4601      	mov	r1, r0
  hci_le_long_term_key_request_event(rp0->Connection_Handle,
 80055a4:	8942      	ldrh	r2, [r0, #10]
 80055a6:	f831 0b02 	ldrh.w	r0, [r1], #2
 80055aa:	f000 f887 	bl	80056bc <hci_le_long_term_key_request_event>
                                     rp0->Encrypted_Diversifier);

  return status;
}
 80055ae:	2000      	movs	r0, #0
 80055b0:	bd08      	pop	{r3, pc}
 80055b2:	bf00      	nop

080055b4 <hci_le_data_length_change_event_process>:
 *        future use)
 * @retval None
 */

tBleStatus hci_le_data_length_change_event_process(uint8_t *buffer_in)
{
 80055b4:	b500      	push	{lr}
 80055b6:	b083      	sub	sp, #12
  tBleStatus status = BLE_STATUS_SUCCESS;
  /* Input params */
  hci_le_data_length_change_event_rp0 *rp0 = (hci_le_data_length_change_event_rp0 *)buffer_in;
  hci_le_data_length_change_event(rp0->Connection_Handle,
 80055b8:	8903      	ldrh	r3, [r0, #8]
 80055ba:	9300      	str	r3, [sp, #0]
 80055bc:	88c3      	ldrh	r3, [r0, #6]
 80055be:	8882      	ldrh	r2, [r0, #4]
 80055c0:	8841      	ldrh	r1, [r0, #2]
 80055c2:	8800      	ldrh	r0, [r0, #0]
 80055c4:	f000 f87c 	bl	80056c0 <hci_le_data_length_change_event>
                                  rp0->MaxTxTime,
                                  rp0->MaxRxOctets,
                                  rp0->MaxRxTime);

  return status;
}
 80055c8:	2000      	movs	r0, #0
 80055ca:	b003      	add	sp, #12
 80055cc:	f85d fb04 	ldr.w	pc, [sp], #4

080055d0 <hci_le_read_local_p256_public_key_complete_event_process>:
 * @param Local_P256_Public_Key Local P-256 public key.
 * @retval None
 */

tBleStatus hci_le_read_local_p256_public_key_complete_event_process(uint8_t *buffer_in)
{
 80055d0:	b508      	push	{r3, lr}
  tBleStatus status = BLE_STATUS_SUCCESS;
  /* Input params */
  hci_le_read_local_p256_public_key_complete_event_rp0 *rp0 = (hci_le_read_local_p256_public_key_complete_event_rp0 *)buffer_in;
  hci_le_read_local_p256_public_key_complete_event(rp0->Status,
                                                   rp0->Local_P256_Public_Key);
 80055d2:	4601      	mov	r1, r0
  hci_le_read_local_p256_public_key_complete_event(rp0->Status,
 80055d4:	f811 0b01 	ldrb.w	r0, [r1], #1
 80055d8:	f000 f874 	bl	80056c4 <hci_le_read_local_p256_public_key_complete_event>

  return status;
}
 80055dc:	2000      	movs	r0, #0
 80055de:	bd08      	pop	{r3, pc}

080055e0 <hci_le_generate_dhkey_complete_event_process>:
 * @param DHKey Diffie Hellman Key
 * @retval None
 */

tBleStatus hci_le_generate_dhkey_complete_event_process(uint8_t *buffer_in)
{
 80055e0:	b508      	push	{r3, lr}
  tBleStatus status = BLE_STATUS_SUCCESS;
  /* Input params */
  hci_le_generate_dhkey_complete_event_rp0 *rp0 = (hci_le_generate_dhkey_complete_event_rp0 *)buffer_in;
  hci_le_generate_dhkey_complete_event(rp0->Status,
                                       rp0->DHKey);
 80055e2:	4601      	mov	r1, r0
  hci_le_generate_dhkey_complete_event(rp0->Status,
 80055e4:	f811 0b01 	ldrb.w	r0, [r1], #1
 80055e8:	f000 f86e 	bl	80056c8 <hci_le_generate_dhkey_complete_event>

  return status;
}
 80055ec:	2000      	movs	r0, #0
 80055ee:	bd08      	pop	{r3, pc}

080055f0 <hci_le_enhanced_connection_complete_event_process>:
 *        - 0x07: 20 ppm
 * @retval None
 */

tBleStatus hci_le_enhanced_connection_complete_event_process(uint8_t *buffer_in)
{
 80055f0:	b530      	push	{r4, r5, lr}
 80055f2:	b089      	sub	sp, #36	; 0x24
  tBleStatus status = BLE_STATUS_SUCCESS;
  /* Input params */
  hci_le_enhanced_connection_complete_event_rp0 *rp0 = (hci_le_enhanced_connection_complete_event_rp0 *)buffer_in;
  hci_le_enhanced_connection_complete_event(rp0->Status,
 80055f4:	7f42      	ldrb	r2, [r0, #29]
 80055f6:	f8b0 5019 	ldrh.w	r5, [r0, #25]
 80055fa:	f8b0 4017 	ldrh.w	r4, [r0, #23]
 80055fe:	f8b0 301b 	ldrh.w	r3, [r0, #27]
 8005602:	9206      	str	r2, [sp, #24]
                                            rp0->Connection_Handle,
                                            rp0->Role,
                                            rp0->Peer_Address_Type,
                                            rp0->Peer_Address,
                                            rp0->Local_Resolvable_Private_Address,
                                            rp0->Peer_Resolvable_Private_Address,
 8005604:	f100 0111 	add.w	r1, r0, #17
                                            rp0->Local_Resolvable_Private_Address,
 8005608:	f100 020b 	add.w	r2, r0, #11
  hci_le_enhanced_connection_complete_event(rp0->Status,
 800560c:	e9cd 4503 	strd	r4, r5, [sp, #12]
 8005610:	e9cd 2101 	strd	r2, r1, [sp, #4]
 8005614:	9305      	str	r3, [sp, #20]
                                            rp0->Peer_Address,
 8005616:	1d43      	adds	r3, r0, #5
  hci_le_enhanced_connection_complete_event(rp0->Status,
 8005618:	9300      	str	r3, [sp, #0]
 800561a:	7903      	ldrb	r3, [r0, #4]
 800561c:	78c2      	ldrb	r2, [r0, #3]
 800561e:	f8b0 1001 	ldrh.w	r1, [r0, #1]
 8005622:	7800      	ldrb	r0, [r0, #0]
 8005624:	f000 f852 	bl	80056cc <hci_le_enhanced_connection_complete_event>
                                            rp0->Conn_Latency,
                                            rp0->Supervision_Timeout,
                                            rp0->Master_Clock_Accuracy);

  return status;
}
 8005628:	2000      	movs	r0, #0
 800562a:	b009      	add	sp, #36	; 0x24
 800562c:	bd30      	pop	{r4, r5, pc}
 800562e:	bf00      	nop

08005630 <hci_le_direct_advertising_report_event_process>:
 * @param Direct_Advertising_Report See @ref Direct_Advertising_Report_t
 * @retval None
 */

tBleStatus hci_le_direct_advertising_report_event_process(uint8_t *buffer_in)
{
 8005630:	e92d 43f0 	stmdb	sp!, {r4, r5, r6, r7, r8, r9, lr}
 8005634:	4603      	mov	r3, r0
  /* Input params */
  hci_le_direct_advertising_report_event_rp0 *rp0 = (hci_le_direct_advertising_report_event_rp0 *)buffer_in;
  uint8_t size = 1;
  int i;
  Direct_Advertising_Report_t Direct_Advertising_Report[HCI_MAX_PAYLOAD_SIZE/sizeof(Direct_Advertising_Report_t)];
  for (i = 0; i < rp0->Num_Reports; i++) {
 8005636:	7800      	ldrb	r0, [r0, #0]
{
 8005638:	b0a1      	sub	sp, #132	; 0x84
  for (i = 0; i < rp0->Num_Reports; i++) {
 800563a:	b328      	cbz	r0, 8005688 <hci_le_direct_advertising_report_event_process+0x58>
 800563c:	3303      	adds	r3, #3
 800563e:	eb03 1900 	add.w	r9, r3, r0, lsl #4
 8005642:	f10d 0209 	add.w	r2, sp, #9
    size += 1;
    BLUENRG_memcpy((void *) Direct_Advertising_Report[i].Address, (const void *) rp0->Direct_Advertising_Report[i].Address, 6);
    size += 6;
    Direct_Advertising_Report[i].Direct_Address_Type = rp0->Direct_Advertising_Report[i].Direct_Address_Type;
    size += 1;
    BLUENRG_memcpy((void *) Direct_Advertising_Report[i].Direct_Address, (const void *) rp0->Direct_Advertising_Report[i].Direct_Address, 6);
 8005646:	4619      	mov	r1, r3
    Direct_Advertising_Report[i].Event_Type = rp0->Direct_Advertising_Report[i].Event_Type;
 8005648:	f813 cc02 	ldrb.w	ip, [r3, #-2]
    BLUENRG_memcpy((void *) Direct_Advertising_Report[i].Direct_Address, (const void *) rp0->Direct_Advertising_Report[i].Direct_Address, 6);
 800564c:	f851 ef07 	ldr.w	lr, [r1, #7]!
    Direct_Advertising_Report[i].Address_Type = rp0->Direct_Advertising_Report[i].Address_Type;
 8005650:	f813 7c01 	ldrb.w	r7, [r3, #-1]
    BLUENRG_memcpy((void *) Direct_Advertising_Report[i].Address, (const void *) rp0->Direct_Advertising_Report[i].Address, 6);
 8005654:	681e      	ldr	r6, [r3, #0]
 8005656:	889d      	ldrh	r5, [r3, #4]
    Direct_Advertising_Report[i].Direct_Address_Type = rp0->Direct_Advertising_Report[i].Direct_Address_Type;
 8005658:	799c      	ldrb	r4, [r3, #6]
    BLUENRG_memcpy((void *) Direct_Advertising_Report[i].Direct_Address, (const void *) rp0->Direct_Advertising_Report[i].Direct_Address, 6);
 800565a:	f8b1 8004 	ldrh.w	r8, [r1, #4]
    size += 6;
    Direct_Advertising_Report[i].RSSI = rp0->Direct_Advertising_Report[i].RSSI;
 800565e:	7b59      	ldrb	r1, [r3, #13]
    BLUENRG_memcpy((void *) Direct_Advertising_Report[i].Direct_Address, (const void *) rp0->Direct_Advertising_Report[i].Direct_Address, 6);
 8005660:	f8a2 8004 	strh.w	r8, [r2, #4]
 8005664:	3310      	adds	r3, #16
  for (i = 0; i < rp0->Num_Reports; i++) {
 8005666:	454b      	cmp	r3, r9
    BLUENRG_memcpy((void *) Direct_Advertising_Report[i].Direct_Address, (const void *) rp0->Direct_Advertising_Report[i].Direct_Address, 6);
 8005668:	f8c2 e000 	str.w	lr, [r2]
    Direct_Advertising_Report[i].Event_Type = rp0->Direct_Advertising_Report[i].Event_Type;
 800566c:	f802 cc09 	strb.w	ip, [r2, #-9]
    Direct_Advertising_Report[i].Address_Type = rp0->Direct_Advertising_Report[i].Address_Type;
 8005670:	f802 7c08 	strb.w	r7, [r2, #-8]
    BLUENRG_memcpy((void *) Direct_Advertising_Report[i].Address, (const void *) rp0->Direct_Advertising_Report[i].Address, 6);
 8005674:	f842 6c07 	str.w	r6, [r2, #-7]
 8005678:	f822 5c03 	strh.w	r5, [r2, #-3]
    Direct_Advertising_Report[i].Direct_Address_Type = rp0->Direct_Advertising_Report[i].Direct_Address_Type;
 800567c:	f802 4c01 	strb.w	r4, [r2, #-1]
    Direct_Advertising_Report[i].RSSI = rp0->Direct_Advertising_Report[i].RSSI;
 8005680:	7191      	strb	r1, [r2, #6]
  for (i = 0; i < rp0->Num_Reports; i++) {
 8005682:	f102 0210 	add.w	r2, r2, #16
 8005686:	d1de      	bne.n	8005646 <hci_le_direct_advertising_report_event_process+0x16>
    size += 1;
  }
  hci_le_direct_advertising_report_event(rp0->Num_Reports,
 8005688:	4669      	mov	r1, sp
 800568a:	f000 f821 	bl	80056d0 <hci_le_direct_advertising_report_event>
                                         Direct_Advertising_Report);

  return status;
}
 800568e:	2000      	movs	r0, #0
 8005690:	b021      	add	sp, #132	; 0x84
 8005692:	e8bd 83f0 	ldmia.w	sp!, {r4, r5, r6, r7, r8, r9, pc}
 8005696:	bf00      	nop

08005698 <hci_encryption_change_event>:
 8005698:	4770      	bx	lr
 800569a:	bf00      	nop

0800569c <hci_read_remote_version_information_complete_event>:
{
  /* NOTE : This function Should not be modified, when needed,
            the callback could be implemented in the user file
   */
  BLUENRG_PRINTF("hci_read_remote_version_information_complete_event\r\n");
}
 800569c:	4770      	bx	lr
 800569e:	bf00      	nop

080056a0 <hci_hardware_error_event>:
{
  /* NOTE : This function Should not be modified, when needed,
            the callback could be implemented in the user file
   */
  BLUENRG_PRINTF("hci_hardware_error_event\r\n");
}
 80056a0:	4770      	bx	lr
 80056a2:	bf00      	nop

080056a4 <hci_number_of_completed_packets_event>:
{
  /* NOTE : This function Should not be modified, when needed,
            the callback could be implemented in the user file
   */
  BLUENRG_PRINTF("hci_number_of_completed_packets_event\r\n");
}
 80056a4:	4770      	bx	lr
 80056a6:	bf00      	nop

080056a8 <hci_data_buffer_overflow_event>:
 80056a8:	4770      	bx	lr
 80056aa:	bf00      	nop

080056ac <hci_encryption_key_refresh_complete_event>:
{
  /* NOTE : This function Should not be modified, when needed,
            the callback could be implemented in the user file
   */
  BLUENRG_PRINTF("hci_encryption_key_refresh_complete_event\r\n");
}
 80056ac:	4770      	bx	lr
 80056ae:	bf00      	nop

080056b0 <hci_le_advertising_report_event>:
 80056b0:	4770      	bx	lr
 80056b2:	bf00      	nop

080056b4 <hci_le_connection_update_complete_event>:
{
  /* NOTE : This function Should not be modified, when needed,
            the callback could be implemented in the user file
   */
  BLUENRG_PRINTF("hci_le_connection_update_complete_event\r\n");
}
 80056b4:	4770      	bx	lr
 80056b6:	bf00      	nop

080056b8 <hci_le_read_remote_used_features_complete_event>:
{
  /* NOTE : This function Should not be modified, when needed,
            the callback could be implemented in the user file
   */
  BLUENRG_PRINTF("hci_le_read_remote_used_features_complete_event\r\n");
}
 80056b8:	4770      	bx	lr
 80056ba:	bf00      	nop

080056bc <hci_le_long_term_key_request_event>:
{
  /* NOTE : This function Should not be modified, when needed,
            the callback could be implemented in the user file
   */
  BLUENRG_PRINTF("hci_le_long_term_key_request_event\r\n");
}
 80056bc:	4770      	bx	lr
 80056be:	bf00      	nop

080056c0 <hci_le_data_length_change_event>:
{
  /* NOTE : This function Should not be modified, when needed,
            the callback could be implemented in the user file
   */
  BLUENRG_PRINTF("hci_le_data_length_change_event\r\n");
}
 80056c0:	4770      	bx	lr
 80056c2:	bf00      	nop

080056c4 <hci_le_read_local_p256_public_key_complete_event>:
 80056c4:	4770      	bx	lr
 80056c6:	bf00      	nop

080056c8 <hci_le_generate_dhkey_complete_event>:
 80056c8:	4770      	bx	lr
 80056ca:	bf00      	nop

080056cc <hci_le_enhanced_connection_complete_event>:
{
  /* NOTE : This function Should not be modified, when needed,
            the callback could be implemented in the user file
   */
  BLUENRG_PRINTF("hci_le_enhanced_connection_complete_event\r\n");
}
 80056cc:	4770      	bx	lr
 80056ce:	bf00      	nop

080056d0 <hci_le_direct_advertising_report_event>:
 80056d0:	4770      	bx	lr
 80056d2:	bf00      	nop

080056d4 <aci_gap_limited_discoverable_event>:
{
  /* NOTE : This function Should not be modified, when needed,
            the callback could be implemented in the user file
   */
  BLUENRG_PRINTF("aci_gap_limited_discoverable_event\r\n");
}
 80056d4:	4770      	bx	lr
 80056d6:	bf00      	nop

080056d8 <aci_gap_pairing_complete_event>:
{
  /* NOTE : This function Should not be modified, when needed,
            the callback could be implemented in the user file
   */
  BLUENRG_PRINTF("aci_gap_pairing_complete_event\r\n");
}
 80056d8:	4770      	bx	lr
 80056da:	bf00      	nop

080056dc <aci_gap_pass_key_req_event>:
{
  /* NOTE : This function Should not be modified, when needed,
            the callback could be implemented in the user file
   */
  BLUENRG_PRINTF("aci_gap_pass_key_req_event\r\n");
}
 80056dc:	4770      	bx	lr
 80056de:	bf00      	nop

080056e0 <aci_gap_authorization_req_event>:
 80056e0:	4770      	bx	lr
 80056e2:	bf00      	nop

080056e4 <aci_gap_slave_security_initiated_event>:
 80056e4:	4770      	bx	lr
 80056e6:	bf00      	nop

080056e8 <aci_gap_bond_lost_event>:
 80056e8:	4770      	bx	lr
 80056ea:	bf00      	nop

080056ec <aci_gap_proc_complete_event>:
{
  /* NOTE : This function Should not be modified, when needed,
            the callback could be implemented in the user file
   */
  BLUENRG_PRINTF("aci_gap_proc_complete_event\r\n");
}
 80056ec:	4770      	bx	lr
 80056ee:	bf00      	nop

080056f0 <aci_gap_addr_not_resolved_event>:
 80056f0:	4770      	bx	lr
 80056f2:	bf00      	nop

080056f4 <aci_gap_numeric_comparison_value_event>:
{
  /* NOTE : This function Should not be modified, when needed,
            the callback could be implemented in the user file
   */
  BLUENRG_PRINTF("aci_gap_numeric_comparison_value_event\r\n");
}
 80056f4:	4770      	bx	lr
 80056f6:	bf00      	nop

080056f8 <aci_gap_keypress_notification_event>:
{
  /* NOTE : This function Should not be modified, when needed,
            the callback could be implemented in the user file
   */
  BLUENRG_PRINTF("aci_gap_keypress_notification_event\r\n");
}
 80056f8:	4770      	bx	lr
 80056fa:	bf00      	nop

080056fc <aci_gatt_proc_timeout_event>:
 80056fc:	4770      	bx	lr
 80056fe:	bf00      	nop

08005700 <aci_att_exchange_mtu_resp_event>:
{
  /* NOTE : This function Should not be modified, when needed,
            the callback could be implemented in the user file
   */
  BLUENRG_PRINTF("aci_att_exchange_mtu_resp_event\r\n");
}
 8005700:	4770      	bx	lr
 8005702:	bf00      	nop

08005704 <aci_att_find_info_resp_event>:
{
  /* NOTE : This function Should not be modified, when needed,
            the callback could be implemented in the user file
   */
  BLUENRG_PRINTF("aci_att_find_info_resp_event\r\n");
}
 8005704:	4770      	bx	lr
 8005706:	bf00      	nop

08005708 <aci_att_find_by_type_value_resp_event>:
{
  /* NOTE : This function Should not be modified, when needed,
            the callback could be implemented in the user file
   */
  BLUENRG_PRINTF("aci_att_find_by_type_value_resp_event\r\n");
}
 8005708:	4770      	bx	lr
 800570a:	bf00      	nop

0800570c <aci_att_read_by_type_resp_event>:
 800570c:	4770      	bx	lr
 800570e:	bf00      	nop

08005710 <aci_att_read_resp_event>:
 8005710:	4770      	bx	lr
 8005712:	bf00      	nop

08005714 <aci_att_read_blob_resp_event>:
 8005714:	4770      	bx	lr
 8005716:	bf00      	nop

08005718 <aci_att_read_multiple_resp_event>:
 8005718:	4770      	bx	lr
 800571a:	bf00      	nop

0800571c <aci_att_read_by_group_type_resp_event>:
 800571c:	4770      	bx	lr
 800571e:	bf00      	nop

08005720 <aci_att_prepare_write_resp_event>:
{
  /* NOTE : This function Should not be modified, when needed,
            the callback could be implemented in the user file
   */
  BLUENRG_PRINTF("aci_att_prepare_write_resp_event\r\n");
}
 8005720:	4770      	bx	lr
 8005722:	bf00      	nop

08005724 <aci_att_exec_write_resp_event>:
 8005724:	4770      	bx	lr
 8005726:	bf00      	nop

08005728 <aci_gatt_indication_event>:
{
  /* NOTE : This function Should not be modified, when needed,
            the callback could be implemented in the user file
   */
  BLUENRG_PRINTF("aci_gatt_indication_event\r\n");
}
 8005728:	4770      	bx	lr
 800572a:	bf00      	nop

0800572c <aci_gatt_proc_complete_event>:
 800572c:	4770      	bx	lr
 800572e:	bf00      	nop

08005730 <aci_gatt_error_resp_event>:
{
  /* NOTE : This function Should not be modified, when needed,
            the callback could be implemented in the user file
   */
  BLUENRG_PRINTF("aci_gatt_error_resp_event\r\n");
}
 8005730:	4770      	bx	lr
 8005732:	bf00      	nop

08005734 <aci_gatt_disc_read_char_by_uuid_resp_event>:
 8005734:	4770      	bx	lr
 8005736:	bf00      	nop

08005738 <aci_gatt_write_permit_req_event>:
 8005738:	4770      	bx	lr
 800573a:	bf00      	nop

0800573c <aci_gatt_read_permit_req_event>:
{
  /* NOTE : This function Should not be modified, when needed,
            the callback could be implemented in the user file
   */
  BLUENRG_PRINTF("aci_gatt_read_permit_req_event\r\n");
}
 800573c:	4770      	bx	lr
 800573e:	bf00      	nop

08005740 <aci_gatt_read_multi_permit_req_event>:
 8005740:	4770      	bx	lr
 8005742:	bf00      	nop

08005744 <aci_gatt_tx_pool_available_event>:
 8005744:	4770      	bx	lr
 8005746:	bf00      	nop

08005748 <aci_gatt_server_confirmation_event>:
 8005748:	4770      	bx	lr
 800574a:	bf00      	nop

0800574c <aci_gatt_prepare_write_permit_req_event>:
 800574c:	4770      	bx	lr
 800574e:	bf00      	nop

08005750 <aci_l2cap_connection_update_resp_event>:
 8005750:	4770      	bx	lr
 8005752:	bf00      	nop

08005754 <aci_l2cap_proc_timeout_event>:
 8005754:	4770      	bx	lr
 8005756:	bf00      	nop

08005758 <aci_l2cap_connection_update_req_event>:
{
  /* NOTE : This function Should not be modified, when needed,
            the callback could be implemented in the user file
   */
  BLUENRG_PRINTF("aci_l2cap_connection_update_req_event\r\n");
}
 8005758:	4770      	bx	lr
 800575a:	bf00      	nop

0800575c <aci_l2cap_command_reject_event>:
{
  /* NOTE : This function Should not be modified, when needed,
            the callback could be implemented in the user file
   */
  BLUENRG_PRINTF("aci_l2cap_command_reject_event\r\n");
}
 800575c:	4770      	bx	lr
 800575e:	bf00      	nop

08005760 <aci_blue_initialized_event>:
 8005760:	4770      	bx	lr
 8005762:	bf00      	nop

08005764 <aci_blue_events_lost_event>:
{
  /* NOTE : This function Should not be modified, when needed,
            the callback could be implemented in the user file
   */
  BLUENRG_PRINTF("aci_blue_events_lost_event\r\n");
}
 8005764:	4770      	bx	lr
 8005766:	bf00      	nop

08005768 <aci_blue_crash_info_event>:
{
  /* NOTE : This function Should not be modified, when needed,
            the callback could be implemented in the user file
   */
  BLUENRG_PRINTF("aci_blue_crash_info_event\r\n");
}
 8005768:	4770      	bx	lr
 800576a:	bf00      	nop

0800576c <aci_hal_end_of_radio_activity_event>:
{
  /* NOTE : This function Should not be modified, when needed,
            the callback could be implemented in the user file
   */
  BLUENRG_PRINTF("aci_hal_end_of_radio_activity_event\r\n");
}
 800576c:	4770      	bx	lr
 800576e:	bf00      	nop

08005770 <aci_hal_scan_req_report_event>:
{
  /* NOTE : This function Should not be modified, when needed,
            the callback could be implemented in the user file
   */
  BLUENRG_PRINTF("aci_hal_scan_req_report_event\r\n");
}
 8005770:	4770      	bx	lr
 8005772:	bf00      	nop

08005774 <aci_hal_fw_error_event>:
{
  /* NOTE : This function Should not be modified, when needed,
            the callback could be implemented in the user file
   */
  BLUENRG_PRINTF("aci_hal_fw_error_event\r\n");
}
 8005774:	4770      	bx	lr
 8005776:	bf00      	nop

08005778 <hci_reset>:
    return status;
  }
  return BLE_STATUS_SUCCESS;
}
tBleStatus hci_reset(void)
{
 8005778:	b510      	push	{r4, lr}
 800577a:	b088      	sub	sp, #32
  struct hci_request rq;
  tBleStatus status = 0;
 800577c:	2100      	movs	r1, #0
  BLUENRG_memset(&rq, 0, sizeof(rq));
  rq.ogf = 0x03;
  rq.ocf = 0x003;
  rq.rparam = &status;
 800577e:	f10d 0207 	add.w	r2, sp, #7
  rq.rlen = 1;
 8005782:	2301      	movs	r3, #1
  rq.ogf = 0x03;
 8005784:	f04f 1403 	mov.w	r4, #196611	; 0x30003
  if (hci_send_req(&rq, FALSE) < 0)
 8005788:	a802      	add	r0, sp, #8
  BLUENRG_memset(&rq, 0, sizeof(rq));
 800578a:	e9cd 1103 	strd	r1, r1, [sp, #12]
  rq.rlen = 1;
 800578e:	e9cd 2306 	strd	r2, r3, [sp, #24]
  tBleStatus status = 0;
 8005792:	f88d 1007 	strb.w	r1, [sp, #7]
  BLUENRG_memset(&rq, 0, sizeof(rq));
 8005796:	9105      	str	r1, [sp, #20]
  rq.ogf = 0x03;
 8005798:	9402      	str	r4, [sp, #8]
  if (hci_send_req(&rq, FALSE) < 0)
 800579a:	f000 faff 	bl	8005d9c <hci_send_req>
 800579e:	2800      	cmp	r0, #0
    return BLE_STATUS_TIMEOUT;
  if (status) {
 80057a0:	bfac      	ite	ge
 80057a2:	f89d 0007 	ldrbge.w	r0, [sp, #7]
    return BLE_STATUS_TIMEOUT;
 80057a6:	20ff      	movlt	r0, #255	; 0xff
    return status;
  }
  return BLE_STATUS_SUCCESS;
}
 80057a8:	b008      	add	sp, #32
 80057aa:	bd10      	pop	{r4, pc}

080057ac <hci_le_set_scan_response_data>:
  }
  return BLE_STATUS_SUCCESS;
}
tBleStatus hci_le_set_scan_response_data(uint8_t Scan_Response_Data_Length,
                                         uint8_t Scan_Response_Data[31])
{
 80057ac:	b510      	push	{r4, lr}
 80057ae:	b0c8      	sub	sp, #288	; 0x120
  struct hci_request rq;
  uint8_t cmd_buffer[258];
  hci_le_set_scan_response_data_cp0 *cp0 = (hci_le_set_scan_response_data_cp0*)(cmd_buffer);
  tBleStatus status = 0;
 80057b0:	f10d 0403 	add.w	r4, sp, #3
 80057b4:	2200      	movs	r2, #0
  uint8_t index_input = 0;
  cp0->Scan_Response_Data_Length = htob(Scan_Response_Data_Length, 1);
 80057b6:	ab07      	add	r3, sp, #28
  tBleStatus status = 0;
 80057b8:	7022      	strb	r2, [r4, #0]
  cp0->Scan_Response_Data_Length = htob(Scan_Response_Data_Length, 1);
 80057ba:	7018      	strb	r0, [r3, #0]
  index_input += 1;
  /* FIX: check on Scan_Response_Data introduced to fix issue in projects for Cortex-M33 */
  if (Scan_Response_Data != NULL) {
 80057bc:	b1d1      	cbz	r1, 80057f4 <hci_le_set_scan_response_data+0x48>
    BLUENRG_memcpy((void *) &cp0->Scan_Response_Data, (const void *) Scan_Response_Data, 31);
 80057be:	680a      	ldr	r2, [r1, #0]
 80057c0:	6848      	ldr	r0, [r1, #4]
 80057c2:	f8cd 201d 	str.w	r2, [sp, #29]
 80057c6:	f8cd 0021 	str.w	r0, [sp, #33]	; 0x21
 80057ca:	688a      	ldr	r2, [r1, #8]
 80057cc:	68c8      	ldr	r0, [r1, #12]
 80057ce:	f8cd 2025 	str.w	r2, [sp, #37]	; 0x25
 80057d2:	f8cd 0029 	str.w	r0, [sp, #41]	; 0x29
 80057d6:	690a      	ldr	r2, [r1, #16]
 80057d8:	6948      	ldr	r0, [r1, #20]
 80057da:	f8cd 202d 	str.w	r2, [sp, #45]	; 0x2d
 80057de:	f8cd 0031 	str.w	r0, [sp, #49]	; 0x31
 80057e2:	698a      	ldr	r2, [r1, #24]
 80057e4:	8b88      	ldrh	r0, [r1, #28]
 80057e6:	7f89      	ldrb	r1, [r1, #30]
 80057e8:	f8cd 2035 	str.w	r2, [sp, #53]	; 0x35
 80057ec:	f8ad 0039 	strh.w	r0, [sp, #57]	; 0x39
 80057f0:	f88d 103b 	strb.w	r1, [sp, #59]	; 0x3b
  }
  index_input += 31;
  BLUENRG_memset(&rq, 0, sizeof(rq));
  rq.ogf = 0x08;
 80057f4:	4809      	ldr	r0, [pc, #36]	; (800581c <hci_le_set_scan_response_data+0x70>)
  rq.ocf = 0x009;
  rq.cparam = cmd_buffer;
 80057f6:	9303      	str	r3, [sp, #12]
  BLUENRG_memset(&rq, 0, sizeof(rq));
 80057f8:	2100      	movs	r1, #0
  rq.clen = index_input;
 80057fa:	2220      	movs	r2, #32
  rq.ogf = 0x08;
 80057fc:	9001      	str	r0, [sp, #4]
  rq.rparam = &status;
  rq.rlen = 1;
 80057fe:	2301      	movs	r3, #1
  if (hci_send_req(&rq, FALSE) < 0)
 8005800:	a801      	add	r0, sp, #4
  rq.rparam = &status;
 8005802:	9405      	str	r4, [sp, #20]
  rq.clen = index_input;
 8005804:	9204      	str	r2, [sp, #16]
  rq.rlen = 1;
 8005806:	9306      	str	r3, [sp, #24]
  BLUENRG_memset(&rq, 0, sizeof(rq));
 8005808:	9102      	str	r1, [sp, #8]
  if (hci_send_req(&rq, FALSE) < 0)
 800580a:	f000 fac7 	bl	8005d9c <hci_send_req>
 800580e:	2800      	cmp	r0, #0
    return BLE_STATUS_TIMEOUT;
  if (status) {
 8005810:	bfac      	ite	ge
 8005812:	7820      	ldrbge	r0, [r4, #0]
    return BLE_STATUS_TIMEOUT;
 8005814:	20ff      	movlt	r0, #255	; 0xff
    return status;
  }
  return BLE_STATUS_SUCCESS;
}
 8005816:	b048      	add	sp, #288	; 0x120
 8005818:	bd10      	pop	{r4, pc}
 800581a:	bf00      	nop
 800581c:	00090008 	.word	0x00090008

08005820 <hci_le_rand>:
  }
  BLUENRG_memcpy((void *) Encrypted_Data, (const void *) resp.Encrypted_Data, 16);
  return BLE_STATUS_SUCCESS;
}
tBleStatus hci_le_rand(uint8_t Random_Number[8])
{
 8005820:	b510      	push	{r4, lr}
 8005822:	b08a      	sub	sp, #40	; 0x28
  struct hci_request rq;
  hci_le_rand_rp0 resp;
  BLUENRG_memset(&resp, 0, sizeof(resp));
 8005824:	ab01      	add	r3, sp, #4
 8005826:	2100      	movs	r1, #0
  BLUENRG_memset(&rq, 0, sizeof(rq));
  rq.ogf = 0x08;
 8005828:	4a0f      	ldr	r2, [pc, #60]	; (8005868 <hci_le_rand+0x48>)
  rq.ocf = 0x018;
  rq.rparam = &resp;
 800582a:	9308      	str	r3, [sp, #32]
{
 800582c:	4604      	mov	r4, r0
  rq.rlen = sizeof(resp);
 800582e:	2309      	movs	r3, #9
  if (hci_send_req(&rq, FALSE) < 0)
 8005830:	a804      	add	r0, sp, #16
  BLUENRG_memset(&resp, 0, sizeof(resp));
 8005832:	e9cd 1101 	strd	r1, r1, [sp, #4]
  BLUENRG_memset(&rq, 0, sizeof(rq));
 8005836:	e9cd 1105 	strd	r1, r1, [sp, #20]
  BLUENRG_memset(&resp, 0, sizeof(resp));
 800583a:	f88d 100c 	strb.w	r1, [sp, #12]
  BLUENRG_memset(&rq, 0, sizeof(rq));
 800583e:	9107      	str	r1, [sp, #28]
  rq.ogf = 0x08;
 8005840:	9204      	str	r2, [sp, #16]
  rq.rlen = sizeof(resp);
 8005842:	9309      	str	r3, [sp, #36]	; 0x24
  if (hci_send_req(&rq, FALSE) < 0)
 8005844:	f000 faaa 	bl	8005d9c <hci_send_req>
 8005848:	2800      	cmp	r0, #0
 800584a:	db0a      	blt.n	8005862 <hci_le_rand+0x42>
    return BLE_STATUS_TIMEOUT;
  if (resp.Status) {
 800584c:	f89d 0004 	ldrb.w	r0, [sp, #4]
 8005850:	b928      	cbnz	r0, 800585e <hci_le_rand+0x3e>
    return resp.Status;
  }
  BLUENRG_memcpy((void *) Random_Number, (const void *) resp.Random_Number, 8);
 8005852:	f8dd 2005 	ldr.w	r2, [sp, #5]
 8005856:	f8dd 3009 	ldr.w	r3, [sp, #9]
 800585a:	6022      	str	r2, [r4, #0]
 800585c:	6063      	str	r3, [r4, #4]
  return BLE_STATUS_SUCCESS;
}
 800585e:	b00a      	add	sp, #40	; 0x28
 8005860:	bd10      	pop	{r4, pc}
    return BLE_STATUS_TIMEOUT;
 8005862:	20ff      	movs	r0, #255	; 0xff
}
 8005864:	b00a      	add	sp, #40	; 0x28
 8005866:	bd10      	pop	{r4, pc}
 8005868:	00180008 	.word	0x00180008

0800586c <aci_gap_set_discoverable>:
                                    uint8_t Local_Name[],
                                    uint8_t Service_Uuid_length,
                                    uint8_t Service_Uuid_List[],
                                    uint16_t Slave_Conn_Interval_Min,
                                    uint16_t Slave_Conn_Interval_Max)
{
 800586c:	e92d 4ff0 	stmdb	sp!, {r4, r5, r6, r7, r8, r9, sl, fp, lr}
 8005870:	b0cb      	sub	sp, #300	; 0x12c
 8005872:	4696      	mov	lr, r2
 8005874:	f89d 5154 	ldrb.w	r5, [sp, #340]	; 0x154
 8005878:	f89d 615c 	ldrb.w	r6, [sp, #348]	; 0x15c
 800587c:	f8bd 4168 	ldrh.w	r4, [sp, #360]	; 0x168
 8005880:	f89d c150 	ldrb.w	ip, [sp, #336]	; 0x150
 8005884:	9401      	str	r4, [sp, #4]
  struct hci_request rq;
  uint8_t cmd_buffer[258];
  aci_gap_set_discoverable_cp0 *cp0 = (aci_gap_set_discoverable_cp0*)(cmd_buffer);
  aci_gap_set_discoverable_cp1 *cp1 = (aci_gap_set_discoverable_cp1*)(cmd_buffer + 1 + 2 + 2 + 1 + 1 + 1 + Local_Name_Length * (sizeof(uint8_t)));
  aci_gap_set_discoverable_cp2 *cp2 = (aci_gap_set_discoverable_cp2*)(cmd_buffer + 1 + 2 + 2 + 1 + 1 + 1 + Local_Name_Length * (sizeof(uint8_t)) + 1 + Service_Uuid_length * (sizeof(uint8_t)));
  tBleStatus status = 0;
 8005886:	f04f 0800 	mov.w	r8, #0
  aci_gap_set_discoverable_cp1 *cp1 = (aci_gap_set_discoverable_cp1*)(cmd_buffer + 1 + 2 + 2 + 1 + 1 + 1 + Local_Name_Length * (sizeof(uint8_t)));
 800588a:	ac09      	add	r4, sp, #36	; 0x24
 800588c:	f105 0a08 	add.w	sl, r5, #8
  uint8_t index_input = 0;
  cp0->Advertising_Type = htob(Advertising_Type, 1);
 8005890:	f88d 0024 	strb.w	r0, [sp, #36]	; 0x24
  index_input += 1;
  cp0->Advertising_Interval_Min = htob(Advertising_Interval_Min, 2);
 8005894:	f8ad 1025 	strh.w	r1, [sp, #37]	; 0x25
  index_input += 1;
  cp0->Local_Name_Length = htob(Local_Name_Length, 1);
  index_input += 1;
  /* var_len_data input */
  {
    BLUENRG_memcpy((void *) &cp0->Local_Name, (const void *) Local_Name, Local_Name_Length*sizeof(uint8_t));
 8005898:	462a      	mov	r2, r5
 800589a:	9956      	ldr	r1, [sp, #344]	; 0x158
  cp0->Advertising_Interval_Max = htob(Advertising_Interval_Max, 2);
 800589c:	f8ad e027 	strh.w	lr, [sp, #39]	; 0x27
    BLUENRG_memcpy((void *) &cp0->Local_Name, (const void *) Local_Name, Local_Name_Length*sizeof(uint8_t));
 80058a0:	a80b      	add	r0, sp, #44	; 0x2c
  cp0->Own_Address_Type = htob(Own_Address_Type, 1);
 80058a2:	f88d 3029 	strb.w	r3, [sp, #41]	; 0x29
  cp0->Advertising_Filter_Policy = htob(Advertising_Filter_Policy, 1);
 80058a6:	f88d c02a 	strb.w	ip, [sp, #42]	; 0x2a
{
 80058aa:	f8bd b164 	ldrh.w	fp, [sp, #356]	; 0x164
  cp0->Local_Name_Length = htob(Local_Name_Length, 1);
 80058ae:	f88d 502b 	strb.w	r5, [sp, #43]	; 0x2b
  aci_gap_set_discoverable_cp2 *cp2 = (aci_gap_set_discoverable_cp2*)(cmd_buffer + 1 + 2 + 2 + 1 + 1 + 1 + Local_Name_Length * (sizeof(uint8_t)) + 1 + Service_Uuid_length * (sizeof(uint8_t)));
 80058b2:	f106 0709 	add.w	r7, r6, #9
  tBleStatus status = 0;
 80058b6:	f88d 800b 	strb.w	r8, [sp, #11]
    BLUENRG_memcpy((void *) &cp0->Local_Name, (const void *) Local_Name, Local_Name_Length*sizeof(uint8_t));
 80058ba:	f002 fe05 	bl	80084c8 <memcpy>
  aci_gap_set_discoverable_cp1 *cp1 = (aci_gap_set_discoverable_cp1*)(cmd_buffer + 1 + 2 + 2 + 1 + 1 + 1 + Local_Name_Length * (sizeof(uint8_t)));
 80058be:	eb04 000a 	add.w	r0, r4, sl
  aci_gap_set_discoverable_cp2 *cp2 = (aci_gap_set_discoverable_cp2*)(cmd_buffer + 1 + 2 + 2 + 1 + 1 + 1 + Local_Name_Length * (sizeof(uint8_t)) + 1 + Service_Uuid_length * (sizeof(uint8_t)));
 80058c2:	442f      	add	r7, r5
    index_input += Local_Name_Length*sizeof(uint8_t);
    {
      cp1->Service_Uuid_length = htob(Service_Uuid_length, 1);
    }
    index_input += 1;
    BLUENRG_memcpy((void *) &cp1->Service_Uuid_List, (const void *) Service_Uuid_List, Service_Uuid_length*sizeof(uint8_t));
 80058c4:	9958      	ldr	r1, [sp, #352]	; 0x160
      cp1->Service_Uuid_length = htob(Service_Uuid_length, 1);
 80058c6:	f804 600a 	strb.w	r6, [r4, sl]
    BLUENRG_memcpy((void *) &cp1->Service_Uuid_List, (const void *) Service_Uuid_List, Service_Uuid_length*sizeof(uint8_t));
 80058ca:	4632      	mov	r2, r6
 80058cc:	3001      	adds	r0, #1
 80058ce:	f002 fdfb 	bl	80084c8 <memcpy>
    }
    index_input += 2;
    {
      cp2->Slave_Conn_Interval_Max = htob(Slave_Conn_Interval_Max, 2);
    }
    index_input += 2;
 80058d2:	360d      	adds	r6, #13
  aci_gap_set_discoverable_cp2 *cp2 = (aci_gap_set_discoverable_cp2*)(cmd_buffer + 1 + 2 + 2 + 1 + 1 + 1 + Local_Name_Length * (sizeof(uint8_t)) + 1 + Service_Uuid_length * (sizeof(uint8_t)));
 80058d4:	19e2      	adds	r2, r4, r7
      cp2->Slave_Conn_Interval_Min = htob(Slave_Conn_Interval_Min, 2);
 80058d6:	f824 b007 	strh.w	fp, [r4, r7]
    index_input += 2;
 80058da:	4435      	add	r5, r6
      cp2->Slave_Conn_Interval_Max = htob(Slave_Conn_Interval_Max, 2);
 80058dc:	9f01      	ldr	r7, [sp, #4]
  }
  BLUENRG_memset(&rq, 0, sizeof(rq));
  rq.ogf = 0x3f;
 80058de:	4e0c      	ldr	r6, [pc, #48]	; (8005910 <aci_gap_set_discoverable+0xa4>)
      cp2->Slave_Conn_Interval_Max = htob(Slave_Conn_Interval_Max, 2);
 80058e0:	8057      	strh	r7, [r2, #2]
  tBleStatus status = 0;
 80058e2:	f10d 090b 	add.w	r9, sp, #11
  rq.ocf = 0x083;
  rq.cparam = cmd_buffer;
  rq.clen = index_input;
  rq.rparam = &status;
  rq.rlen = 1;
 80058e6:	2301      	movs	r3, #1
  rq.clen = index_input;
 80058e8:	b2ed      	uxtb	r5, r5
  if (hci_send_req(&rq, FALSE) < 0)
 80058ea:	4641      	mov	r1, r8
 80058ec:	a803      	add	r0, sp, #12
  rq.cparam = cmd_buffer;
 80058ee:	e9cd 4505 	strd	r4, r5, [sp, #20]
  rq.ogf = 0x3f;
 80058f2:	e9cd 6803 	strd	r6, r8, [sp, #12]
  rq.rparam = &status;
 80058f6:	f8cd 901c 	str.w	r9, [sp, #28]
  rq.rlen = 1;
 80058fa:	9308      	str	r3, [sp, #32]
  if (hci_send_req(&rq, FALSE) < 0)
 80058fc:	f000 fa4e 	bl	8005d9c <hci_send_req>
 8005900:	4540      	cmp	r0, r8
    return BLE_STATUS_TIMEOUT;
  if (status) {
 8005902:	bfac      	ite	ge
 8005904:	f899 0000 	ldrbge.w	r0, [r9]
    return BLE_STATUS_TIMEOUT;
 8005908:	20ff      	movlt	r0, #255	; 0xff
    return status;
  }
  return BLE_STATUS_SUCCESS;
}
 800590a:	b04b      	add	sp, #300	; 0x12c
 800590c:	e8bd 8ff0 	ldmia.w	sp!, {r4, r5, r6, r7, r8, r9, sl, fp, pc}
 8005910:	0083003f 	.word	0x0083003f

08005914 <aci_gap_init>:
                        uint8_t privacy_enabled,
                        uint8_t device_name_char_len,
                        uint16_t *Service_Handle,
                        uint16_t *Dev_Name_Char_Handle,
                        uint16_t *Appearance_Char_Handle)
{
 8005914:	b570      	push	{r4, r5, r6, lr}
 8005916:	b0ca      	sub	sp, #296	; 0x128
 8005918:	461e      	mov	r6, r3
  cp0->privacy_enabled = htob(privacy_enabled, 1);
  index_input += 1;
  cp0->device_name_char_len = htob(device_name_char_len, 1);
  index_input += 1;
  BLUENRG_memset(&rq, 0, sizeof(rq));
  rq.ogf = 0x3f;
 800591a:	4b18      	ldr	r3, [pc, #96]	; (800597c <aci_gap_init+0x68>)
 800591c:	9303      	str	r3, [sp, #12]
  rq.ocf = 0x08a;
  rq.cparam = cmd_buffer;
  rq.clen = index_input;
 800591e:	2303      	movs	r3, #3
  cp0->Role = htob(Role, 1);
 8005920:	f88d 0024 	strb.w	r0, [sp, #36]	; 0x24
  cp0->privacy_enabled = htob(privacy_enabled, 1);
 8005924:	f88d 1025 	strb.w	r1, [sp, #37]	; 0x25
  rq.clen = index_input;
 8005928:	9306      	str	r3, [sp, #24]
  BLUENRG_memset(&resp, 0, sizeof(resp));
 800592a:	2100      	movs	r1, #0
  rq.rparam = &resp;
  rq.rlen = sizeof(resp);
 800592c:	2307      	movs	r3, #7
  cp0->Role = htob(Role, 1);
 800592e:	ad09      	add	r5, sp, #36	; 0x24
  BLUENRG_memset(&resp, 0, sizeof(resp));
 8005930:	ac01      	add	r4, sp, #4
  if (hci_send_req(&rq, FALSE) < 0)
 8005932:	a803      	add	r0, sp, #12
  BLUENRG_memset(&resp, 0, sizeof(resp));
 8005934:	9101      	str	r1, [sp, #4]
  cp0->device_name_char_len = htob(device_name_char_len, 1);
 8005936:	f88d 2026 	strb.w	r2, [sp, #38]	; 0x26
  rq.cparam = cmd_buffer;
 800593a:	9505      	str	r5, [sp, #20]
  rq.rlen = sizeof(resp);
 800593c:	9308      	str	r3, [sp, #32]
  rq.rparam = &resp;
 800593e:	9407      	str	r4, [sp, #28]
  BLUENRG_memset(&rq, 0, sizeof(rq));
 8005940:	9104      	str	r1, [sp, #16]
  BLUENRG_memset(&resp, 0, sizeof(resp));
 8005942:	f8cd 1007 	str.w	r1, [sp, #7]
  if (hci_send_req(&rq, FALSE) < 0)
 8005946:	f000 fa29 	bl	8005d9c <hci_send_req>
 800594a:	2800      	cmp	r0, #0
 800594c:	db12      	blt.n	8005974 <aci_gap_init+0x60>
    return BLE_STATUS_TIMEOUT;
  if (resp.Status) {
 800594e:	7820      	ldrb	r0, [r4, #0]
 8005950:	b970      	cbnz	r0, 8005970 <aci_gap_init+0x5c>
    return resp.Status;
  }
  *Service_Handle = btoh(resp.Service_Handle, 2);
 8005952:	6821      	ldr	r1, [r4, #0]
  *Dev_Name_Char_Handle = btoh(resp.Dev_Name_Char_Handle, 2);
 8005954:	78e2      	ldrb	r2, [r4, #3]
 8005956:	7925      	ldrb	r5, [r4, #4]
  *Appearance_Char_Handle = btoh(resp.Appearance_Char_Handle, 2);
 8005958:	6863      	ldr	r3, [r4, #4]
  *Service_Handle = btoh(resp.Service_Handle, 2);
 800595a:	f3c1 210f 	ubfx	r1, r1, #8, #16
 800595e:	8031      	strh	r1, [r6, #0]
  *Dev_Name_Char_Handle = btoh(resp.Dev_Name_Char_Handle, 2);
 8005960:	994e      	ldr	r1, [sp, #312]	; 0x138
 8005962:	ea42 2205 	orr.w	r2, r2, r5, lsl #8
 8005966:	800a      	strh	r2, [r1, #0]
  *Appearance_Char_Handle = btoh(resp.Appearance_Char_Handle, 2);
 8005968:	9a4f      	ldr	r2, [sp, #316]	; 0x13c
 800596a:	f3c3 230f 	ubfx	r3, r3, #8, #16
 800596e:	8013      	strh	r3, [r2, #0]
  return BLE_STATUS_SUCCESS;
}
 8005970:	b04a      	add	sp, #296	; 0x128
 8005972:	bd70      	pop	{r4, r5, r6, pc}
    return BLE_STATUS_TIMEOUT;
 8005974:	20ff      	movs	r0, #255	; 0xff
}
 8005976:	b04a      	add	sp, #296	; 0x128
 8005978:	bd70      	pop	{r4, r5, r6, pc}
 800597a:	bf00      	nop
 800597c:	008a003f 	.word	0x008a003f

08005980 <aci_gatt_init>:
  ******************************************************************************
  */
#include "ble_types.h"
#include "bluenrg1_gatt_aci.h"
tBleStatus aci_gatt_init(void)
{
 8005980:	b510      	push	{r4, lr}
 8005982:	b088      	sub	sp, #32
  struct hci_request rq;
  tBleStatus status = 0;
 8005984:	2100      	movs	r1, #0
  BLUENRG_memset(&rq, 0, sizeof(rq));
  rq.ogf = 0x3f;
  rq.ocf = 0x101;
  rq.rparam = &status;
 8005986:	f10d 0207 	add.w	r2, sp, #7
  rq.rlen = 1;
 800598a:	2301      	movs	r3, #1
  rq.ogf = 0x3f;
 800598c:	4c09      	ldr	r4, [pc, #36]	; (80059b4 <aci_gatt_init+0x34>)
  tBleStatus status = 0;
 800598e:	f88d 1007 	strb.w	r1, [sp, #7]
  if (hci_send_req(&rq, FALSE) < 0)
 8005992:	a802      	add	r0, sp, #8
  BLUENRG_memset(&rq, 0, sizeof(rq));
 8005994:	e9cd 1103 	strd	r1, r1, [sp, #12]
  rq.rlen = 1;
 8005998:	e9cd 2306 	strd	r2, r3, [sp, #24]
  BLUENRG_memset(&rq, 0, sizeof(rq));
 800599c:	9105      	str	r1, [sp, #20]
  rq.ogf = 0x3f;
 800599e:	9402      	str	r4, [sp, #8]
  if (hci_send_req(&rq, FALSE) < 0)
 80059a0:	f000 f9fc 	bl	8005d9c <hci_send_req>
 80059a4:	2800      	cmp	r0, #0
    return BLE_STATUS_TIMEOUT;
  if (status) {
 80059a6:	bfac      	ite	ge
 80059a8:	f89d 0007 	ldrbge.w	r0, [sp, #7]
    return BLE_STATUS_TIMEOUT;
 80059ac:	20ff      	movlt	r0, #255	; 0xff
    return status;
  }
  return BLE_STATUS_SUCCESS;
}
 80059ae:	b008      	add	sp, #32
 80059b0:	bd10      	pop	{r4, pc}
 80059b2:	bf00      	nop
 80059b4:	0101003f 	.word	0x0101003f

080059b8 <aci_gatt_add_service>:
tBleStatus aci_gatt_add_service(uint8_t Service_UUID_Type,
                                Service_UUID_t *Service_UUID,
                                uint8_t Service_Type,
                                uint8_t Max_Attribute_Records,
                                uint16_t *Service_Handle)
{
 80059b8:	e92d 43f0 	stmdb	sp!, {r4, r5, r6, r7, r8, r9, lr}
  struct hci_request rq;
  uint8_t cmd_buffer[258];
  aci_gatt_add_service_cp0 *cp0 = (aci_gatt_add_service_cp0*)(cmd_buffer);
  aci_gatt_add_service_cp1 *cp1 = (aci_gatt_add_service_cp1*)(cmd_buffer + 1 + (Service_UUID_Type == 1 ? 2 : (Service_UUID_Type == 2 ? 16 : 0)));
 80059bc:	2801      	cmp	r0, #1
{
 80059be:	b0c9      	sub	sp, #292	; 0x124
 80059c0:	4616      	mov	r6, r2
 80059c2:	461c      	mov	r4, r3
  aci_gatt_add_service_cp1 *cp1 = (aci_gatt_add_service_cp1*)(cmd_buffer + 1 + (Service_UUID_Type == 1 ? 2 : (Service_UUID_Type == 2 ? 16 : 0)));
 80059c4:	d031      	beq.n	8005a2a <aci_gatt_add_service+0x72>
 80059c6:	2802      	cmp	r0, #2
 80059c8:	d003      	beq.n	80059d2 <aci_gatt_add_service+0x1a>
 80059ca:	2047      	movs	r0, #71	; 0x47
  if (resp.Status) {
    return resp.Status;
  }
  *Service_Handle = btoh(resp.Service_Handle, 2);
  return BLE_STATUS_SUCCESS;
}
 80059cc:	b049      	add	sp, #292	; 0x124
 80059ce:	e8bd 83f0 	ldmia.w	sp!, {r4, r5, r6, r7, r8, r9, pc}
  BLUENRG_memset(&resp, 0, sizeof(resp));
 80059d2:	466d      	mov	r5, sp
 80059d4:	2300      	movs	r3, #0
  cp0->Service_UUID_Type = htob(Service_UUID_Type, 1);
 80059d6:	f10d 081c 	add.w	r8, sp, #28
  BLUENRG_memset(&resp, 0, sizeof(resp));
 80059da:	802b      	strh	r3, [r5, #0]
 80059dc:	70ab      	strb	r3, [r5, #2]
      case 2: size = 16; break;
 80059de:	f04f 0913 	mov.w	r9, #19
 80059e2:	2210      	movs	r2, #16
 80059e4:	f10d 072d 	add.w	r7, sp, #45	; 0x2d
  cp0->Service_UUID_Type = htob(Service_UUID_Type, 1);
 80059e8:	f888 0000 	strb.w	r0, [r8]
    BLUENRG_memcpy((void *) &cp0->Service_UUID, (const void *) Service_UUID, size);
 80059ec:	f10d 001d 	add.w	r0, sp, #29
 80059f0:	f002 fd6a 	bl	80084c8 <memcpy>
  rq.ogf = 0x3f;
 80059f4:	4a16      	ldr	r2, [pc, #88]	; (8005a50 <aci_gatt_add_service+0x98>)
      cp1->Service_Type = htob(Service_Type, 1);
 80059f6:	703e      	strb	r6, [r7, #0]
  BLUENRG_memset(&rq, 0, sizeof(rq));
 80059f8:	2100      	movs	r1, #0
  rq.rlen = sizeof(resp);
 80059fa:	2303      	movs	r3, #3
  if (hci_send_req(&rq, FALSE) < 0)
 80059fc:	a801      	add	r0, sp, #4
  rq.clen = index_input;
 80059fe:	e9cd 8903 	strd	r8, r9, [sp, #12]
      cp1->Max_Attribute_Records = htob(Max_Attribute_Records, 1);
 8005a02:	707c      	strb	r4, [r7, #1]
  rq.rparam = &resp;
 8005a04:	9505      	str	r5, [sp, #20]
  rq.ogf = 0x3f;
 8005a06:	9201      	str	r2, [sp, #4]
  rq.rlen = sizeof(resp);
 8005a08:	9306      	str	r3, [sp, #24]
  BLUENRG_memset(&rq, 0, sizeof(rq));
 8005a0a:	9102      	str	r1, [sp, #8]
  if (hci_send_req(&rq, FALSE) < 0)
 8005a0c:	f000 f9c6 	bl	8005d9c <hci_send_req>
 8005a10:	2800      	cmp	r0, #0
 8005a12:	db18      	blt.n	8005a46 <aci_gatt_add_service+0x8e>
  if (resp.Status) {
 8005a14:	7828      	ldrb	r0, [r5, #0]
 8005a16:	2800      	cmp	r0, #0
 8005a18:	d1d8      	bne.n	80059cc <aci_gatt_add_service+0x14>
  *Service_Handle = btoh(resp.Service_Handle, 2);
 8005a1a:	682b      	ldr	r3, [r5, #0]
 8005a1c:	9a50      	ldr	r2, [sp, #320]	; 0x140
 8005a1e:	f3c3 230f 	ubfx	r3, r3, #8, #16
 8005a22:	8013      	strh	r3, [r2, #0]
}
 8005a24:	b049      	add	sp, #292	; 0x124
 8005a26:	e8bd 83f0 	ldmia.w	sp!, {r4, r5, r6, r7, r8, r9, pc}
  BLUENRG_memset(&resp, 0, sizeof(resp));
 8005a2a:	466d      	mov	r5, sp
 8005a2c:	2300      	movs	r3, #0
  cp0->Service_UUID_Type = htob(Service_UUID_Type, 1);
 8005a2e:	f10d 081c 	add.w	r8, sp, #28
  BLUENRG_memset(&resp, 0, sizeof(resp));
 8005a32:	802b      	strh	r3, [r5, #0]
 8005a34:	70ab      	strb	r3, [r5, #2]
  cp0->Service_UUID_Type = htob(Service_UUID_Type, 1);
 8005a36:	f04f 0905 	mov.w	r9, #5
 8005a3a:	2202      	movs	r2, #2
  aci_gatt_add_service_cp1 *cp1 = (aci_gatt_add_service_cp1*)(cmd_buffer + 1 + (Service_UUID_Type == 1 ? 2 : (Service_UUID_Type == 2 ? 16 : 0)));
 8005a3c:	f10d 071f 	add.w	r7, sp, #31
  cp0->Service_UUID_Type = htob(Service_UUID_Type, 1);
 8005a40:	f888 0000 	strb.w	r0, [r8]
    switch (Service_UUID_Type) {
 8005a44:	e7d2      	b.n	80059ec <aci_gatt_add_service+0x34>
    return BLE_STATUS_TIMEOUT;
 8005a46:	20ff      	movs	r0, #255	; 0xff
}
 8005a48:	b049      	add	sp, #292	; 0x124
 8005a4a:	e8bd 83f0 	ldmia.w	sp!, {r4, r5, r6, r7, r8, r9, pc}
 8005a4e:	bf00      	nop
 8005a50:	0102003f 	.word	0x0102003f

08005a54 <aci_gatt_add_char>:
                             uint8_t Security_Permissions,
                             uint8_t GATT_Evt_Mask,
                             uint8_t Enc_Key_Size,
                             uint8_t Is_Variable,
                             uint16_t *Char_Handle)
{
 8005a54:	e92d 4ff0 	stmdb	sp!, {r4, r5, r6, r7, r8, r9, sl, fp, lr}
 8005a58:	b0cb      	sub	sp, #300	; 0x12c
  struct hci_request rq;
  uint8_t cmd_buffer[258];
  aci_gatt_add_char_cp0 *cp0 = (aci_gatt_add_char_cp0*)(cmd_buffer);
  aci_gatt_add_char_cp1 *cp1 = (aci_gatt_add_char_cp1*)(cmd_buffer + 2 + 1 + (Char_UUID_Type == 1 ? 2 : (Char_UUID_Type == 2 ? 16 : 0)));
 8005a5a:	2901      	cmp	r1, #1
{
 8005a5c:	461c      	mov	r4, r3
 8005a5e:	f89d 8150 	ldrb.w	r8, [sp, #336]	; 0x150
 8005a62:	f89d 9154 	ldrb.w	r9, [sp, #340]	; 0x154
 8005a66:	f89d a158 	ldrb.w	sl, [sp, #344]	; 0x158
 8005a6a:	f89d b15c 	ldrb.w	fp, [sp, #348]	; 0x15c
 8005a6e:	f89d 3160 	ldrb.w	r3, [sp, #352]	; 0x160
 8005a72:	4694      	mov	ip, r2
  aci_gatt_add_char_cp1 *cp1 = (aci_gatt_add_char_cp1*)(cmd_buffer + 2 + 1 + (Char_UUID_Type == 1 ? 2 : (Char_UUID_Type == 2 ? 16 : 0)));
 8005a74:	d041      	beq.n	8005afa <aci_gatt_add_char+0xa6>
 8005a76:	2902      	cmp	r1, #2
 8005a78:	d003      	beq.n	8005a82 <aci_gatt_add_char+0x2e>
 8005a7a:	2047      	movs	r0, #71	; 0x47
  if (resp.Status) {
    return resp.Status;
  }
  *Char_Handle = btoh(resp.Char_Handle, 2);
  return BLE_STATUS_SUCCESS;
}
 8005a7c:	b04b      	add	sp, #300	; 0x12c
 8005a7e:	e8bd 8ff0 	ldmia.w	sp!, {r4, r5, r6, r7, r8, r9, sl, fp, pc}
  BLUENRG_memset(&resp, 0, sizeof(resp));
 8005a82:	ad02      	add	r5, sp, #8
 8005a84:	2200      	movs	r2, #0
 8005a86:	802a      	strh	r2, [r5, #0]
 8005a88:	70aa      	strb	r2, [r5, #2]
      case 2: size = 16; break;
 8005a8a:	221a      	movs	r2, #26
  cp0->Service_Handle = htob(Service_Handle, 2);
 8005a8c:	af09      	add	r7, sp, #36	; 0x24
      case 2: size = 16; break;
 8005a8e:	9200      	str	r2, [sp, #0]
 8005a90:	f10d 0637 	add.w	r6, sp, #55	; 0x37
 8005a94:	2210      	movs	r2, #16
  cp0->Service_Handle = htob(Service_Handle, 2);
 8005a96:	8038      	strh	r0, [r7, #0]
  cp0->Char_UUID_Type = htob(Char_UUID_Type, 1);
 8005a98:	70b9      	strb	r1, [r7, #2]
    BLUENRG_memcpy((void *) &cp0->Char_UUID, (const void *) Char_UUID, size);
 8005a9a:	4661      	mov	r1, ip
 8005a9c:	f10d 0027 	add.w	r0, sp, #39	; 0x27
 8005aa0:	9301      	str	r3, [sp, #4]
 8005aa2:	f002 fd11 	bl	80084c8 <memcpy>
      cp1->Char_Properties = htob(Char_Properties, 1);
 8005aa6:	2200      	movs	r2, #0
 8005aa8:	f368 0207 	bfi	r2, r8, #0, #8
      cp1->Is_Variable = htob(Is_Variable, 1);
 8005aac:	9b01      	ldr	r3, [sp, #4]
 8005aae:	71b3      	strb	r3, [r6, #6]
      cp1->Char_Properties = htob(Char_Properties, 1);
 8005ab0:	f369 220f 	bfi	r2, r9, #8, #8
  rq.clen = index_input;
 8005ab4:	9b00      	ldr	r3, [sp, #0]
  rq.ogf = 0x3f;
 8005ab6:	f8df c064 	ldr.w	ip, [pc, #100]	; 8005b1c <aci_gatt_add_char+0xc8>
      cp1->Char_Value_Length = htob(Char_Value_Length, 2);
 8005aba:	8034      	strh	r4, [r6, #0]
      cp1->Char_Properties = htob(Char_Properties, 1);
 8005abc:	f36a 4217 	bfi	r2, sl, #16, #8
  BLUENRG_memset(&rq, 0, sizeof(rq));
 8005ac0:	2100      	movs	r1, #0
      cp1->Char_Properties = htob(Char_Properties, 1);
 8005ac2:	f36b 621f 	bfi	r2, fp, #24, #8
  rq.rlen = sizeof(resp);
 8005ac6:	2403      	movs	r4, #3
  if (hci_send_req(&rq, FALSE) < 0)
 8005ac8:	a803      	add	r0, sp, #12
  rq.rparam = &resp;
 8005aca:	e9cd 3506 	strd	r3, r5, [sp, #24]
      cp1->Char_Properties = htob(Char_Properties, 1);
 8005ace:	f8c6 2002 	str.w	r2, [r6, #2]
  rq.cparam = cmd_buffer;
 8005ad2:	9705      	str	r7, [sp, #20]
  rq.ogf = 0x3f;
 8005ad4:	f8cd c00c 	str.w	ip, [sp, #12]
  rq.rlen = sizeof(resp);
 8005ad8:	9408      	str	r4, [sp, #32]
  BLUENRG_memset(&rq, 0, sizeof(rq));
 8005ada:	9104      	str	r1, [sp, #16]
  if (hci_send_req(&rq, FALSE) < 0)
 8005adc:	f000 f95e 	bl	8005d9c <hci_send_req>
 8005ae0:	2800      	cmp	r0, #0
 8005ae2:	db17      	blt.n	8005b14 <aci_gatt_add_char+0xc0>
  if (resp.Status) {
 8005ae4:	7828      	ldrb	r0, [r5, #0]
 8005ae6:	2800      	cmp	r0, #0
 8005ae8:	d1c8      	bne.n	8005a7c <aci_gatt_add_char+0x28>
  *Char_Handle = btoh(resp.Char_Handle, 2);
 8005aea:	682b      	ldr	r3, [r5, #0]
 8005aec:	9a59      	ldr	r2, [sp, #356]	; 0x164
 8005aee:	f3c3 230f 	ubfx	r3, r3, #8, #16
 8005af2:	8013      	strh	r3, [r2, #0]
}
 8005af4:	b04b      	add	sp, #300	; 0x12c
 8005af6:	e8bd 8ff0 	ldmia.w	sp!, {r4, r5, r6, r7, r8, r9, sl, fp, pc}
  BLUENRG_memset(&resp, 0, sizeof(resp));
 8005afa:	ad02      	add	r5, sp, #8
 8005afc:	2200      	movs	r2, #0
 8005afe:	802a      	strh	r2, [r5, #0]
 8005b00:	70aa      	strb	r2, [r5, #2]
  cp0->Char_UUID_Type = htob(Char_UUID_Type, 1);
 8005b02:	220c      	movs	r2, #12
  cp0->Service_Handle = htob(Service_Handle, 2);
 8005b04:	af09      	add	r7, sp, #36	; 0x24
  cp0->Char_UUID_Type = htob(Char_UUID_Type, 1);
 8005b06:	9200      	str	r2, [sp, #0]
  aci_gatt_add_char_cp1 *cp1 = (aci_gatt_add_char_cp1*)(cmd_buffer + 2 + 1 + (Char_UUID_Type == 1 ? 2 : (Char_UUID_Type == 2 ? 16 : 0)));
 8005b08:	f10d 0629 	add.w	r6, sp, #41	; 0x29
  cp0->Char_UUID_Type = htob(Char_UUID_Type, 1);
 8005b0c:	2202      	movs	r2, #2
  cp0->Service_Handle = htob(Service_Handle, 2);
 8005b0e:	8038      	strh	r0, [r7, #0]
  cp0->Char_UUID_Type = htob(Char_UUID_Type, 1);
 8005b10:	70b9      	strb	r1, [r7, #2]
    switch (Char_UUID_Type) {
 8005b12:	e7c2      	b.n	8005a9a <aci_gatt_add_char+0x46>
    return BLE_STATUS_TIMEOUT;
 8005b14:	20ff      	movs	r0, #255	; 0xff
}
 8005b16:	b04b      	add	sp, #300	; 0x12c
 8005b18:	e8bd 8ff0 	ldmia.w	sp!, {r4, r5, r6, r7, r8, r9, sl, fp, pc}
 8005b1c:	0104003f 	.word	0x0104003f

08005b20 <aci_gatt_add_char_desc>:
                                  uint8_t Access_Permissions,
                                  uint8_t GATT_Evt_Mask,
                                  uint8_t Enc_Key_Size,
                                  uint8_t Is_Variable,
                                  uint16_t *Char_Desc_Handle)
{
 8005b20:	e92d 4ff0 	stmdb	sp!, {r4, r5, r6, r7, r8, r9, sl, fp, lr}
 8005b24:	b0cd      	sub	sp, #308	; 0x134
  struct hci_request rq;
  uint8_t cmd_buffer[258];
  aci_gatt_add_char_desc_cp0 *cp0 = (aci_gatt_add_char_desc_cp0*)(cmd_buffer);
  aci_gatt_add_char_desc_cp1 *cp1 = (aci_gatt_add_char_desc_cp1*)(cmd_buffer + 2 + 2 + 1 + (Char_Desc_Uuid_Type == 1 ? 2 : (Char_Desc_Uuid_Type == 2 ? 16 : 0)));
 8005b26:	2a01      	cmp	r2, #1
{
 8005b28:	f89d 5164 	ldrb.w	r5, [sp, #356]	; 0x164
 8005b2c:	9500      	str	r5, [sp, #0]
 8005b2e:	f89d 5168 	ldrb.w	r5, [sp, #360]	; 0x168
 8005b32:	9501      	str	r5, [sp, #4]
 8005b34:	f89d 516c 	ldrb.w	r5, [sp, #364]	; 0x16c
 8005b38:	f89d 9158 	ldrb.w	r9, [sp, #344]	; 0x158
 8005b3c:	f89d 415c 	ldrb.w	r4, [sp, #348]	; 0x15c
 8005b40:	f89d a170 	ldrb.w	sl, [sp, #368]	; 0x170
 8005b44:	f89d b174 	ldrb.w	fp, [sp, #372]	; 0x174
 8005b48:	9502      	str	r5, [sp, #8]
  aci_gatt_add_char_desc_cp1 *cp1 = (aci_gatt_add_char_desc_cp1*)(cmd_buffer + 2 + 2 + 1 + (Char_Desc_Uuid_Type == 1 ? 2 : (Char_Desc_Uuid_Type == 2 ? 16 : 0)));
 8005b4a:	d056      	beq.n	8005bfa <aci_gatt_add_char_desc+0xda>
 8005b4c:	2a02      	cmp	r2, #2
 8005b4e:	d003      	beq.n	8005b58 <aci_gatt_add_char_desc+0x38>
 8005b50:	2047      	movs	r0, #71	; 0x47
  if (resp.Status) {
    return resp.Status;
  }
  *Char_Desc_Handle = btoh(resp.Char_Desc_Handle, 2);
  return BLE_STATUS_SUCCESS;
}
 8005b52:	b04d      	add	sp, #308	; 0x134
 8005b54:	e8bd 8ff0 	ldmia.w	sp!, {r4, r5, r6, r7, r8, r9, sl, fp, pc}
  BLUENRG_memset(&resp, 0, sizeof(resp));
 8005b58:	af04      	add	r7, sp, #16
  aci_gatt_add_char_desc_cp2 *cp2 = (aci_gatt_add_char_desc_cp2*)(cmd_buffer + 2 + 2 + 1 + (Char_Desc_Uuid_Type == 1 ? 2 : (Char_Desc_Uuid_Type == 2 ? 16 : 0)) + 1 + 1 + Char_Desc_Value_Length * (sizeof(uint8_t)));
 8005b5a:	ae0b      	add	r6, sp, #44	; 0x2c
  BLUENRG_memset(&resp, 0, sizeof(resp));
 8005b5c:	f04f 0c00 	mov.w	ip, #0
  aci_gatt_add_char_desc_cp2 *cp2 = (aci_gatt_add_char_desc_cp2*)(cmd_buffer + 2 + 2 + 1 + (Char_Desc_Uuid_Type == 1 ? 2 : (Char_Desc_Uuid_Type == 2 ? 16 : 0)) + 1 + 1 + Char_Desc_Value_Length * (sizeof(uint8_t)));
 8005b60:	f104 0517 	add.w	r5, r4, #23
  cp0->Service_Handle = htob(Service_Handle, 2);
 8005b64:	8030      	strh	r0, [r6, #0]
      case 2: size = 16; break;
 8005b66:	2010      	movs	r0, #16
  aci_gatt_add_char_desc_cp2 *cp2 = (aci_gatt_add_char_desc_cp2*)(cmd_buffer + 2 + 2 + 1 + (Char_Desc_Uuid_Type == 1 ? 2 : (Char_Desc_Uuid_Type == 2 ? 16 : 0)) + 1 + 1 + Char_Desc_Value_Length * (sizeof(uint8_t)));
 8005b68:	4435      	add	r5, r6
  BLUENRG_memset(&resp, 0, sizeof(resp));
 8005b6a:	f8a7 c000 	strh.w	ip, [r7]
 8005b6e:	f887 c002 	strb.w	ip, [r7, #2]
      case 2: size = 16; break;
 8005b72:	9003      	str	r0, [sp, #12]
 8005b74:	f10d 0841 	add.w	r8, sp, #65	; 0x41
  cp0->Char_Handle = htob(Char_Handle, 2);
 8005b78:	8071      	strh	r1, [r6, #2]
  cp0->Char_Desc_Uuid_Type = htob(Char_Desc_Uuid_Type, 1);
 8005b7a:	7132      	strb	r2, [r6, #4]
    BLUENRG_memcpy((void *) &cp0->Char_Desc_Uuid, (const void *) Char_Desc_Uuid, size);
 8005b7c:	4619      	mov	r1, r3
 8005b7e:	4602      	mov	r2, r0
 8005b80:	f10d 0031 	add.w	r0, sp, #49	; 0x31
 8005b84:	f002 fca0 	bl	80084c8 <memcpy>
    BLUENRG_memcpy((void *) &cp1->Char_Desc_Value, (const void *) Char_Desc_Value, Char_Desc_Value_Length*sizeof(uint8_t));
 8005b88:	4622      	mov	r2, r4
 8005b8a:	9958      	ldr	r1, [sp, #352]	; 0x160
      cp1->Char_Desc_Value_Length = htob(Char_Desc_Value_Length, 1);
 8005b8c:	f888 4001 	strb.w	r4, [r8, #1]
    BLUENRG_memcpy((void *) &cp1->Char_Desc_Value, (const void *) Char_Desc_Value, Char_Desc_Value_Length*sizeof(uint8_t));
 8005b90:	f108 0002 	add.w	r0, r8, #2
      cp1->Char_Desc_Value_Max_Len = htob(Char_Desc_Value_Max_Len, 1);
 8005b94:	f888 9000 	strb.w	r9, [r8]
    BLUENRG_memcpy((void *) &cp1->Char_Desc_Value, (const void *) Char_Desc_Value, Char_Desc_Value_Length*sizeof(uint8_t));
 8005b98:	f002 fc96 	bl	80084c8 <memcpy>
      cp2->Security_Permissions = htob(Security_Permissions, 1);
 8005b9c:	9a00      	ldr	r2, [sp, #0]
  rq.ogf = 0x3f;
 8005b9e:	f8df c088 	ldr.w	ip, [pc, #136]	; 8005c28 <aci_gatt_add_char_desc+0x108>
      cp2->Is_Variable = htob(Is_Variable, 1);
 8005ba2:	f885 b004 	strb.w	fp, [r5, #4]
      cp2->Security_Permissions = htob(Security_Permissions, 1);
 8005ba6:	2300      	movs	r3, #0
 8005ba8:	f362 0307 	bfi	r3, r2, #0, #8
 8005bac:	9a01      	ldr	r2, [sp, #4]
  rq.rparam = &resp;
 8005bae:	9709      	str	r7, [sp, #36]	; 0x24
      cp2->Security_Permissions = htob(Security_Permissions, 1);
 8005bb0:	f362 230f 	bfi	r3, r2, #8, #8
    index_input += 1;
 8005bb4:	9a03      	ldr	r2, [sp, #12]
  rq.ogf = 0x3f;
 8005bb6:	f8cd c014 	str.w	ip, [sp, #20]
    index_input += 1;
 8005bba:	340c      	adds	r4, #12
 8005bbc:	4422      	add	r2, r4
 8005bbe:	4614      	mov	r4, r2
      cp2->Security_Permissions = htob(Security_Permissions, 1);
 8005bc0:	9a02      	ldr	r2, [sp, #8]
 8005bc2:	f362 4317 	bfi	r3, r2, #16, #8
 8005bc6:	f36a 631f 	bfi	r3, sl, #24, #8
  BLUENRG_memset(&rq, 0, sizeof(rq));
 8005bca:	2100      	movs	r1, #0
  rq.rlen = sizeof(resp);
 8005bcc:	2203      	movs	r2, #3
  rq.clen = index_input;
 8005bce:	b2e4      	uxtb	r4, r4
  if (hci_send_req(&rq, FALSE) < 0)
 8005bd0:	a805      	add	r0, sp, #20
      cp2->Security_Permissions = htob(Security_Permissions, 1);
 8005bd2:	602b      	str	r3, [r5, #0]
  rq.cparam = cmd_buffer;
 8005bd4:	e9cd 6407 	strd	r6, r4, [sp, #28]
  rq.rlen = sizeof(resp);
 8005bd8:	920a      	str	r2, [sp, #40]	; 0x28
  BLUENRG_memset(&rq, 0, sizeof(rq));
 8005bda:	9106      	str	r1, [sp, #24]
  if (hci_send_req(&rq, FALSE) < 0)
 8005bdc:	f000 f8de 	bl	8005d9c <hci_send_req>
 8005be0:	2800      	cmp	r0, #0
 8005be2:	db1d      	blt.n	8005c20 <aci_gatt_add_char_desc+0x100>
  if (resp.Status) {
 8005be4:	7838      	ldrb	r0, [r7, #0]
 8005be6:	2800      	cmp	r0, #0
 8005be8:	d1b3      	bne.n	8005b52 <aci_gatt_add_char_desc+0x32>
  *Char_Desc_Handle = btoh(resp.Char_Desc_Handle, 2);
 8005bea:	683b      	ldr	r3, [r7, #0]
 8005bec:	9a5e      	ldr	r2, [sp, #376]	; 0x178
 8005bee:	f3c3 230f 	ubfx	r3, r3, #8, #16
 8005bf2:	8013      	strh	r3, [r2, #0]
}
 8005bf4:	b04d      	add	sp, #308	; 0x134
 8005bf6:	e8bd 8ff0 	ldmia.w	sp!, {r4, r5, r6, r7, r8, r9, sl, fp, pc}
  BLUENRG_memset(&resp, 0, sizeof(resp));
 8005bfa:	af04      	add	r7, sp, #16
  aci_gatt_add_char_desc_cp2 *cp2 = (aci_gatt_add_char_desc_cp2*)(cmd_buffer + 2 + 2 + 1 + (Char_Desc_Uuid_Type == 1 ? 2 : (Char_Desc_Uuid_Type == 2 ? 16 : 0)) + 1 + 1 + Char_Desc_Value_Length * (sizeof(uint8_t)));
 8005bfc:	ae0b      	add	r6, sp, #44	; 0x2c
  BLUENRG_memset(&resp, 0, sizeof(resp));
 8005bfe:	f04f 0c00 	mov.w	ip, #0
  aci_gatt_add_char_desc_cp2 *cp2 = (aci_gatt_add_char_desc_cp2*)(cmd_buffer + 2 + 2 + 1 + (Char_Desc_Uuid_Type == 1 ? 2 : (Char_Desc_Uuid_Type == 2 ? 16 : 0)) + 1 + 1 + Char_Desc_Value_Length * (sizeof(uint8_t)));
 8005c02:	f104 0509 	add.w	r5, r4, #9
  cp0->Service_Handle = htob(Service_Handle, 2);
 8005c06:	8030      	strh	r0, [r6, #0]
  cp0->Char_Desc_Uuid_Type = htob(Char_Desc_Uuid_Type, 1);
 8005c08:	2002      	movs	r0, #2
  aci_gatt_add_char_desc_cp2 *cp2 = (aci_gatt_add_char_desc_cp2*)(cmd_buffer + 2 + 2 + 1 + (Char_Desc_Uuid_Type == 1 ? 2 : (Char_Desc_Uuid_Type == 2 ? 16 : 0)) + 1 + 1 + Char_Desc_Value_Length * (sizeof(uint8_t)));
 8005c0a:	4435      	add	r5, r6
  BLUENRG_memset(&resp, 0, sizeof(resp));
 8005c0c:	f8a7 c000 	strh.w	ip, [r7]
 8005c10:	f887 c002 	strb.w	ip, [r7, #2]
      case 1: size = 2; break;
 8005c14:	9003      	str	r0, [sp, #12]
  aci_gatt_add_char_desc_cp1 *cp1 = (aci_gatt_add_char_desc_cp1*)(cmd_buffer + 2 + 2 + 1 + (Char_Desc_Uuid_Type == 1 ? 2 : (Char_Desc_Uuid_Type == 2 ? 16 : 0)));
 8005c16:	f10d 0833 	add.w	r8, sp, #51	; 0x33
  cp0->Char_Handle = htob(Char_Handle, 2);
 8005c1a:	8071      	strh	r1, [r6, #2]
  cp0->Char_Desc_Uuid_Type = htob(Char_Desc_Uuid_Type, 1);
 8005c1c:	7132      	strb	r2, [r6, #4]
 8005c1e:	e7ad      	b.n	8005b7c <aci_gatt_add_char_desc+0x5c>
    return BLE_STATUS_TIMEOUT;
 8005c20:	20ff      	movs	r0, #255	; 0xff
}
 8005c22:	b04d      	add	sp, #308	; 0x134
 8005c24:	e8bd 8ff0 	ldmia.w	sp!, {r4, r5, r6, r7, r8, r9, sl, fp, pc}
 8005c28:	0105003f 	.word	0x0105003f

08005c2c <aci_gatt_update_char_value>:
tBleStatus aci_gatt_update_char_value(uint16_t Service_Handle,
                                      uint16_t Char_Handle,
                                      uint8_t Val_Offset,
                                      uint8_t Char_Value_Length,
                                      uint8_t Char_Value[])
{
 8005c2c:	b5f0      	push	{r4, r5, r6, r7, lr}
 8005c2e:	b0c9      	sub	sp, #292	; 0x124
 8005c30:	461c      	mov	r4, r3
 8005c32:	468c      	mov	ip, r1
  struct hci_request rq;
  uint8_t cmd_buffer[258];
  aci_gatt_update_char_value_cp0 *cp0 = (aci_gatt_update_char_value_cp0*)(cmd_buffer);
  tBleStatus status = 0;
 8005c34:	2600      	movs	r6, #0
{
 8005c36:	4613      	mov	r3, r2
  index_input += 1;
  cp0->Char_Value_Length = htob(Char_Value_Length, 1);
  index_input += 1;
  /* var_len_data input */
  {
    BLUENRG_memcpy((void *) &cp0->Char_Value, (const void *) Char_Value, Char_Value_Length*sizeof(uint8_t));
 8005c38:	994e      	ldr	r1, [sp, #312]	; 0x138
  cp0->Service_Handle = htob(Service_Handle, 2);
 8005c3a:	f8ad 001c 	strh.w	r0, [sp, #28]
    BLUENRG_memcpy((void *) &cp0->Char_Value, (const void *) Char_Value, Char_Value_Length*sizeof(uint8_t));
 8005c3e:	4622      	mov	r2, r4
 8005c40:	f10d 0022 	add.w	r0, sp, #34	; 0x22
  cp0->Char_Value_Length = htob(Char_Value_Length, 1);
 8005c44:	f88d 4021 	strb.w	r4, [sp, #33]	; 0x21
  cp0->Char_Handle = htob(Char_Handle, 2);
 8005c48:	f8ad c01e 	strh.w	ip, [sp, #30]
  cp0->Val_Offset = htob(Val_Offset, 1);
 8005c4c:	f88d 3020 	strb.w	r3, [sp, #32]
  tBleStatus status = 0;
 8005c50:	f88d 6003 	strb.w	r6, [sp, #3]
    index_input += Char_Value_Length*sizeof(uint8_t);
 8005c54:	3406      	adds	r4, #6
    BLUENRG_memcpy((void *) &cp0->Char_Value, (const void *) Char_Value, Char_Value_Length*sizeof(uint8_t));
 8005c56:	f002 fc37 	bl	80084c8 <memcpy>
  }
  BLUENRG_memset(&rq, 0, sizeof(rq));
  rq.ogf = 0x3f;
 8005c5a:	4a0b      	ldr	r2, [pc, #44]	; (8005c88 <aci_gatt_update_char_value+0x5c>)
  tBleStatus status = 0;
 8005c5c:	f10d 0703 	add.w	r7, sp, #3
  rq.ocf = 0x106;
  rq.cparam = cmd_buffer;
  rq.clen = index_input;
  rq.rparam = &status;
  rq.rlen = 1;
 8005c60:	2301      	movs	r3, #1
  cp0->Service_Handle = htob(Service_Handle, 2);
 8005c62:	ad07      	add	r5, sp, #28
  rq.clen = index_input;
 8005c64:	b2e4      	uxtb	r4, r4
  if (hci_send_req(&rq, FALSE) < 0)
 8005c66:	4631      	mov	r1, r6
 8005c68:	a801      	add	r0, sp, #4
  rq.ogf = 0x3f;
 8005c6a:	e9cd 2601 	strd	r2, r6, [sp, #4]
  rq.cparam = cmd_buffer;
 8005c6e:	9503      	str	r5, [sp, #12]
  rq.clen = index_input;
 8005c70:	9404      	str	r4, [sp, #16]
  rq.rparam = &status;
 8005c72:	9705      	str	r7, [sp, #20]
  rq.rlen = 1;
 8005c74:	9306      	str	r3, [sp, #24]
  if (hci_send_req(&rq, FALSE) < 0)
 8005c76:	f000 f891 	bl	8005d9c <hci_send_req>
 8005c7a:	42b0      	cmp	r0, r6
    return BLE_STATUS_TIMEOUT;
  if (status) {
 8005c7c:	bfac      	ite	ge
 8005c7e:	7838      	ldrbge	r0, [r7, #0]
    return BLE_STATUS_TIMEOUT;
 8005c80:	20ff      	movlt	r0, #255	; 0xff
    return status;
  }
  return BLE_STATUS_SUCCESS;
}
 8005c82:	b049      	add	sp, #292	; 0x124
 8005c84:	bdf0      	pop	{r4, r5, r6, r7, pc}
 8005c86:	bf00      	nop
 8005c88:	0106003f 	.word	0x0106003f

08005c8c <aci_hal_write_config_data>:
  return BLE_STATUS_SUCCESS;
}
tBleStatus aci_hal_write_config_data(uint8_t Offset,
                                     uint8_t Length,
                                     uint8_t Value[])
{
 8005c8c:	b5f0      	push	{r4, r5, r6, r7, lr}
 8005c8e:	460c      	mov	r4, r1
 8005c90:	b0c9      	sub	sp, #292	; 0x124
  struct hci_request rq;
  uint8_t cmd_buffer[258];
  aci_hal_write_config_data_cp0 *cp0 = (aci_hal_write_config_data_cp0*)(cmd_buffer);
  tBleStatus status = 0;
 8005c92:	2500      	movs	r5, #0
{
 8005c94:	4603      	mov	r3, r0
  index_input += 1;
  cp0->Length = htob(Length, 1);
  index_input += 1;
  /* var_len_data input */
  {
    BLUENRG_memcpy((void *) &cp0->Value, (const void *) Value, Length*sizeof(uint8_t));
 8005c96:	4611      	mov	r1, r2
 8005c98:	f10d 001e 	add.w	r0, sp, #30
 8005c9c:	4622      	mov	r2, r4
  cp0->Offset = htob(Offset, 1);
 8005c9e:	f88d 301c 	strb.w	r3, [sp, #28]
  cp0->Length = htob(Length, 1);
 8005ca2:	f88d 401d 	strb.w	r4, [sp, #29]
  tBleStatus status = 0;
 8005ca6:	f88d 5003 	strb.w	r5, [sp, #3]
    index_input += Length*sizeof(uint8_t);
 8005caa:	3402      	adds	r4, #2
    BLUENRG_memcpy((void *) &cp0->Value, (const void *) Value, Length*sizeof(uint8_t));
 8005cac:	f002 fc0c 	bl	80084c8 <memcpy>
  }
  BLUENRG_memset(&rq, 0, sizeof(rq));
  rq.ogf = 0x3f;
 8005cb0:	4a0a      	ldr	r2, [pc, #40]	; (8005cdc <aci_hal_write_config_data+0x50>)
  tBleStatus status = 0;
 8005cb2:	f10d 0703 	add.w	r7, sp, #3
  rq.ocf = 0x00c;
  rq.cparam = cmd_buffer;
  rq.clen = index_input;
  rq.rparam = &status;
  rq.rlen = 1;
 8005cb6:	2301      	movs	r3, #1
  cp0->Offset = htob(Offset, 1);
 8005cb8:	ae07      	add	r6, sp, #28
  rq.clen = index_input;
 8005cba:	b2e4      	uxtb	r4, r4
  if (hci_send_req(&rq, FALSE) < 0)
 8005cbc:	4629      	mov	r1, r5
 8005cbe:	a801      	add	r0, sp, #4
  rq.ogf = 0x3f;
 8005cc0:	e9cd 2501 	strd	r2, r5, [sp, #4]
  rq.clen = index_input;
 8005cc4:	9404      	str	r4, [sp, #16]
  rq.cparam = cmd_buffer;
 8005cc6:	9603      	str	r6, [sp, #12]
  rq.rparam = &status;
 8005cc8:	9705      	str	r7, [sp, #20]
  rq.rlen = 1;
 8005cca:	9306      	str	r3, [sp, #24]
  if (hci_send_req(&rq, FALSE) < 0)
 8005ccc:	f000 f866 	bl	8005d9c <hci_send_req>
 8005cd0:	42a8      	cmp	r0, r5
    return BLE_STATUS_TIMEOUT;
  if (status) {
 8005cd2:	bfac      	ite	ge
 8005cd4:	7838      	ldrbge	r0, [r7, #0]
    return BLE_STATUS_TIMEOUT;
 8005cd6:	20ff      	movlt	r0, #255	; 0xff
    return status;
  }
  return BLE_STATUS_SUCCESS;
}
 8005cd8:	b049      	add	sp, #292	; 0x124
 8005cda:	bdf0      	pop	{r4, r5, r6, r7, pc}
 8005cdc:	000c003f 	.word	0x000c003f

08005ce0 <aci_hal_set_tx_power_level>:
  BLUENRG_memcpy((void *) Data, (const void *) resp.Data, *Data_Length*sizeof(uint8_t));
  return BLE_STATUS_SUCCESS;
}
tBleStatus aci_hal_set_tx_power_level(uint8_t En_High_Power,
                                      uint8_t PA_Level)
{
 8005ce0:	b510      	push	{r4, lr}
 8005ce2:	b0c8      	sub	sp, #288	; 0x120
  struct hci_request rq;
  uint8_t cmd_buffer[258];
  aci_hal_set_tx_power_level_cp0 *cp0 = (aci_hal_set_tx_power_level_cp0*)(cmd_buffer);
  tBleStatus status = 0;
 8005ce4:	2300      	movs	r3, #0
  uint8_t index_input = 0;
  cp0->En_High_Power = htob(En_High_Power, 1);
 8005ce6:	aa07      	add	r2, sp, #28
 8005ce8:	f88d 001c 	strb.w	r0, [sp, #28]
  index_input += 1;
  cp0->PA_Level = htob(PA_Level, 1);
 8005cec:	f88d 101d 	strb.w	r1, [sp, #29]
  index_input += 1;
  BLUENRG_memset(&rq, 0, sizeof(rq));
  rq.ogf = 0x3f;
 8005cf0:	480b      	ldr	r0, [pc, #44]	; (8005d20 <aci_hal_set_tx_power_level+0x40>)
  rq.ocf = 0x00f;
  rq.cparam = cmd_buffer;
 8005cf2:	9203      	str	r2, [sp, #12]
  rq.clen = index_input;
 8005cf4:	2102      	movs	r1, #2
  tBleStatus status = 0;
 8005cf6:	f10d 0403 	add.w	r4, sp, #3
  rq.ogf = 0x3f;
 8005cfa:	9001      	str	r0, [sp, #4]
  rq.rparam = &status;
  rq.rlen = 1;
 8005cfc:	2201      	movs	r2, #1
  rq.clen = index_input;
 8005cfe:	9104      	str	r1, [sp, #16]
  if (hci_send_req(&rq, FALSE) < 0)
 8005d00:	a801      	add	r0, sp, #4
 8005d02:	4619      	mov	r1, r3
  rq.rlen = 1;
 8005d04:	9206      	str	r2, [sp, #24]
  rq.rparam = &status;
 8005d06:	9405      	str	r4, [sp, #20]
  tBleStatus status = 0;
 8005d08:	f88d 3003 	strb.w	r3, [sp, #3]
  BLUENRG_memset(&rq, 0, sizeof(rq));
 8005d0c:	9302      	str	r3, [sp, #8]
  if (hci_send_req(&rq, FALSE) < 0)
 8005d0e:	f000 f845 	bl	8005d9c <hci_send_req>
 8005d12:	2800      	cmp	r0, #0
    return BLE_STATUS_TIMEOUT;
  if (status) {
 8005d14:	bfac      	ite	ge
 8005d16:	7820      	ldrbge	r0, [r4, #0]
    return BLE_STATUS_TIMEOUT;
 8005d18:	20ff      	movlt	r0, #255	; 0xff
    return status;
  }
  return BLE_STATUS_SUCCESS;
}
 8005d1a:	b048      	add	sp, #288	; 0x120
 8005d1c:	bd10      	pop	{r4, pc}
 8005d1e:	bf00      	nop
 8005d20:	000f003f 	.word	0x000f003f

08005d24 <hci_init>:
}

/********************** HCI Transport layer functions *****************************/

void hci_init(void(* UserEvtRx)(void* pData), void* pConf)
{
 8005d24:	e92d 41f0 	stmdb	sp!, {r4, r5, r6, r7, r8, lr}
  uint8_t index;

  if(UserEvtRx != NULL)
  {
    hciContext.UserEvtRx = UserEvtRx;
 8005d28:	4f10      	ldr	r7, [pc, #64]	; (8005d6c <hci_init+0x48>)
  if(UserEvtRx != NULL)
 8005d2a:	b100      	cbz	r0, 8005d2e <hci_init+0xa>
    hciContext.UserEvtRx = UserEvtRx;
 8005d2c:	61f8      	str	r0, [r7, #28]
  }
  
  /* Initialize list heads of ready and free hci data packet queues */
  list_init_head(&hciReadPktPool);
 8005d2e:	4810      	ldr	r0, [pc, #64]	; (8005d70 <hci_init+0x4c>)
 8005d30:	4c10      	ldr	r4, [pc, #64]	; (8005d74 <hci_init+0x50>)
  hci_tl_lowlevel_init();

  /* Initialize the queue of free hci data packets */
  for (index = 0; index < HCI_READ_PACKET_NUM_MAX; index++)
  {
    list_insert_tail(&hciReadPktPool, (tListNode *)&hciReadPacketBuffer[index]);
 8005d32:	4606      	mov	r6, r0
  list_init_head(&hciReadPktPool);
 8005d34:	f000 f974 	bl	8006020 <list_init_head>
  list_init_head(&hciReadPktRxQueue);
 8005d38:	480f      	ldr	r0, [pc, #60]	; (8005d78 <hci_init+0x54>)
 8005d3a:	f000 f971 	bl	8006020 <list_init_head>
  hci_tl_lowlevel_init();
 8005d3e:	f7fa fd47 	bl	80007d0 <hci_tl_lowlevel_init>
  for (index = 0; index < HCI_READ_PACKET_NUM_MAX; index++)
 8005d42:	f504 65af 	add.w	r5, r4, #1400	; 0x578
    list_insert_tail(&hciReadPktPool, (tListNode *)&hciReadPacketBuffer[index]);
 8005d46:	4621      	mov	r1, r4
 8005d48:	4630      	mov	r0, r6
 8005d4a:	348c      	adds	r4, #140	; 0x8c
 8005d4c:	f000 f984 	bl	8006058 <list_insert_tail>
  for (index = 0; index < HCI_READ_PACKET_NUM_MAX; index++)
 8005d50:	42a5      	cmp	r5, r4
 8005d52:	d1f8      	bne.n	8005d46 <hci_init+0x22>
  } 
  
  /* Initialize low level driver */
  if (hciContext.io.Init)  hciContext.io.Init(NULL);
 8005d54:	683b      	ldr	r3, [r7, #0]
 8005d56:	b10b      	cbz	r3, 8005d5c <hci_init+0x38>
 8005d58:	2000      	movs	r0, #0
 8005d5a:	4798      	blx	r3
  if (hciContext.io.Reset) hciContext.io.Reset();
 8005d5c:	68bb      	ldr	r3, [r7, #8]
 8005d5e:	b113      	cbz	r3, 8005d66 <hci_init+0x42>
}
 8005d60:	e8bd 41f0 	ldmia.w	sp!, {r4, r5, r6, r7, r8, lr}
  if (hciContext.io.Reset) hciContext.io.Reset();
 8005d64:	4718      	bx	r3
}
 8005d66:	e8bd 81f0 	ldmia.w	sp!, {r4, r5, r6, r7, r8, pc}
 8005d6a:	bf00      	nop
 8005d6c:	200001bc 	.word	0x200001bc
 8005d70:	20009b3c 	.word	0x20009b3c
 8005d74:	200001dc 	.word	0x200001dc
 8005d78:	20009b44 	.word	0x20009b44

08005d7c <hci_register_io_bus>:

void hci_register_io_bus(tHciIO* fops)
{
  /* Register bus function */
  hciContext.io.Init    = fops->Init; 
 8005d7c:	4b06      	ldr	r3, [pc, #24]	; (8005d98 <hci_register_io_bus+0x1c>)
  hciContext.io.Receive = fops->Receive;  
  hciContext.io.Send    = fops->Send;
  hciContext.io.GetTick = fops->GetTick;
 8005d7e:	6982      	ldr	r2, [r0, #24]
{
 8005d80:	b430      	push	{r4, r5}
  hciContext.io.Init    = fops->Init; 
 8005d82:	6805      	ldr	r5, [r0, #0]
  hciContext.io.GetTick = fops->GetTick;
 8005d84:	619a      	str	r2, [r3, #24]
  hciContext.io.Reset   = fops->Reset;
 8005d86:	e9d0 4102 	ldrd	r4, r1, [r0, #8]
 8005d8a:	e9c3 4102 	strd	r4, r1, [r3, #8]
 8005d8e:	6902      	ldr	r2, [r0, #16]
 8005d90:	611a      	str	r2, [r3, #16]
  hciContext.io.Init    = fops->Init; 
 8005d92:	601d      	str	r5, [r3, #0]
}
 8005d94:	bc30      	pop	{r4, r5}
 8005d96:	4770      	bx	lr
 8005d98:	200001bc 	.word	0x200001bc

08005d9c <hci_send_req>:

int hci_send_req(struct hci_request* r, BOOL async)
{
 8005d9c:	e92d 43f0 	stmdb	sp!, {r4, r5, r6, r7, r8, r9, lr}
 8005da0:	4606      	mov	r6, r0
 8005da2:	b0a5      	sub	sp, #148	; 0x94
  uint8_t *ptr;
  uint16_t opcode = htobs(cmd_opcode_pack(r->ogf, r->ocf));
  hci_event_pckt *event_pckt;
  hci_spi_pckt *hci_hdr;

  tHciDataPacket * hciReadPacket = NULL;
 8005da4:	2300      	movs	r3, #0
  tListNode hciTempQueue;
  
  list_init_head(&hciTempQueue);
 8005da6:	a802      	add	r0, sp, #8
  uint16_t opcode = htobs(cmd_opcode_pack(r->ogf, r->ocf));
 8005da8:	8877      	ldrh	r7, [r6, #2]
 8005daa:	f8b6 9000 	ldrh.w	r9, [r6]
  tHciDataPacket * hciReadPacket = NULL;
 8005dae:	9301      	str	r3, [sp, #4]
{
 8005db0:	4688      	mov	r8, r1
  while(list_get_size(&hciReadPktPool) < HCI_READ_PACKET_NUM_MAX/2){
 8005db2:	4c6a      	ldr	r4, [pc, #424]	; (8005f5c <hci_send_req+0x1c0>)
    list_remove_head(&hciReadPktRxQueue, (tListNode **)&pckt);    
 8005db4:	4d6a      	ldr	r5, [pc, #424]	; (8005f60 <hci_send_req+0x1c4>)
  list_init_head(&hciTempQueue);
 8005db6:	f000 f933 	bl	8006020 <list_init_head>
  while(list_get_size(&hciReadPktPool) < HCI_READ_PACKET_NUM_MAX/2){
 8005dba:	e005      	b.n	8005dc8 <hci_send_req+0x2c>
    list_remove_head(&hciReadPktRxQueue, (tListNode **)&pckt);    
 8005dbc:	f000 f958 	bl	8006070 <list_remove_head>
    list_insert_tail(&hciReadPktPool, (tListNode *)pckt);
 8005dc0:	9904      	ldr	r1, [sp, #16]
 8005dc2:	4620      	mov	r0, r4
 8005dc4:	f000 f948 	bl	8006058 <list_insert_tail>
  while(list_get_size(&hciReadPktPool) < HCI_READ_PACKET_NUM_MAX/2){
 8005dc8:	4620      	mov	r0, r4
 8005dca:	f000 f985 	bl	80060d8 <list_get_size>
 8005dce:	4603      	mov	r3, r0
 8005dd0:	2b04      	cmp	r3, #4
    list_remove_head(&hciReadPktRxQueue, (tListNode **)&pckt);    
 8005dd2:	a904      	add	r1, sp, #16
 8005dd4:	4628      	mov	r0, r5
  while(list_get_size(&hciReadPktPool) < HCI_READ_PACKET_NUM_MAX/2){
 8005dd6:	ddf1      	ble.n	8005dbc <hci_send_req+0x20>
  hc.opcode = htobs(cmd_opcode_pack(ogf, ocf));
 8005dd8:	8873      	ldrh	r3, [r6, #2]
 8005dda:	8832      	ldrh	r2, [r6, #0]

  free_event_list();
  
  send_cmd(r->ogf, r->ocf, r->clen, r->cparam);
 8005ddc:	7b34      	ldrb	r4, [r6, #12]
  BLUENRG_memcpy(payload + HCI_HDR_SIZE + HCI_COMMAND_HDR_SIZE, param, plen);
 8005dde:	68b1      	ldr	r1, [r6, #8]
  BLUENRG_memcpy(payload + 1, &hc, sizeof(hc));
 8005de0:	f88d 4013 	strb.w	r4, [sp, #19]
  hc.opcode = htobs(cmd_opcode_pack(ogf, ocf));
 8005de4:	f3c3 0309 	ubfx	r3, r3, #0, #10
 8005de8:	ea43 2382 	orr.w	r3, r3, r2, lsl #10
  payload[0] = HCI_COMMAND_PKT;
 8005dec:	2501      	movs	r5, #1
  BLUENRG_memcpy(payload + HCI_HDR_SIZE + HCI_COMMAND_HDR_SIZE, param, plen);
 8005dee:	4622      	mov	r2, r4
 8005df0:	a805      	add	r0, sp, #20
  BLUENRG_memcpy(payload + 1, &hc, sizeof(hc));
 8005df2:	f8ad 3011 	strh.w	r3, [sp, #17]
  payload[0] = HCI_COMMAND_PKT;
 8005df6:	f88d 5010 	strb.w	r5, [sp, #16]
  BLUENRG_memcpy(payload + HCI_HDR_SIZE + HCI_COMMAND_HDR_SIZE, param, plen);
 8005dfa:	f002 fb65 	bl	80084c8 <memcpy>
  if (hciContext.io.Send)
 8005dfe:	4b59      	ldr	r3, [pc, #356]	; (8005f64 <hci_send_req+0x1c8>)
 8005e00:	691b      	ldr	r3, [r3, #16]
 8005e02:	b113      	cbz	r3, 8005e0a <hci_send_req+0x6e>
    hciContext.io.Send (payload, HCI_HDR_SIZE + HCI_COMMAND_HDR_SIZE + plen);
 8005e04:	1d21      	adds	r1, r4, #4
 8005e06:	a804      	add	r0, sp, #16
 8005e08:	4798      	blx	r3
  
  if (async)
 8005e0a:	f1b8 0f00 	cmp.w	r8, #0
 8005e0e:	f040 808f 	bne.w	8005f30 <hci_send_req+0x194>
  uint16_t opcode = htobs(cmd_opcode_pack(r->ogf, r->ocf));
 8005e12:	f3c7 0709 	ubfx	r7, r7, #0, #10
 8005e16:	ea47 2789 	orr.w	r7, r7, r9, lsl #10
      if ((HAL_GetTick() - tickstart) > HCI_DEFAULT_TIMEOUT_MS)
      {
        goto failed;
      }
      
      if (!list_is_empty(&hciReadPktRxQueue)) 
 8005e1a:	4d51      	ldr	r5, [pc, #324]	; (8005f60 <hci_send_req+0x1c4>)
    
    /* If there are no more packets to be processed, be sure there is at list one
       packet in the pool to process the expected event.
       If no free packets are available, discard the processed event and insert it
       into the pool. */
    if (list_is_empty(&hciReadPktPool) && list_is_empty(&hciReadPktRxQueue)) {
 8005e1c:	f8df 813c 	ldr.w	r8, [pc, #316]	; 8005f5c <hci_send_req+0x1c0>
  uint16_t opcode = htobs(cmd_opcode_pack(r->ogf, r->ocf));
 8005e20:	b2bf      	uxth	r7, r7
    uint32_t tickstart = HAL_GetTick();
 8005e22:	f7fb fe2b 	bl	8001a7c <HAL_GetTick>
 8005e26:	4604      	mov	r4, r0
 8005e28:	e002      	b.n	8005e30 <hci_send_req+0x94>
      if (!list_is_empty(&hciReadPktRxQueue)) 
 8005e2a:	f000 f8fd 	bl	8006028 <list_is_empty>
 8005e2e:	b1f0      	cbz	r0, 8005e6e <hci_send_req+0xd2>
      if ((HAL_GetTick() - tickstart) > HCI_DEFAULT_TIMEOUT_MS)
 8005e30:	f7fb fe24 	bl	8001a7c <HAL_GetTick>
 8005e34:	1b03      	subs	r3, r0, r4
 8005e36:	f5b3 7f7a 	cmp.w	r3, #1000	; 0x3e8
      if (!list_is_empty(&hciReadPktRxQueue)) 
 8005e3a:	4628      	mov	r0, r5
      if ((HAL_GetTick() - tickstart) > HCI_DEFAULT_TIMEOUT_MS)
 8005e3c:	d9f5      	bls.n	8005e2a <hci_send_req+0x8e>
 8005e3e:	9901      	ldr	r1, [sp, #4]
      hciReadPacket=NULL;
    }
  }
  
failed: 
  if (hciReadPacket!=NULL) {
 8005e40:	2900      	cmp	r1, #0
 8005e42:	d142      	bne.n	8005eca <hci_send_req+0x12e>
    list_insert_head(dest_list, tmp_node);
 8005e44:	4c46      	ldr	r4, [pc, #280]	; (8005f60 <hci_send_req+0x1c4>)
 8005e46:	e005      	b.n	8005e54 <hci_send_req+0xb8>
    list_remove_tail(src_list, &tmp_node);
 8005e48:	f000 f92c 	bl	80060a4 <list_remove_tail>
    list_insert_head(dest_list, tmp_node);
 8005e4c:	9904      	ldr	r1, [sp, #16]
 8005e4e:	4620      	mov	r0, r4
 8005e50:	f000 f8f6 	bl	8006040 <list_insert_head>
  while (!list_is_empty(src_list))
 8005e54:	a802      	add	r0, sp, #8
 8005e56:	f000 f8e7 	bl	8006028 <list_is_empty>
 8005e5a:	4603      	mov	r3, r0
    list_remove_tail(src_list, &tmp_node);
 8005e5c:	a904      	add	r1, sp, #16
 8005e5e:	a802      	add	r0, sp, #8
  while (!list_is_empty(src_list))
 8005e60:	2b00      	cmp	r3, #0
 8005e62:	d0f1      	beq.n	8005e48 <hci_send_req+0xac>
    list_insert_head(&hciReadPktPool, (tListNode *)hciReadPacket);
  }
  move_list(&hciReadPktRxQueue, &hciTempQueue);

  return -1;
 8005e64:	f04f 30ff 	mov.w	r0, #4294967295
  /* Insert the packet back into the pool.*/
  list_insert_head(&hciReadPktPool, (tListNode *)hciReadPacket); 
  move_list(&hciReadPktRxQueue, &hciTempQueue);

  return 0;
}
 8005e68:	b025      	add	sp, #148	; 0x94
 8005e6a:	e8bd 83f0 	ldmia.w	sp!, {r4, r5, r6, r7, r8, r9, pc}
    list_remove_head(&hciReadPktRxQueue, (tListNode **)&hciReadPacket);    
 8005e6e:	a901      	add	r1, sp, #4
 8005e70:	4628      	mov	r0, r5
 8005e72:	f000 f8fd 	bl	8006070 <list_remove_head>
    hci_hdr = (void *)hciReadPacket->dataBuff;
 8005e76:	9901      	ldr	r1, [sp, #4]
    if (hci_hdr->type == HCI_EVENT_PKT)
 8005e78:	7a0b      	ldrb	r3, [r1, #8]
 8005e7a:	2b04      	cmp	r3, #4
 8005e7c:	d112      	bne.n	8005ea4 <hci_send_req+0x108>
      switch (event_pckt->evt) 
 8005e7e:	7a4b      	ldrb	r3, [r1, #9]
      len = hciReadPacket->data_len - (1 + HCI_EVENT_HDR_SIZE);
 8005e80:	f891 4088 	ldrb.w	r4, [r1, #136]	; 0x88
      switch (event_pckt->evt) 
 8005e84:	2b10      	cmp	r3, #16
 8005e86:	d020      	beq.n	8005eca <hci_send_req+0x12e>
 8005e88:	d823      	bhi.n	8005ed2 <hci_send_req+0x136>
 8005e8a:	2b0e      	cmp	r3, #14
 8005e8c:	d01a      	beq.n	8005ec4 <hci_send_req+0x128>
 8005e8e:	2b0f      	cmp	r3, #15
 8005e90:	d108      	bne.n	8005ea4 <hci_send_req+0x108>
        if (cs->opcode != opcode)
 8005e92:	f8b1 300d 	ldrh.w	r3, [r1, #13]
 8005e96:	42bb      	cmp	r3, r7
 8005e98:	d117      	bne.n	8005eca <hci_send_req+0x12e>
        if (r->event != EVT_CMD_STATUS) {
 8005e9a:	6873      	ldr	r3, [r6, #4]
 8005e9c:	2b0f      	cmp	r3, #15
 8005e9e:	d052      	beq.n	8005f46 <hci_send_req+0x1aa>
          if (cs->status) {
 8005ea0:	7acb      	ldrb	r3, [r1, #11]
 8005ea2:	b993      	cbnz	r3, 8005eca <hci_send_req+0x12e>
    if (list_is_empty(&hciReadPktPool) && list_is_empty(&hciReadPktRxQueue)) {
 8005ea4:	4640      	mov	r0, r8
 8005ea6:	f000 f8bf 	bl	8006028 <list_is_empty>
 8005eaa:	b120      	cbz	r0, 8005eb6 <hci_send_req+0x11a>
 8005eac:	4628      	mov	r0, r5
 8005eae:	f000 f8bb 	bl	8006028 <list_is_empty>
 8005eb2:	2800      	cmp	r0, #0
 8005eb4:	d140      	bne.n	8005f38 <hci_send_req+0x19c>
    list_insert_tail(&hciTempQueue, (tListNode *)hciReadPacket);
 8005eb6:	9901      	ldr	r1, [sp, #4]
 8005eb8:	a802      	add	r0, sp, #8
 8005eba:	f000 f8cd 	bl	8006058 <list_insert_tail>
      hciReadPacket=NULL;
 8005ebe:	2300      	movs	r3, #0
 8005ec0:	9301      	str	r3, [sp, #4]
 8005ec2:	e7ae      	b.n	8005e22 <hci_send_req+0x86>
        if (cc->opcode != opcode)
 8005ec4:	898b      	ldrh	r3, [r1, #12]
 8005ec6:	42bb      	cmp	r3, r7
 8005ec8:	d014      	beq.n	8005ef4 <hci_send_req+0x158>
    list_insert_head(&hciReadPktPool, (tListNode *)hciReadPacket);
 8005eca:	4824      	ldr	r0, [pc, #144]	; (8005f5c <hci_send_req+0x1c0>)
 8005ecc:	f000 f8b8 	bl	8006040 <list_insert_head>
 8005ed0:	e7b8      	b.n	8005e44 <hci_send_req+0xa8>
      switch (event_pckt->evt) 
 8005ed2:	2b3e      	cmp	r3, #62	; 0x3e
 8005ed4:	d1e6      	bne.n	8005ea4 <hci_send_req+0x108>
        if (me->subevent != r->event)
 8005ed6:	7aca      	ldrb	r2, [r1, #11]
 8005ed8:	6873      	ldr	r3, [r6, #4]
 8005eda:	429a      	cmp	r2, r3
 8005edc:	d1e2      	bne.n	8005ea4 <hci_send_req+0x108>
        BLUENRG_memcpy(r->rparam, me->data, r->rlen);
 8005ede:	e9d6 0304 	ldrd	r0, r3, [r6, #16]
        len -= 1;
 8005ee2:	1f22      	subs	r2, r4, #4
        r->rlen = MIN(len, r->rlen);
 8005ee4:	429a      	cmp	r2, r3
 8005ee6:	bf28      	it	cs
 8005ee8:	461a      	movcs	r2, r3
        BLUENRG_memcpy(r->rparam, me->data, r->rlen);
 8005eea:	310c      	adds	r1, #12
        r->rlen = MIN(len, r->rlen);
 8005eec:	6172      	str	r2, [r6, #20]
        BLUENRG_memcpy(r->rparam, me->data, r->rlen);
 8005eee:	f002 faeb 	bl	80084c8 <memcpy>
        goto done;
 8005ef2:	e009      	b.n	8005f08 <hci_send_req+0x16c>
        BLUENRG_memcpy(r->rparam, ptr, r->rlen);
 8005ef4:	e9d6 0304 	ldrd	r0, r3, [r6, #16]
        len -= EVT_CMD_COMPLETE_SIZE;
 8005ef8:	1fa2      	subs	r2, r4, #6
        r->rlen = MIN(len, r->rlen);
 8005efa:	429a      	cmp	r2, r3
 8005efc:	bf28      	it	cs
 8005efe:	461a      	movcs	r2, r3
        BLUENRG_memcpy(r->rparam, ptr, r->rlen);
 8005f00:	310e      	adds	r1, #14
        r->rlen = MIN(len, r->rlen);
 8005f02:	6172      	str	r2, [r6, #20]
        BLUENRG_memcpy(r->rparam, ptr, r->rlen);
 8005f04:	f002 fae0 	bl	80084c8 <memcpy>
  list_insert_head(&hciReadPktPool, (tListNode *)hciReadPacket); 
 8005f08:	9901      	ldr	r1, [sp, #4]
 8005f0a:	4814      	ldr	r0, [pc, #80]	; (8005f5c <hci_send_req+0x1c0>)
    list_insert_head(dest_list, tmp_node);
 8005f0c:	4c14      	ldr	r4, [pc, #80]	; (8005f60 <hci_send_req+0x1c4>)
  list_insert_head(&hciReadPktPool, (tListNode *)hciReadPacket); 
 8005f0e:	f000 f897 	bl	8006040 <list_insert_head>
static void move_list(tListNode * dest_list, tListNode * src_list)
 8005f12:	e005      	b.n	8005f20 <hci_send_req+0x184>
    list_remove_tail(src_list, &tmp_node);
 8005f14:	f000 f8c6 	bl	80060a4 <list_remove_tail>
    list_insert_head(dest_list, tmp_node);
 8005f18:	9904      	ldr	r1, [sp, #16]
 8005f1a:	4620      	mov	r0, r4
 8005f1c:	f000 f890 	bl	8006040 <list_insert_head>
  while (!list_is_empty(src_list))
 8005f20:	a802      	add	r0, sp, #8
 8005f22:	f000 f881 	bl	8006028 <list_is_empty>
 8005f26:	4603      	mov	r3, r0
    list_remove_tail(src_list, &tmp_node);
 8005f28:	a904      	add	r1, sp, #16
 8005f2a:	a802      	add	r0, sp, #8
  while (!list_is_empty(src_list))
 8005f2c:	2b00      	cmp	r3, #0
 8005f2e:	d0f1      	beq.n	8005f14 <hci_send_req+0x178>
    return 0;
 8005f30:	2000      	movs	r0, #0
}
 8005f32:	b025      	add	sp, #148	; 0x94
 8005f34:	e8bd 83f0 	ldmia.w	sp!, {r4, r5, r6, r7, r8, r9, pc}
      list_insert_tail(&hciReadPktPool, (tListNode *)hciReadPacket);
 8005f38:	9901      	ldr	r1, [sp, #4]
 8005f3a:	4640      	mov	r0, r8
 8005f3c:	f000 f88c 	bl	8006058 <list_insert_tail>
      hciReadPacket=NULL;
 8005f40:	2300      	movs	r3, #0
 8005f42:	9301      	str	r3, [sp, #4]
 8005f44:	e76d      	b.n	8005e22 <hci_send_req+0x86>
        BLUENRG_memcpy(r->rparam, ptr, r->rlen);
 8005f46:	e9d6 0304 	ldrd	r0, r3, [r6, #16]
      len = hciReadPacket->data_len - (1 + HCI_EVENT_HDR_SIZE);
 8005f4a:	1ee2      	subs	r2, r4, #3
        r->rlen = MIN(len, r->rlen);
 8005f4c:	429a      	cmp	r2, r3
 8005f4e:	bf28      	it	cs
 8005f50:	461a      	movcs	r2, r3
        BLUENRG_memcpy(r->rparam, ptr, r->rlen);
 8005f52:	310b      	adds	r1, #11
        r->rlen = MIN(len, r->rlen);
 8005f54:	6172      	str	r2, [r6, #20]
        BLUENRG_memcpy(r->rparam, ptr, r->rlen);
 8005f56:	f002 fab7 	bl	80084c8 <memcpy>
        goto done;
 8005f5a:	e7d5      	b.n	8005f08 <hci_send_req+0x16c>
 8005f5c:	20009b3c 	.word	0x20009b3c
 8005f60:	20009b44 	.word	0x20009b44
 8005f64:	200001bc 	.word	0x200001bc

08005f68 <hci_user_evt_proc>:

void hci_user_evt_proc(void)
{
 8005f68:	b570      	push	{r4, r5, r6, lr}
 8005f6a:	b082      	sub	sp, #8
  tHciDataPacket * hciReadPacket = NULL;
 8005f6c:	2300      	movs	r3, #0
     
  /* process any pending events read */
  while (list_is_empty(&hciReadPktRxQueue) == FALSE)
 8005f6e:	4c0d      	ldr	r4, [pc, #52]	; (8005fa4 <hci_user_evt_proc+0x3c>)
  {
    list_remove_head (&hciReadPktRxQueue, (tListNode **)&hciReadPacket);

    if (hciContext.UserEvtRx != NULL)
 8005f70:	4e0d      	ldr	r6, [pc, #52]	; (8005fa8 <hci_user_evt_proc+0x40>)
    {
      hciContext.UserEvtRx(hciReadPacket->dataBuff);
    }

    list_insert_tail(&hciReadPktPool, (tListNode *)hciReadPacket);
 8005f72:	4d0e      	ldr	r5, [pc, #56]	; (8005fac <hci_user_evt_proc+0x44>)
  tHciDataPacket * hciReadPacket = NULL;
 8005f74:	9301      	str	r3, [sp, #4]
  while (list_is_empty(&hciReadPktRxQueue) == FALSE)
 8005f76:	e00a      	b.n	8005f8e <hci_user_evt_proc+0x26>
    list_remove_head (&hciReadPktRxQueue, (tListNode **)&hciReadPacket);
 8005f78:	f000 f87a 	bl	8006070 <list_remove_head>
    if (hciContext.UserEvtRx != NULL)
 8005f7c:	69f3      	ldr	r3, [r6, #28]
 8005f7e:	b113      	cbz	r3, 8005f86 <hci_user_evt_proc+0x1e>
      hciContext.UserEvtRx(hciReadPacket->dataBuff);
 8005f80:	9801      	ldr	r0, [sp, #4]
 8005f82:	3008      	adds	r0, #8
 8005f84:	4798      	blx	r3
    list_insert_tail(&hciReadPktPool, (tListNode *)hciReadPacket);
 8005f86:	9901      	ldr	r1, [sp, #4]
 8005f88:	4628      	mov	r0, r5
 8005f8a:	f000 f865 	bl	8006058 <list_insert_tail>
  while (list_is_empty(&hciReadPktRxQueue) == FALSE)
 8005f8e:	4620      	mov	r0, r4
 8005f90:	f000 f84a 	bl	8006028 <list_is_empty>
 8005f94:	4603      	mov	r3, r0
    list_remove_head (&hciReadPktRxQueue, (tListNode **)&hciReadPacket);
 8005f96:	a901      	add	r1, sp, #4
 8005f98:	4620      	mov	r0, r4
  while (list_is_empty(&hciReadPktRxQueue) == FALSE)
 8005f9a:	2b00      	cmp	r3, #0
 8005f9c:	d0ec      	beq.n	8005f78 <hci_user_evt_proc+0x10>
  }
}
 8005f9e:	b002      	add	sp, #8
 8005fa0:	bd70      	pop	{r4, r5, r6, pc}
 8005fa2:	bf00      	nop
 8005fa4:	20009b44 	.word	0x20009b44
 8005fa8:	200001bc 	.word	0x200001bc
 8005fac:	20009b3c 	.word	0x20009b3c

08005fb0 <hci_notify_asynch_evt>:

int32_t hci_notify_asynch_evt(void* pdata)
{
 8005fb0:	b530      	push	{r4, r5, lr}
 8005fb2:	b083      	sub	sp, #12
  tHciDataPacket * hciReadPacket = NULL;
 8005fb4:	2300      	movs	r3, #0
  uint8_t data_len;
  
  int32_t ret = 0;
  
  if (list_is_empty (&hciReadPktPool) == FALSE)
 8005fb6:	4817      	ldr	r0, [pc, #92]	; (8006014 <hci_notify_asynch_evt+0x64>)
  tHciDataPacket * hciReadPacket = NULL;
 8005fb8:	9301      	str	r3, [sp, #4]
  if (list_is_empty (&hciReadPktPool) == FALSE)
 8005fba:	f000 f835 	bl	8006028 <list_is_empty>
 8005fbe:	b110      	cbz	r0, 8005fc6 <hci_notify_asynch_evt+0x16>
      }
    }
  }
  else 
  {
    ret = 1;
 8005fc0:	2001      	movs	r0, #1
  }
  return ret;
  
}
 8005fc2:	b003      	add	sp, #12
 8005fc4:	bd30      	pop	{r4, r5, pc}
    list_remove_head (&hciReadPktPool, (tListNode **)&hciReadPacket);
 8005fc6:	4605      	mov	r5, r0
 8005fc8:	a901      	add	r1, sp, #4
 8005fca:	4812      	ldr	r0, [pc, #72]	; (8006014 <hci_notify_asynch_evt+0x64>)
 8005fcc:	f000 f850 	bl	8006070 <list_remove_head>
    if (hciContext.io.Receive)
 8005fd0:	4b11      	ldr	r3, [pc, #68]	; (8006018 <hci_notify_asynch_evt+0x68>)
 8005fd2:	68db      	ldr	r3, [r3, #12]
 8005fd4:	b1db      	cbz	r3, 800600e <hci_notify_asynch_evt+0x5e>
      data_len = hciContext.io.Receive(hciReadPacket->dataBuff, HCI_READ_PACKET_SIZE);
 8005fd6:	9801      	ldr	r0, [sp, #4]
 8005fd8:	2180      	movs	r1, #128	; 0x80
 8005fda:	3008      	adds	r0, #8
 8005fdc:	4798      	blx	r3
      if (data_len > 0)
 8005fde:	f010 04ff 	ands.w	r4, r0, #255	; 0xff
        hciReadPacket->data_len = data_len;
 8005fe2:	9901      	ldr	r1, [sp, #4]
      if (data_len > 0)
 8005fe4:	d00d      	beq.n	8006002 <hci_notify_asynch_evt+0x52>
  if (hci_pckt[HCI_PCK_TYPE_OFFSET] != HCI_EVENT_PKT)
 8005fe6:	7a0b      	ldrb	r3, [r1, #8]
        hciReadPacket->data_len = data_len;
 8005fe8:	f881 4088 	strb.w	r4, [r1, #136]	; 0x88
  if (hci_pckt[HCI_PCK_TYPE_OFFSET] != HCI_EVENT_PKT)
 8005fec:	2b04      	cmp	r3, #4
 8005fee:	d108      	bne.n	8006002 <hci_notify_asynch_evt+0x52>
  if (hci_pckt[EVENT_PARAMETER_TOT_LEN_OFFSET] != hciReadPacket->data_len - (1+HCI_EVENT_HDR_SIZE))
 8005ff0:	7a8b      	ldrb	r3, [r1, #10]
 8005ff2:	3c03      	subs	r4, #3
 8005ff4:	42a3      	cmp	r3, r4
 8005ff6:	d104      	bne.n	8006002 <hci_notify_asynch_evt+0x52>
          list_insert_tail(&hciReadPktRxQueue, (tListNode *)hciReadPacket);
 8005ff8:	4808      	ldr	r0, [pc, #32]	; (800601c <hci_notify_asynch_evt+0x6c>)
 8005ffa:	f000 f82d 	bl	8006058 <list_insert_tail>
  int32_t ret = 0;
 8005ffe:	4628      	mov	r0, r5
 8006000:	e7df      	b.n	8005fc2 <hci_notify_asynch_evt+0x12>
          list_insert_head(&hciReadPktPool, (tListNode *)hciReadPacket);          
 8006002:	4804      	ldr	r0, [pc, #16]	; (8006014 <hci_notify_asynch_evt+0x64>)
 8006004:	f000 f81c 	bl	8006040 <list_insert_head>
  int32_t ret = 0;
 8006008:	2000      	movs	r0, #0
}
 800600a:	b003      	add	sp, #12
 800600c:	bd30      	pop	{r4, r5, pc}
  int32_t ret = 0;
 800600e:	4618      	mov	r0, r3
  return ret;
 8006010:	e7d7      	b.n	8005fc2 <hci_notify_asynch_evt+0x12>
 8006012:	bf00      	nop
 8006014:	20009b3c 	.word	0x20009b3c
 8006018:	200001bc 	.word	0x200001bc
 800601c:	20009b44 	.word	0x20009b44

08006020 <list_init_head>:
 * Function Definitions 
******************************************************************************/
void list_init_head (tListNode * listHead)
{
  listHead->next = listHead;
  listHead->prev = listHead;	
 8006020:	e9c0 0000 	strd	r0, r0, [r0]
}
 8006024:	4770      	bx	lr
 8006026:	bf00      	nop

08006028 <list_is_empty>:
  __ASM volatile ("MRS %0, primask" : "=r" (result) :: "memory");
 8006028:	f3ef 8210 	mrs	r2, PRIMASK
  __ASM volatile ("cpsid i" : : : "memory");
 800602c:	b672      	cpsid	i
  
  uint32_t uwPRIMASK_Bit;
  uwPRIMASK_Bit = __get_PRIMASK();  /**< backup PRIMASK bit */
  __disable_irq();                  /**< Disable all interrupts by setting PRIMASK bit on Cortex*/
   
  if(listHead->next == listHead)
 800602e:	6803      	ldr	r3, [r0, #0]
  {
    return_value = 1;
 8006030:	1a18      	subs	r0, r3, r0
 8006032:	fab0 f080 	clz	r0, r0
 8006036:	0940      	lsrs	r0, r0, #5
  __ASM volatile ("MSR primask, %0" : : "r" (priMask) : "memory");
 8006038:	f382 8810 	msr	PRIMASK, r2
  }
  
  __set_PRIMASK(uwPRIMASK_Bit);     /**< Restore PRIMASK bit*/
  
  return return_value;
}
 800603c:	4770      	bx	lr
 800603e:	bf00      	nop

08006040 <list_insert_head>:
  __ASM volatile ("MRS %0, primask" : "=r" (result) :: "memory");
 8006040:	f3ef 8310 	mrs	r3, PRIMASK
  __ASM volatile ("cpsid i" : : : "memory");
 8006044:	b672      	cpsid	i
{
  uint32_t uwPRIMASK_Bit;
  uwPRIMASK_Bit = __get_PRIMASK();  /**< backup PRIMASK bit */
  __disable_irq();                  /**< Disable all interrupts by setting PRIMASK bit on Cortex*/
  
  node->next = listHead->next;
 8006046:	6802      	ldr	r2, [r0, #0]
  node->prev = listHead;
 8006048:	e9c1 2000 	strd	r2, r0, [r1]
  listHead->next = node;
 800604c:	6001      	str	r1, [r0, #0]
  (node->next)->prev = node;
 800604e:	680a      	ldr	r2, [r1, #0]
 8006050:	6051      	str	r1, [r2, #4]
  __ASM volatile ("MSR primask, %0" : : "r" (priMask) : "memory");
 8006052:	f383 8810 	msr	PRIMASK, r3
  
  __set_PRIMASK(uwPRIMASK_Bit);     /**< Restore PRIMASK bit*/
}
 8006056:	4770      	bx	lr

08006058 <list_insert_tail>:
  __ASM volatile ("MRS %0, primask" : "=r" (result) :: "memory");
 8006058:	f3ef 8310 	mrs	r3, PRIMASK
  __ASM volatile ("cpsid i" : : : "memory");
 800605c:	b672      	cpsid	i
  uint32_t uwPRIMASK_Bit;
  uwPRIMASK_Bit = __get_PRIMASK();  /**< backup PRIMASK bit */
  __disable_irq();                  /**< Disable all interrupts by setting PRIMASK bit on Cortex*/
  
  node->next = listHead;
  node->prev = listHead->prev;
 800605e:	6842      	ldr	r2, [r0, #4]
 8006060:	e9c1 0200 	strd	r0, r2, [r1]
  listHead->prev = node;
 8006064:	6041      	str	r1, [r0, #4]
  (node->prev)->next = node;
 8006066:	684a      	ldr	r2, [r1, #4]
 8006068:	6011      	str	r1, [r2, #0]
  __ASM volatile ("MSR primask, %0" : : "r" (priMask) : "memory");
 800606a:	f383 8810 	msr	PRIMASK, r3
  
  __set_PRIMASK(uwPRIMASK_Bit);     /**< Restore PRIMASK bit*/
}
 800606e:	4770      	bx	lr

08006070 <list_remove_head>:
  
  __set_PRIMASK(uwPRIMASK_Bit);     /**< Restore PRIMASK bit*/
}

void list_remove_head (tListNode * listHead, tListNode ** node )
{
 8006070:	b410      	push	{r4}
  __ASM volatile ("MRS %0, primask" : "=r" (result) :: "memory");
 8006072:	f3ef 8410 	mrs	r4, PRIMASK
  __ASM volatile ("cpsid i" : : : "memory");
 8006076:	b672      	cpsid	i
  uint32_t uwPRIMASK_Bit;
  uwPRIMASK_Bit = __get_PRIMASK();  /**< backup PRIMASK bit */
  __disable_irq();                  /**< Disable all interrupts by setting PRIMASK bit on Cortex*/
  
  *node = listHead->next;
 8006078:	6803      	ldr	r3, [r0, #0]
 800607a:	600b      	str	r3, [r1, #0]
  __ASM volatile ("MRS %0, primask" : "=r" (result) :: "memory");
 800607c:	f3ef 8010 	mrs	r0, PRIMASK
  __ASM volatile ("cpsid i" : : : "memory");
 8006080:	b672      	cpsid	i
  (node->prev)->next = node->next;
 8006082:	e9d3 3200 	ldrd	r3, r2, [r3]
 8006086:	6013      	str	r3, [r2, #0]
  (node->next)->prev = node->prev;
 8006088:	605a      	str	r2, [r3, #4]
  __ASM volatile ("MSR primask, %0" : : "r" (priMask) : "memory");
 800608a:	f380 8810 	msr	PRIMASK, r0
  list_remove_node (listHead->next);
  (*node)->next = NULL;
 800608e:	680a      	ldr	r2, [r1, #0]
 8006090:	2300      	movs	r3, #0
 8006092:	6013      	str	r3, [r2, #0]
  (*node)->prev = NULL;
 8006094:	680a      	ldr	r2, [r1, #0]
 8006096:	6053      	str	r3, [r2, #4]
 8006098:	f384 8810 	msr	PRIMASK, r4
  
  __set_PRIMASK(uwPRIMASK_Bit);     /**< Restore PRIMASK bit*/
}
 800609c:	f85d 4b04 	ldr.w	r4, [sp], #4
 80060a0:	4770      	bx	lr
 80060a2:	bf00      	nop

080060a4 <list_remove_tail>:

void list_remove_tail (tListNode * listHead, tListNode ** node )
{
 80060a4:	b410      	push	{r4}
  __ASM volatile ("MRS %0, primask" : "=r" (result) :: "memory");
 80060a6:	f3ef 8410 	mrs	r4, PRIMASK
  __ASM volatile ("cpsid i" : : : "memory");
 80060aa:	b672      	cpsid	i
  uint32_t uwPRIMASK_Bit;
  uwPRIMASK_Bit = __get_PRIMASK();  /**< backup PRIMASK bit */
  __disable_irq();                  /**< Disable all interrupts by setting PRIMASK bit on Cortex*/
  
  *node = listHead->prev;
 80060ac:	6843      	ldr	r3, [r0, #4]
 80060ae:	600b      	str	r3, [r1, #0]
  __ASM volatile ("MRS %0, primask" : "=r" (result) :: "memory");
 80060b0:	f3ef 8010 	mrs	r0, PRIMASK
  __ASM volatile ("cpsid i" : : : "memory");
 80060b4:	b672      	cpsid	i
  (node->prev)->next = node->next;
 80060b6:	e9d3 3200 	ldrd	r3, r2, [r3]
 80060ba:	6013      	str	r3, [r2, #0]
  (node->next)->prev = node->prev;
 80060bc:	605a      	str	r2, [r3, #4]
  __ASM volatile ("MSR primask, %0" : : "r" (priMask) : "memory");
 80060be:	f380 8810 	msr	PRIMASK, r0
  list_remove_node (listHead->prev);
  (*node)->next = NULL;
 80060c2:	680a      	ldr	r2, [r1, #0]
 80060c4:	2300      	movs	r3, #0
 80060c6:	6013      	str	r3, [r2, #0]
  (*node)->prev = NULL;
 80060c8:	680a      	ldr	r2, [r1, #0]
 80060ca:	6053      	str	r3, [r2, #4]
 80060cc:	f384 8810 	msr	PRIMASK, r4
  
  __set_PRIMASK(uwPRIMASK_Bit);     /**< Restore PRIMASK bit*/
}
 80060d0:	f85d 4b04 	ldr.w	r4, [sp], #4
 80060d4:	4770      	bx	lr
 80060d6:	bf00      	nop

080060d8 <list_get_size>:
  
  __set_PRIMASK(uwPRIMASK_Bit);     /**< Restore PRIMASK bit*/
}

int list_get_size (tListNode * listHead)
{
 80060d8:	4602      	mov	r2, r0
  __ASM volatile ("MRS %0, primask" : "=r" (result) :: "memory");
 80060da:	f3ef 8110 	mrs	r1, PRIMASK
  __ASM volatile ("cpsid i" : : : "memory");
 80060de:	b672      	cpsid	i

  uint32_t uwPRIMASK_Bit;
  uwPRIMASK_Bit = __get_PRIMASK();  /**< backup PRIMASK bit */
  __disable_irq();                  /**< Disable all interrupts by setting PRIMASK bit on Cortex*/

  temp = listHead->next;
 80060e0:	6803      	ldr	r3, [r0, #0]
  while (temp != listHead)
 80060e2:	429a      	cmp	r2, r3
  int size = 0;
 80060e4:	f04f 0000 	mov.w	r0, #0
  while (temp != listHead)
 80060e8:	d004      	beq.n	80060f4 <list_get_size+0x1c>
  {
    size++;
    temp = temp->next;		
 80060ea:	681b      	ldr	r3, [r3, #0]
  while (temp != listHead)
 80060ec:	429a      	cmp	r2, r3
    size++;
 80060ee:	f100 0001 	add.w	r0, r0, #1
  while (temp != listHead)
 80060f2:	d1fa      	bne.n	80060ea <list_get_size+0x12>
  __ASM volatile ("MSR primask, %0" : : "r" (priMask) : "memory");
 80060f4:	f381 8810 	msr	PRIMASK, r1
  }
  
  __set_PRIMASK(uwPRIMASK_Bit);     /**< Restore PRIMASK bit*/
  
  return (size);
}
 80060f8:	4770      	bx	lr
 80060fa:	bf00      	nop

080060fc <SysTick_Handler>:

/*
  SysTick handler implementation that also clears overflow flag.
*/
#if (USE_CUSTOM_SYSTICK_HANDLER_IMPLEMENTATION == 0)
void SysTick_Handler (void) {
 80060fc:	b508      	push	{r3, lr}
  /* Clear overflow flag */
  SysTick->CTRL;
 80060fe:	4b05      	ldr	r3, [pc, #20]	; (8006114 <SysTick_Handler+0x18>)
 8006100:	681b      	ldr	r3, [r3, #0]

  if (xTaskGetSchedulerState() != taskSCHEDULER_NOT_STARTED) {
 8006102:	f001 fb87 	bl	8007814 <xTaskGetSchedulerState>
 8006106:	2801      	cmp	r0, #1
 8006108:	d100      	bne.n	800610c <SysTick_Handler+0x10>
    /* Call tick handler */
    xPortSysTickHandler();
  }
}
 800610a:	bd08      	pop	{r3, pc}
 800610c:	e8bd 4008 	ldmia.w	sp!, {r3, lr}
    xPortSysTickHandler();
 8006110:	f001 bf98 	b.w	8008044 <xPortSysTickHandler>
 8006114:	e000e010 	.word	0xe000e010

08006118 <osKernelInitialize>:
  __ASM volatile ("MRS %0, ipsr" : "=r" (result) );
 8006118:	f3ef 8305 	mrs	r3, IPSR
/*---------------------------------------------------------------------------*/

osStatus_t osKernelInitialize (void) {
  osStatus_t stat;

  if (IS_IRQ()) {
 800611c:	b92b      	cbnz	r3, 800612a <osKernelInitialize+0x12>
    stat = osErrorISR;
  }
  else {
    if (KernelState == osKernelInactive) {
 800611e:	4b06      	ldr	r3, [pc, #24]	; (8006138 <osKernelInitialize+0x20>)
 8006120:	6818      	ldr	r0, [r3, #0]
 8006122:	b928      	cbnz	r0, 8006130 <osKernelInitialize+0x18>
        EvrFreeRTOSSetup(0U);
      #endif
      #if defined(USE_FreeRTOS_HEAP_5) && (HEAP_5_REGION_SETUP == 1)
        vPortDefineHeapRegions (configHEAP_5_REGIONS);
      #endif
      KernelState = osKernelReady;
 8006124:	2201      	movs	r2, #1
 8006126:	601a      	str	r2, [r3, #0]
      stat = osOK;
 8006128:	4770      	bx	lr
    stat = osErrorISR;
 800612a:	f06f 0005 	mvn.w	r0, #5
 800612e:	4770      	bx	lr
    } else {
      stat = osError;
 8006130:	f04f 30ff 	mov.w	r0, #4294967295
    }
  }

  return (stat);
}
 8006134:	4770      	bx	lr
 8006136:	bf00      	nop
 8006138:	200009c0 	.word	0x200009c0

0800613c <osKernelStart>:
  }

  return (state);
}

osStatus_t osKernelStart (void) {
 800613c:	b510      	push	{r4, lr}
 800613e:	f3ef 8405 	mrs	r4, IPSR
  osStatus_t stat;

  if (IS_IRQ()) {
 8006142:	b974      	cbnz	r4, 8006162 <osKernelStart+0x26>
    stat = osErrorISR;
  }
  else {
    if (KernelState == osKernelReady) {
 8006144:	4b08      	ldr	r3, [pc, #32]	; (8006168 <osKernelStart+0x2c>)
 8006146:	681a      	ldr	r2, [r3, #0]
 8006148:	2a01      	cmp	r2, #1
 800614a:	d107      	bne.n	800615c <osKernelStart+0x20>
    SCB->SHP[(((uint32_t)IRQn) & 0xFUL)-4UL] = (uint8_t)((priority << (8U - __NVIC_PRIO_BITS)) & (uint32_t)0xFFUL);
 800614c:	4907      	ldr	r1, [pc, #28]	; (800616c <osKernelStart+0x30>)
      /* Ensure SVC priority is at the reset value */
      SVC_Setup();
      /* Change state to enable IRQ masking check */
      KernelState = osKernelRunning;
 800614e:	2202      	movs	r2, #2
 8006150:	77cc      	strb	r4, [r1, #31]
 8006152:	601a      	str	r2, [r3, #0]
      /* Start the kernel scheduler */
      vTaskStartScheduler();
 8006154:	f001 f87a 	bl	800724c <vTaskStartScheduler>
      stat = osOK;
 8006158:	4620      	mov	r0, r4
      stat = osError;
    }
  }

  return (stat);
}
 800615a:	bd10      	pop	{r4, pc}
      stat = osError;
 800615c:	f04f 30ff 	mov.w	r0, #4294967295
}
 8006160:	bd10      	pop	{r4, pc}
    stat = osErrorISR;
 8006162:	f06f 0005 	mvn.w	r0, #5
}
 8006166:	bd10      	pop	{r4, pc}
 8006168:	200009c0 	.word	0x200009c0
 800616c:	e000ed00 	.word	0xe000ed00

08006170 <vApplicationGetIdleTaskMemory>:
__WEAK void vApplicationGetIdleTaskMemory (StaticTask_t **ppxIdleTaskTCBBuffer, StackType_t **ppxIdleTaskStackBuffer, uint32_t *pulIdleTaskStackSize) {
  /* Idle task control block and stack */
  static StaticTask_t Idle_TCB;
  static StackType_t  Idle_Stack[configMINIMAL_STACK_SIZE];

  *ppxIdleTaskTCBBuffer   = &Idle_TCB;
 8006170:	4b04      	ldr	r3, [pc, #16]	; (8006184 <vApplicationGetIdleTaskMemory+0x14>)
 8006172:	6003      	str	r3, [r0, #0]
__WEAK void vApplicationGetIdleTaskMemory (StaticTask_t **ppxIdleTaskTCBBuffer, StackType_t **ppxIdleTaskStackBuffer, uint32_t *pulIdleTaskStackSize) {
 8006174:	b410      	push	{r4}
  *ppxIdleTaskStackBuffer = &Idle_Stack[0];
  *pulIdleTaskStackSize   = (uint32_t)configMINIMAL_STACK_SIZE;
 8006176:	2380      	movs	r3, #128	; 0x80
  *ppxIdleTaskStackBuffer = &Idle_Stack[0];
 8006178:	4c03      	ldr	r4, [pc, #12]	; (8006188 <vApplicationGetIdleTaskMemory+0x18>)
 800617a:	600c      	str	r4, [r1, #0]
}
 800617c:	f85d 4b04 	ldr.w	r4, [sp], #4
  *pulIdleTaskStackSize   = (uint32_t)configMINIMAL_STACK_SIZE;
 8006180:	6013      	str	r3, [r2, #0]
}
 8006182:	4770      	bx	lr
 8006184:	20000954 	.word	0x20000954
 8006188:	20000754 	.word	0x20000754

0800618c <vApplicationGetTimerTaskMemory>:
__WEAK void vApplicationGetTimerTaskMemory (StaticTask_t **ppxTimerTaskTCBBuffer, StackType_t **ppxTimerTaskStackBuffer, uint32_t *pulTimerTaskStackSize) {
  /* Timer task control block and stack */
  static StaticTask_t Timer_TCB;
  static StackType_t  Timer_Stack[configTIMER_TASK_STACK_DEPTH];

  *ppxTimerTaskTCBBuffer   = &Timer_TCB;
 800618c:	4b05      	ldr	r3, [pc, #20]	; (80061a4 <vApplicationGetTimerTaskMemory+0x18>)
 800618e:	6003      	str	r3, [r0, #0]
__WEAK void vApplicationGetTimerTaskMemory (StaticTask_t **ppxTimerTaskTCBBuffer, StackType_t **ppxTimerTaskStackBuffer, uint32_t *pulTimerTaskStackSize) {
 8006190:	b410      	push	{r4}
  *ppxTimerTaskStackBuffer = &Timer_Stack[0];
  *pulTimerTaskStackSize   = (uint32_t)configTIMER_TASK_STACK_DEPTH;
 8006192:	f44f 7300 	mov.w	r3, #512	; 0x200
  *ppxTimerTaskStackBuffer = &Timer_Stack[0];
 8006196:	4c04      	ldr	r4, [pc, #16]	; (80061a8 <vApplicationGetTimerTaskMemory+0x1c>)
 8006198:	600c      	str	r4, [r1, #0]
}
 800619a:	f85d 4b04 	ldr.w	r4, [sp], #4
  *pulTimerTaskStackSize   = (uint32_t)configTIMER_TASK_STACK_DEPTH;
 800619e:	6013      	str	r3, [r2, #0]
}
 80061a0:	4770      	bx	lr
 80061a2:	bf00      	nop
 80061a4:	200011c4 	.word	0x200011c4
 80061a8:	200009c4 	.word	0x200009c4

080061ac <vListInitialise>:
void vListInitialise( List_t * const pxList )
{
	/* The list structure contains a list item which is used to mark the
	end of the list.  To initialise the list the list end is inserted
	as the only list entry. */
	pxList->pxIndex = ( ListItem_t * ) &( pxList->xListEnd );			/*lint !e826 !e740 !e9087 The mini list structure is used as the list end to save RAM.  This is checked and valid. */
 80061ac:	f100 0308 	add.w	r3, r0, #8

	/* The list end value is the highest possible value in the list to
	ensure it remains at the end of the list. */
	pxList->xListEnd.xItemValue = portMAX_DELAY;
 80061b0:	f04f 31ff 	mov.w	r1, #4294967295
	/* The list end next and previous pointers point to itself so we know
	when the list is empty. */
	pxList->xListEnd.pxNext = ( ListItem_t * ) &( pxList->xListEnd );	/*lint !e826 !e740 !e9087 The mini list structure is used as the list end to save RAM.  This is checked and valid. */
	pxList->xListEnd.pxPrevious = ( ListItem_t * ) &( pxList->xListEnd );/*lint !e826 !e740 !e9087 The mini list structure is used as the list end to save RAM.  This is checked and valid. */

	pxList->uxNumberOfItems = ( UBaseType_t ) 0U;
 80061b4:	2200      	movs	r2, #0
	pxList->xListEnd.pxPrevious = ( ListItem_t * ) &( pxList->xListEnd );/*lint !e826 !e740 !e9087 The mini list structure is used as the list end to save RAM.  This is checked and valid. */
 80061b6:	e9c0 3303 	strd	r3, r3, [r0, #12]
	pxList->xListEnd.xItemValue = portMAX_DELAY;
 80061ba:	6081      	str	r1, [r0, #8]
	pxList->uxNumberOfItems = ( UBaseType_t ) 0U;
 80061bc:	6002      	str	r2, [r0, #0]
	pxList->pxIndex = ( ListItem_t * ) &( pxList->xListEnd );			/*lint !e826 !e740 !e9087 The mini list structure is used as the list end to save RAM.  This is checked and valid. */
 80061be:	6043      	str	r3, [r0, #4]

	/* Write known values into the list if
	configUSE_LIST_DATA_INTEGRITY_CHECK_BYTES is set to 1. */
	listSET_LIST_INTEGRITY_CHECK_1_VALUE( pxList );
	listSET_LIST_INTEGRITY_CHECK_2_VALUE( pxList );
}
 80061c0:	4770      	bx	lr
 80061c2:	bf00      	nop

080061c4 <vListInitialiseItem>:
/*-----------------------------------------------------------*/

void vListInitialiseItem( ListItem_t * const pxItem )
{
	/* Make sure the list item is not recorded as being on a list. */
	pxItem->pxContainer = NULL;
 80061c4:	2300      	movs	r3, #0
 80061c6:	6103      	str	r3, [r0, #16]

	/* Write known values into the list item if
	configUSE_LIST_DATA_INTEGRITY_CHECK_BYTES is set to 1. */
	listSET_FIRST_LIST_ITEM_INTEGRITY_CHECK_VALUE( pxItem );
	listSET_SECOND_LIST_ITEM_INTEGRITY_CHECK_VALUE( pxItem );
}
 80061c8:	4770      	bx	lr
 80061ca:	bf00      	nop

080061cc <vListInsertEnd>:
/*-----------------------------------------------------------*/

void vListInsertEnd( List_t * const pxList, ListItem_t * const pxNewListItem )
{
ListItem_t * const pxIndex = pxList->pxIndex;
 80061cc:	6843      	ldr	r3, [r0, #4]
	pxIndex->pxPrevious = pxNewListItem;

	/* Remember which list the item is in. */
	pxNewListItem->pxContainer = pxList;

	( pxList->uxNumberOfItems )++;
 80061ce:	6802      	ldr	r2, [r0, #0]
{
 80061d0:	b410      	push	{r4}
	pxNewListItem->pxPrevious = pxIndex->pxPrevious;
 80061d2:	689c      	ldr	r4, [r3, #8]
 80061d4:	608c      	str	r4, [r1, #8]
	pxIndex->pxPrevious->pxNext = pxNewListItem;
 80061d6:	689c      	ldr	r4, [r3, #8]
	pxNewListItem->pxNext = pxIndex;
 80061d8:	604b      	str	r3, [r1, #4]
	( pxList->uxNumberOfItems )++;
 80061da:	3201      	adds	r2, #1
	pxIndex->pxPrevious->pxNext = pxNewListItem;
 80061dc:	6061      	str	r1, [r4, #4]
	pxIndex->pxPrevious = pxNewListItem;
 80061de:	6099      	str	r1, [r3, #8]
}
 80061e0:	f85d 4b04 	ldr.w	r4, [sp], #4
	pxNewListItem->pxContainer = pxList;
 80061e4:	6108      	str	r0, [r1, #16]
	( pxList->uxNumberOfItems )++;
 80061e6:	6002      	str	r2, [r0, #0]
}
 80061e8:	4770      	bx	lr
 80061ea:	bf00      	nop

080061ec <vListInsert>:
/*-----------------------------------------------------------*/

void vListInsert( List_t * const pxList, ListItem_t * const pxNewListItem )
{
 80061ec:	b430      	push	{r4, r5}
ListItem_t *pxIterator;
const TickType_t xValueOfInsertion = pxNewListItem->xItemValue;
 80061ee:	680d      	ldr	r5, [r1, #0]
	new list item should be placed after it.  This ensures that TCBs which are
	stored in ready lists (all of which have the same xItemValue value) get a
	share of the CPU.  However, if the xItemValue is the same as the back marker
	the iteration loop below will not end.  Therefore the value is checked
	first, and the algorithm slightly modified if necessary. */
	if( xValueOfInsertion == portMAX_DELAY )
 80061f0:	1c6b      	adds	r3, r5, #1
 80061f2:	d010      	beq.n	8006216 <vListInsert+0x2a>
			4) Using a queue or semaphore before it has been initialised or
			   before the scheduler has been started (are interrupts firing
			   before vTaskStartScheduler() has been called?).
		**********************************************************************/

		for( pxIterator = ( ListItem_t * ) &( pxList->xListEnd ); pxIterator->pxNext->xItemValue <= xValueOfInsertion; pxIterator = pxIterator->pxNext ) /*lint !e826 !e740 !e9087 The mini list structure is used as the list end to save RAM.  This is checked and valid. *//*lint !e440 The iterator moves to a different value, not xValueOfInsertion. */
 80061f4:	f100 0308 	add.w	r3, r0, #8
 80061f8:	461c      	mov	r4, r3
 80061fa:	685b      	ldr	r3, [r3, #4]
 80061fc:	681a      	ldr	r2, [r3, #0]
 80061fe:	42aa      	cmp	r2, r5
 8006200:	d9fa      	bls.n	80061f8 <vListInsert+0xc>

	/* Remember which list the item is in.  This allows fast removal of the
	item later. */
	pxNewListItem->pxContainer = pxList;

	( pxList->uxNumberOfItems )++;
 8006202:	6802      	ldr	r2, [r0, #0]
	pxNewListItem->pxNext = pxIterator->pxNext;
 8006204:	604b      	str	r3, [r1, #4]
	( pxList->uxNumberOfItems )++;
 8006206:	3201      	adds	r2, #1
	pxNewListItem->pxNext->pxPrevious = pxNewListItem;
 8006208:	6099      	str	r1, [r3, #8]
	pxNewListItem->pxPrevious = pxIterator;
 800620a:	608c      	str	r4, [r1, #8]
	pxIterator->pxNext = pxNewListItem;
 800620c:	6061      	str	r1, [r4, #4]
	pxNewListItem->pxContainer = pxList;
 800620e:	6108      	str	r0, [r1, #16]
}
 8006210:	bc30      	pop	{r4, r5}
	( pxList->uxNumberOfItems )++;
 8006212:	6002      	str	r2, [r0, #0]
}
 8006214:	4770      	bx	lr
		pxIterator = pxList->xListEnd.pxPrevious;
 8006216:	6904      	ldr	r4, [r0, #16]
 8006218:	6863      	ldr	r3, [r4, #4]
 800621a:	e7f2      	b.n	8006202 <vListInsert+0x16>

0800621c <uxListRemove>:

UBaseType_t uxListRemove( ListItem_t * const pxItemToRemove )
{
/* The list item knows which list it is in.  Obtain the list from the list
item. */
List_t * const pxList = pxItemToRemove->pxContainer;
 800621c:	6903      	ldr	r3, [r0, #16]
{
 800621e:	b410      	push	{r4}

	pxItemToRemove->pxNext->pxPrevious = pxItemToRemove->pxPrevious;
 8006220:	e9d0 1201 	ldrd	r1, r2, [r0, #4]

	/* Only used during decision coverage testing. */
	mtCOVERAGE_TEST_DELAY();

	/* Make sure the index is left pointing to a valid item. */
	if( pxList->pxIndex == pxItemToRemove )
 8006224:	685c      	ldr	r4, [r3, #4]
	pxItemToRemove->pxNext->pxPrevious = pxItemToRemove->pxPrevious;
 8006226:	608a      	str	r2, [r1, #8]
	if( pxList->pxIndex == pxItemToRemove )
 8006228:	4284      	cmp	r4, r0
	pxItemToRemove->pxPrevious->pxNext = pxItemToRemove->pxNext;
 800622a:	6051      	str	r1, [r2, #4]
	{
		pxList->pxIndex = pxItemToRemove->pxPrevious;
 800622c:	bf08      	it	eq
 800622e:	605a      	streq	r2, [r3, #4]
	{
		mtCOVERAGE_TEST_MARKER();
	}

	pxItemToRemove->pxContainer = NULL;
	( pxList->uxNumberOfItems )--;
 8006230:	681a      	ldr	r2, [r3, #0]

	return pxList->uxNumberOfItems;
}
 8006232:	f85d 4b04 	ldr.w	r4, [sp], #4
	pxItemToRemove->pxContainer = NULL;
 8006236:	2100      	movs	r1, #0
	( pxList->uxNumberOfItems )--;
 8006238:	3a01      	subs	r2, #1
	pxItemToRemove->pxContainer = NULL;
 800623a:	6101      	str	r1, [r0, #16]
	( pxList->uxNumberOfItems )--;
 800623c:	601a      	str	r2, [r3, #0]
	return pxList->uxNumberOfItems;
 800623e:	6818      	ldr	r0, [r3, #0]
}
 8006240:	4770      	bx	lr
 8006242:	bf00      	nop

08006244 <prvCopyDataToQueue>:

#endif /* configUSE_MUTEXES */
/*-----------------------------------------------------------*/

static BaseType_t prvCopyDataToQueue( Queue_t * const pxQueue, const void *pvItemToQueue, const BaseType_t xPosition )
{
 8006244:	b570      	push	{r4, r5, r6, lr}
 8006246:	4604      	mov	r4, r0

	/* This function is called from a critical section. */

	uxMessagesWaiting = pxQueue->uxMessagesWaiting;

	if( pxQueue->uxItemSize == ( UBaseType_t ) 0 )
 8006248:	6c00      	ldr	r0, [r0, #64]	; 0x40
	uxMessagesWaiting = pxQueue->uxMessagesWaiting;
 800624a:	6ba6      	ldr	r6, [r4, #56]	; 0x38
	if( pxQueue->uxItemSize == ( UBaseType_t ) 0 )
 800624c:	b920      	cbnz	r0, 8006258 <prvCopyDataToQueue+0x14>
	{
		#if ( configUSE_MUTEXES == 1 )
		{
			if( pxQueue->uxQueueType == queueQUEUE_IS_MUTEX )
 800624e:	6825      	ldr	r5, [r4, #0]
 8006250:	b35d      	cbz	r5, 80062aa <prvCopyDataToQueue+0x66>
 8006252:	3601      	adds	r6, #1
		{
			mtCOVERAGE_TEST_MARKER();
		}
	}

	pxQueue->uxMessagesWaiting = uxMessagesWaiting + ( UBaseType_t ) 1;
 8006254:	63a6      	str	r6, [r4, #56]	; 0x38

	return xReturn;
}
 8006256:	bd70      	pop	{r4, r5, r6, pc}
	else if( xPosition == queueSEND_TO_BACK )
 8006258:	4615      	mov	r5, r2
		( void ) memcpy( ( void * ) pxQueue->pcWriteTo, pvItemToQueue, ( size_t ) pxQueue->uxItemSize ); /*lint !e961 !e418 !e9087 MISRA exception as the casts are only redundant for some ports, plus previous logic ensures a null pointer can only be passed to memcpy() if the copy size is 0.  Cast to void required by function signature and safe as no alignment requirement and copy length specified in bytes. */
 800625a:	4602      	mov	r2, r0
	else if( xPosition == queueSEND_TO_BACK )
 800625c:	b985      	cbnz	r5, 8006280 <prvCopyDataToQueue+0x3c>
		( void ) memcpy( ( void * ) pxQueue->pcWriteTo, pvItemToQueue, ( size_t ) pxQueue->uxItemSize ); /*lint !e961 !e418 !e9087 MISRA exception as the casts are only redundant for some ports, plus previous logic ensures a null pointer can only be passed to memcpy() if the copy size is 0.  Cast to void required by function signature and safe as no alignment requirement and copy length specified in bytes. */
 800625e:	6860      	ldr	r0, [r4, #4]
 8006260:	f002 f932 	bl	80084c8 <memcpy>
		pxQueue->pcWriteTo += pxQueue->uxItemSize; /*lint !e9016 Pointer arithmetic on char types ok, especially in this use case where it is the clearest way of conveying intent. */
 8006264:	6863      	ldr	r3, [r4, #4]
 8006266:	6c21      	ldr	r1, [r4, #64]	; 0x40
		if( pxQueue->pcWriteTo >= pxQueue->u.xQueue.pcTail ) /*lint !e946 MISRA exception justified as comparison of pointers is the cleanest solution. */
 8006268:	68a2      	ldr	r2, [r4, #8]
		pxQueue->pcWriteTo += pxQueue->uxItemSize; /*lint !e9016 Pointer arithmetic on char types ok, especially in this use case where it is the clearest way of conveying intent. */
 800626a:	440b      	add	r3, r1
		if( pxQueue->pcWriteTo >= pxQueue->u.xQueue.pcTail ) /*lint !e946 MISRA exception justified as comparison of pointers is the cleanest solution. */
 800626c:	4293      	cmp	r3, r2
		pxQueue->pcWriteTo += pxQueue->uxItemSize; /*lint !e9016 Pointer arithmetic on char types ok, especially in this use case where it is the clearest way of conveying intent. */
 800626e:	6063      	str	r3, [r4, #4]
			pxQueue->pcWriteTo = pxQueue->pcHead;
 8006270:	f106 0601 	add.w	r6, r6, #1
 8006274:	bf24      	itt	cs
 8006276:	6823      	ldrcs	r3, [r4, #0]
 8006278:	6063      	strcs	r3, [r4, #4]
BaseType_t xReturn = pdFALSE;
 800627a:	4628      	mov	r0, r5
	pxQueue->uxMessagesWaiting = uxMessagesWaiting + ( UBaseType_t ) 1;
 800627c:	63a6      	str	r6, [r4, #56]	; 0x38
}
 800627e:	bd70      	pop	{r4, r5, r6, pc}
		( void ) memcpy( ( void * ) pxQueue->u.xQueue.pcReadFrom, pvItemToQueue, ( size_t ) pxQueue->uxItemSize ); /*lint !e961 !e9087 !e418 MISRA exception as the casts are only redundant for some ports.  Cast to void required by function signature and safe as no alignment requirement and copy length specified in bytes.  Assert checks null pointer only used when length is 0. */
 8006280:	68e0      	ldr	r0, [r4, #12]
 8006282:	f002 f921 	bl	80084c8 <memcpy>
		pxQueue->u.xQueue.pcReadFrom -= pxQueue->uxItemSize;
 8006286:	6c22      	ldr	r2, [r4, #64]	; 0x40
 8006288:	68e3      	ldr	r3, [r4, #12]
		if( pxQueue->u.xQueue.pcReadFrom < pxQueue->pcHead ) /*lint !e946 MISRA exception justified as comparison of pointers is the cleanest solution. */
 800628a:	6821      	ldr	r1, [r4, #0]
		pxQueue->u.xQueue.pcReadFrom -= pxQueue->uxItemSize;
 800628c:	1a9b      	subs	r3, r3, r2
		if( pxQueue->u.xQueue.pcReadFrom < pxQueue->pcHead ) /*lint !e946 MISRA exception justified as comparison of pointers is the cleanest solution. */
 800628e:	428b      	cmp	r3, r1
		pxQueue->u.xQueue.pcReadFrom -= pxQueue->uxItemSize;
 8006290:	60e3      	str	r3, [r4, #12]
 8006292:	f1c2 0200 	rsb	r2, r2, #0
		if( pxQueue->u.xQueue.pcReadFrom < pxQueue->pcHead ) /*lint !e946 MISRA exception justified as comparison of pointers is the cleanest solution. */
 8006296:	d202      	bcs.n	800629e <prvCopyDataToQueue+0x5a>
			pxQueue->u.xQueue.pcReadFrom = ( pxQueue->u.xQueue.pcTail - pxQueue->uxItemSize );
 8006298:	68a3      	ldr	r3, [r4, #8]
 800629a:	441a      	add	r2, r3
 800629c:	60e2      	str	r2, [r4, #12]
		if( xPosition == queueOVERWRITE )
 800629e:	2d02      	cmp	r5, #2
 80062a0:	d008      	beq.n	80062b4 <prvCopyDataToQueue+0x70>
 80062a2:	3601      	adds	r6, #1
BaseType_t xReturn = pdFALSE;
 80062a4:	2000      	movs	r0, #0
	pxQueue->uxMessagesWaiting = uxMessagesWaiting + ( UBaseType_t ) 1;
 80062a6:	63a6      	str	r6, [r4, #56]	; 0x38
}
 80062a8:	bd70      	pop	{r4, r5, r6, pc}
				xReturn = xTaskPriorityDisinherit( pxQueue->u.xSemaphore.xMutexHolder );
 80062aa:	68a0      	ldr	r0, [r4, #8]
 80062ac:	f001 fac2 	bl	8007834 <xTaskPriorityDisinherit>
				pxQueue->u.xSemaphore.xMutexHolder = NULL;
 80062b0:	60a5      	str	r5, [r4, #8]
 80062b2:	e7ce      	b.n	8006252 <prvCopyDataToQueue+0xe>
			if( uxMessagesWaiting > ( UBaseType_t ) 0 )
 80062b4:	2e01      	cmp	r6, #1
 80062b6:	bf38      	it	cc
 80062b8:	2601      	movcc	r6, #1
BaseType_t xReturn = pdFALSE;
 80062ba:	2000      	movs	r0, #0
 80062bc:	e7ca      	b.n	8006254 <prvCopyDataToQueue+0x10>
 80062be:	bf00      	nop

080062c0 <xQueueGenericCreateStatic>:
	{
 80062c0:	b530      	push	{r4, r5, lr}
 80062c2:	b083      	sub	sp, #12
 80062c4:	f89d 5018 	ldrb.w	r5, [sp, #24]
		configASSERT( uxQueueLength > ( UBaseType_t ) 0 );
 80062c8:	b940      	cbnz	r0, 80062dc <xQueueGenericCreateStatic+0x1c>

portFORCE_INLINE static void vPortRaiseBASEPRI( void )
{
uint32_t ulNewBASEPRI;

	__asm volatile
 80062ca:	f04f 0350 	mov.w	r3, #80	; 0x50
 80062ce:	f383 8811 	msr	BASEPRI, r3
 80062d2:	f3bf 8f6f 	isb	sy
 80062d6:	f3bf 8f4f 	dsb	sy
 80062da:	e7fe      	b.n	80062da <xQueueGenericCreateStatic+0x1a>
		configASSERT( pxStaticQueue != NULL );
 80062dc:	461c      	mov	r4, r3
 80062de:	b1e3      	cbz	r3, 800631a <xQueueGenericCreateStatic+0x5a>
		configASSERT( !( ( pucQueueStorage != NULL ) && ( uxItemSize == 0 ) ) );
 80062e0:	b172      	cbz	r2, 8006300 <xQueueGenericCreateStatic+0x40>
 80062e2:	b319      	cbz	r1, 800632c <xQueueGenericCreateStatic+0x6c>
			volatile size_t xSize = sizeof( StaticQueue_t );
 80062e4:	2350      	movs	r3, #80	; 0x50
 80062e6:	9301      	str	r3, [sp, #4]
			configASSERT( xSize == sizeof( Queue_t ) );
 80062e8:	9b01      	ldr	r3, [sp, #4]
 80062ea:	2b50      	cmp	r3, #80	; 0x50
 80062ec:	d027      	beq.n	800633e <xQueueGenericCreateStatic+0x7e>
 80062ee:	f04f 0350 	mov.w	r3, #80	; 0x50
 80062f2:	f383 8811 	msr	BASEPRI, r3
 80062f6:	f3bf 8f6f 	isb	sy
 80062fa:	f3bf 8f4f 	dsb	sy
 80062fe:	e7fe      	b.n	80062fe <xQueueGenericCreateStatic+0x3e>
		configASSERT( !( ( pucQueueStorage == NULL ) && ( uxItemSize != 0 ) ) );
 8006300:	2900      	cmp	r1, #0
 8006302:	d146      	bne.n	8006392 <xQueueGenericCreateStatic+0xd2>
			volatile size_t xSize = sizeof( StaticQueue_t );
 8006304:	2350      	movs	r3, #80	; 0x50
 8006306:	9301      	str	r3, [sp, #4]
			configASSERT( xSize == sizeof( Queue_t ) );
 8006308:	9b01      	ldr	r3, [sp, #4]
 800630a:	2b50      	cmp	r3, #80	; 0x50
 800630c:	d1ef      	bne.n	80062ee <xQueueGenericCreateStatic+0x2e>
				pxNewQueue->ucStaticallyAllocated = pdTRUE;
 800630e:	2301      	movs	r3, #1
			( void ) xSize; /* Keeps lint quiet when configASSERT() is not defined. */
 8006310:	9a01      	ldr	r2, [sp, #4]
				pxNewQueue->ucStaticallyAllocated = pdTRUE;
 8006312:	f884 3046 	strb.w	r3, [r4, #70]	; 0x46
 8006316:	4622      	mov	r2, r4
 8006318:	e015      	b.n	8006346 <xQueueGenericCreateStatic+0x86>
 800631a:	f04f 0350 	mov.w	r3, #80	; 0x50
 800631e:	f383 8811 	msr	BASEPRI, r3
 8006322:	f3bf 8f6f 	isb	sy
 8006326:	f3bf 8f4f 	dsb	sy
		configASSERT( pxStaticQueue != NULL );
 800632a:	e7fe      	b.n	800632a <xQueueGenericCreateStatic+0x6a>
 800632c:	f04f 0350 	mov.w	r3, #80	; 0x50
 8006330:	f383 8811 	msr	BASEPRI, r3
 8006334:	f3bf 8f6f 	isb	sy
 8006338:	f3bf 8f4f 	dsb	sy
		configASSERT( !( ( pucQueueStorage != NULL ) && ( uxItemSize == 0 ) ) );
 800633c:	e7fe      	b.n	800633c <xQueueGenericCreateStatic+0x7c>
			( void ) xSize; /* Keeps lint quiet when configASSERT() is not defined. */
 800633e:	9b01      	ldr	r3, [sp, #4]
				pxNewQueue->ucStaticallyAllocated = pdTRUE;
 8006340:	2301      	movs	r3, #1
 8006342:	f884 3046 	strb.w	r3, [r4, #70]	; 0x46
	pxNewQueue->uxItemSize = uxItemSize;
 8006346:	e9c4 010f 	strd	r0, r1, [r4, #60]	; 0x3c
 800634a:	6022      	str	r2, [r4, #0]
	taskENTER_CRITICAL();
 800634c:	f001 fe12 	bl	8007f74 <vPortEnterCritical>
		pxQueue->u.xQueue.pcTail = pxQueue->pcHead + ( pxQueue->uxLength * pxQueue->uxItemSize ); /*lint !e9016 Pointer arithmetic allowed on char types, especially when it assists conveying intent. */
 8006350:	e9d4 130f 	ldrd	r1, r3, [r4, #60]	; 0x3c
 8006354:	6822      	ldr	r2, [r4, #0]
		pxQueue->pcWriteTo = pxQueue->pcHead;
 8006356:	6062      	str	r2, [r4, #4]
		pxQueue->u.xQueue.pcTail = pxQueue->pcHead + ( pxQueue->uxLength * pxQueue->uxItemSize ); /*lint !e9016 Pointer arithmetic allowed on char types, especially when it assists conveying intent. */
 8006358:	fb01 f103 	mul.w	r1, r1, r3
		pxQueue->u.xQueue.pcReadFrom = pxQueue->pcHead + ( ( pxQueue->uxLength - 1U ) * pxQueue->uxItemSize ); /*lint !e9016 Pointer arithmetic allowed on char types, especially when it assists conveying intent. */
 800635c:	1acb      	subs	r3, r1, r3
 800635e:	4413      	add	r3, r2
		pxQueue->uxMessagesWaiting = ( UBaseType_t ) 0U;
 8006360:	2000      	movs	r0, #0
		pxQueue->u.xQueue.pcTail = pxQueue->pcHead + ( pxQueue->uxLength * pxQueue->uxItemSize ); /*lint !e9016 Pointer arithmetic allowed on char types, especially when it assists conveying intent. */
 8006362:	440a      	add	r2, r1
		pxQueue->cRxLock = queueUNLOCKED;
 8006364:	21ff      	movs	r1, #255	; 0xff
		pxQueue->uxMessagesWaiting = ( UBaseType_t ) 0U;
 8006366:	63a0      	str	r0, [r4, #56]	; 0x38
		pxQueue->u.xQueue.pcTail = pxQueue->pcHead + ( pxQueue->uxLength * pxQueue->uxItemSize ); /*lint !e9016 Pointer arithmetic allowed on char types, especially when it assists conveying intent. */
 8006368:	e9c4 2302 	strd	r2, r3, [r4, #8]
		pxQueue->cRxLock = queueUNLOCKED;
 800636c:	f884 1044 	strb.w	r1, [r4, #68]	; 0x44
			vListInitialise( &( pxQueue->xTasksWaitingToSend ) );
 8006370:	f104 0010 	add.w	r0, r4, #16
		pxQueue->cTxLock = queueUNLOCKED;
 8006374:	f884 1045 	strb.w	r1, [r4, #69]	; 0x45
			vListInitialise( &( pxQueue->xTasksWaitingToSend ) );
 8006378:	f7ff ff18 	bl	80061ac <vListInitialise>
			vListInitialise( &( pxQueue->xTasksWaitingToReceive ) );
 800637c:	f104 0024 	add.w	r0, r4, #36	; 0x24
 8006380:	f7ff ff14 	bl	80061ac <vListInitialise>
	taskEXIT_CRITICAL();
 8006384:	f001 fe18 	bl	8007fb8 <vPortExitCritical>
	}
 8006388:	4620      	mov	r0, r4
		pxNewQueue->ucQueueType = ucQueueType;
 800638a:	f884 504c 	strb.w	r5, [r4, #76]	; 0x4c
	}
 800638e:	b003      	add	sp, #12
 8006390:	bd30      	pop	{r4, r5, pc}
 8006392:	f04f 0350 	mov.w	r3, #80	; 0x50
 8006396:	f383 8811 	msr	BASEPRI, r3
 800639a:	f3bf 8f6f 	isb	sy
 800639e:	f3bf 8f4f 	dsb	sy
		configASSERT( !( ( pucQueueStorage == NULL ) && ( uxItemSize != 0 ) ) );
 80063a2:	e7fe      	b.n	80063a2 <xQueueGenericCreateStatic+0xe2>

080063a4 <xQueueGenericSend>:
{
 80063a4:	e92d 47f0 	stmdb	sp!, {r4, r5, r6, r7, r8, r9, sl, lr}
 80063a8:	b084      	sub	sp, #16
 80063aa:	9201      	str	r2, [sp, #4]
	configASSERT( pxQueue );
 80063ac:	2800      	cmp	r0, #0
 80063ae:	f000 80ac 	beq.w	800650a <xQueueGenericSend+0x166>
	configASSERT( !( ( pvItemToQueue == NULL ) && ( pxQueue->uxItemSize != ( UBaseType_t ) 0U ) ) );
 80063b2:	4688      	mov	r8, r1
 80063b4:	461f      	mov	r7, r3
 80063b6:	4604      	mov	r4, r0
 80063b8:	2900      	cmp	r1, #0
 80063ba:	f000 8099 	beq.w	80064f0 <xQueueGenericSend+0x14c>
	configASSERT( !( ( xCopyPosition == queueOVERWRITE ) && ( pxQueue->uxLength != 1 ) ) );
 80063be:	2f02      	cmp	r7, #2
 80063c0:	d10b      	bne.n	80063da <xQueueGenericSend+0x36>
 80063c2:	6be3      	ldr	r3, [r4, #60]	; 0x3c
 80063c4:	2b01      	cmp	r3, #1
 80063c6:	d008      	beq.n	80063da <xQueueGenericSend+0x36>
 80063c8:	f04f 0350 	mov.w	r3, #80	; 0x50
 80063cc:	f383 8811 	msr	BASEPRI, r3
 80063d0:	f3bf 8f6f 	isb	sy
 80063d4:	f3bf 8f4f 	dsb	sy
 80063d8:	e7fe      	b.n	80063d8 <xQueueGenericSend+0x34>
		configASSERT( !( ( xTaskGetSchedulerState() == taskSCHEDULER_SUSPENDED ) && ( xTicksToWait != 0 ) ) );
 80063da:	f001 fa1b 	bl	8007814 <xTaskGetSchedulerState>
 80063de:	4682      	mov	sl, r0
 80063e0:	2800      	cmp	r0, #0
 80063e2:	f000 809b 	beq.w	800651c <xQueueGenericSend+0x178>
 80063e6:	f04f 0a00 	mov.w	sl, #0
					portYIELD_WITHIN_API();
 80063ea:	f8df 92c0 	ldr.w	r9, [pc, #704]	; 80066ac <xQueueGenericSend+0x308>
			{
				/* Tasks that are removed from the event list will get added to
				the pending ready list as the scheduler is still suspended. */
				if( listLIST_IS_EMPTY( &( pxQueue->xTasksWaitingToReceive ) ) == pdFALSE )
				{
					if( xTaskRemoveFromEventList( &( pxQueue->xTasksWaitingToReceive ) ) != pdFALSE )
 80063ee:	f104 0624 	add.w	r6, r4, #36	; 0x24
		taskENTER_CRITICAL();
 80063f2:	f001 fdbf 	bl	8007f74 <vPortEnterCritical>
			if( ( pxQueue->uxMessagesWaiting < pxQueue->uxLength ) || ( xCopyPosition == queueOVERWRITE ) )
 80063f6:	6ba2      	ldr	r2, [r4, #56]	; 0x38
 80063f8:	6be3      	ldr	r3, [r4, #60]	; 0x3c
 80063fa:	429a      	cmp	r2, r3
 80063fc:	f0c0 80f4 	bcc.w	80065e8 <xQueueGenericSend+0x244>
 8006400:	2f02      	cmp	r7, #2
 8006402:	f000 80f1 	beq.w	80065e8 <xQueueGenericSend+0x244>
				if( xTicksToWait == ( TickType_t ) 0 )
 8006406:	9d01      	ldr	r5, [sp, #4]
 8006408:	2d00      	cmp	r5, #0
 800640a:	f000 814a 	beq.w	80066a2 <xQueueGenericSend+0x2fe>
					vTaskInternalSetTimeOutState( &xTimeOut );
 800640e:	ad02      	add	r5, sp, #8
				else if( xEntryTimeSet == pdFALSE )
 8006410:	f1ba 0f00 	cmp.w	sl, #0
 8006414:	f000 80e4 	beq.w	80065e0 <xQueueGenericSend+0x23c>
		taskEXIT_CRITICAL();
 8006418:	f001 fdce 	bl	8007fb8 <vPortExitCritical>
		vTaskSuspendAll();
 800641c:	f000 ffb4 	bl	8007388 <vTaskSuspendAll>
		prvLockQueue( pxQueue );
 8006420:	f001 fda8 	bl	8007f74 <vPortEnterCritical>
 8006424:	f894 3044 	ldrb.w	r3, [r4, #68]	; 0x44
 8006428:	2bff      	cmp	r3, #255	; 0xff
 800642a:	bf04      	itt	eq
 800642c:	2300      	moveq	r3, #0
 800642e:	f884 3044 	strbeq.w	r3, [r4, #68]	; 0x44
 8006432:	f894 3045 	ldrb.w	r3, [r4, #69]	; 0x45
 8006436:	2bff      	cmp	r3, #255	; 0xff
 8006438:	bf04      	itt	eq
 800643a:	2300      	moveq	r3, #0
 800643c:	f884 3045 	strbeq.w	r3, [r4, #69]	; 0x45
 8006440:	f001 fdba 	bl	8007fb8 <vPortExitCritical>
		if( xTaskCheckForTimeOut( &xTimeOut, &xTicksToWait ) == pdFALSE )
 8006444:	4628      	mov	r0, r5
 8006446:	a901      	add	r1, sp, #4
 8006448:	f001 f974 	bl	8007734 <xTaskCheckForTimeOut>
 800644c:	2800      	cmp	r0, #0
 800644e:	f040 80e8 	bne.w	8006622 <xQueueGenericSend+0x27e>

static BaseType_t prvIsQueueFull( const Queue_t *pxQueue )
{
BaseType_t xReturn;

	taskENTER_CRITICAL();
 8006452:	f001 fd8f 	bl	8007f74 <vPortEnterCritical>
	{
		if( pxQueue->uxMessagesWaiting == pxQueue->uxLength )
 8006456:	6ba2      	ldr	r2, [r4, #56]	; 0x38
 8006458:	6be3      	ldr	r3, [r4, #60]	; 0x3c
 800645a:	429a      	cmp	r2, r3
 800645c:	d06b      	beq.n	8006536 <xQueueGenericSend+0x192>
		else
		{
			xReturn = pdFALSE;
		}
	}
	taskEXIT_CRITICAL();
 800645e:	f001 fdab 	bl	8007fb8 <vPortExitCritical>
	taskENTER_CRITICAL();
 8006462:	f001 fd87 	bl	8007f74 <vPortEnterCritical>
		int8_t cTxLock = pxQueue->cTxLock;
 8006466:	f894 5045 	ldrb.w	r5, [r4, #69]	; 0x45
 800646a:	b26d      	sxtb	r5, r5
		while( cTxLock > queueLOCKED_UNMODIFIED )
 800646c:	2d00      	cmp	r5, #0
 800646e:	dc05      	bgt.n	800647c <xQueueGenericSend+0xd8>
 8006470:	e012      	b.n	8006498 <xQueueGenericSend+0xf4>
			--cTxLock;
 8006472:	1e6b      	subs	r3, r5, #1
		while( cTxLock > queueLOCKED_UNMODIFIED )
 8006474:	f013 0fff 	tst.w	r3, #255	; 0xff
 8006478:	b25d      	sxtb	r5, r3
 800647a:	d00d      	beq.n	8006498 <xQueueGenericSend+0xf4>
				if( listLIST_IS_EMPTY( &( pxQueue->xTasksWaitingToReceive ) ) == pdFALSE )
 800647c:	6a63      	ldr	r3, [r4, #36]	; 0x24
					if( xTaskRemoveFromEventList( &( pxQueue->xTasksWaitingToReceive ) ) != pdFALSE )
 800647e:	4630      	mov	r0, r6
				if( listLIST_IS_EMPTY( &( pxQueue->xTasksWaitingToReceive ) ) == pdFALSE )
 8006480:	b153      	cbz	r3, 8006498 <xQueueGenericSend+0xf4>
					if( xTaskRemoveFromEventList( &( pxQueue->xTasksWaitingToReceive ) ) != pdFALSE )
 8006482:	f001 f903 	bl	800768c <xTaskRemoveFromEventList>
 8006486:	2800      	cmp	r0, #0
 8006488:	d0f3      	beq.n	8006472 <xQueueGenericSend+0xce>
						vTaskMissedYield();
 800648a:	f001 f9a3 	bl	80077d4 <vTaskMissedYield>
			--cTxLock;
 800648e:	1e6b      	subs	r3, r5, #1
		while( cTxLock > queueLOCKED_UNMODIFIED )
 8006490:	f013 0fff 	tst.w	r3, #255	; 0xff
 8006494:	b25d      	sxtb	r5, r3
 8006496:	d1f1      	bne.n	800647c <xQueueGenericSend+0xd8>
		pxQueue->cTxLock = queueUNLOCKED;
 8006498:	23ff      	movs	r3, #255	; 0xff
 800649a:	f884 3045 	strb.w	r3, [r4, #69]	; 0x45
	taskEXIT_CRITICAL();
 800649e:	f001 fd8b 	bl	8007fb8 <vPortExitCritical>
	taskENTER_CRITICAL();
 80064a2:	f001 fd67 	bl	8007f74 <vPortEnterCritical>
		int8_t cRxLock = pxQueue->cRxLock;
 80064a6:	f894 5044 	ldrb.w	r5, [r4, #68]	; 0x44
 80064aa:	b26d      	sxtb	r5, r5
		while( cRxLock > queueLOCKED_UNMODIFIED )
 80064ac:	2d00      	cmp	r5, #0
 80064ae:	dd15      	ble.n	80064dc <xQueueGenericSend+0x138>
				if( xTaskRemoveFromEventList( &( pxQueue->xTasksWaitingToSend ) ) != pdFALSE )
 80064b0:	f104 0a10 	add.w	sl, r4, #16
 80064b4:	e004      	b.n	80064c0 <xQueueGenericSend+0x11c>
				--cRxLock;
 80064b6:	1e6b      	subs	r3, r5, #1
		while( cRxLock > queueLOCKED_UNMODIFIED )
 80064b8:	f013 0fff 	tst.w	r3, #255	; 0xff
 80064bc:	b25d      	sxtb	r5, r3
 80064be:	d00d      	beq.n	80064dc <xQueueGenericSend+0x138>
			if( listLIST_IS_EMPTY( &( pxQueue->xTasksWaitingToSend ) ) == pdFALSE )
 80064c0:	6923      	ldr	r3, [r4, #16]
				if( xTaskRemoveFromEventList( &( pxQueue->xTasksWaitingToSend ) ) != pdFALSE )
 80064c2:	4650      	mov	r0, sl
			if( listLIST_IS_EMPTY( &( pxQueue->xTasksWaitingToSend ) ) == pdFALSE )
 80064c4:	b153      	cbz	r3, 80064dc <xQueueGenericSend+0x138>
				if( xTaskRemoveFromEventList( &( pxQueue->xTasksWaitingToSend ) ) != pdFALSE )
 80064c6:	f001 f8e1 	bl	800768c <xTaskRemoveFromEventList>
 80064ca:	2800      	cmp	r0, #0
 80064cc:	d0f3      	beq.n	80064b6 <xQueueGenericSend+0x112>
					vTaskMissedYield();
 80064ce:	f001 f981 	bl	80077d4 <vTaskMissedYield>
				--cRxLock;
 80064d2:	1e6b      	subs	r3, r5, #1
		while( cRxLock > queueLOCKED_UNMODIFIED )
 80064d4:	f013 0fff 	tst.w	r3, #255	; 0xff
 80064d8:	b25d      	sxtb	r5, r3
 80064da:	d1f1      	bne.n	80064c0 <xQueueGenericSend+0x11c>
		pxQueue->cRxLock = queueUNLOCKED;
 80064dc:	23ff      	movs	r3, #255	; 0xff
 80064de:	f884 3044 	strb.w	r3, [r4, #68]	; 0x44
	taskEXIT_CRITICAL();
 80064e2:	f001 fd69 	bl	8007fb8 <vPortExitCritical>
				( void ) xTaskResumeAll();
 80064e6:	f000 ff57 	bl	8007398 <xTaskResumeAll>
 80064ea:	f04f 0a01 	mov.w	sl, #1
 80064ee:	e780      	b.n	80063f2 <xQueueGenericSend+0x4e>
	configASSERT( !( ( pvItemToQueue == NULL ) && ( pxQueue->uxItemSize != ( UBaseType_t ) 0U ) ) );
 80064f0:	6c03      	ldr	r3, [r0, #64]	; 0x40
 80064f2:	2b00      	cmp	r3, #0
 80064f4:	f43f af63 	beq.w	80063be <xQueueGenericSend+0x1a>
 80064f8:	f04f 0350 	mov.w	r3, #80	; 0x50
 80064fc:	f383 8811 	msr	BASEPRI, r3
 8006500:	f3bf 8f6f 	isb	sy
 8006504:	f3bf 8f4f 	dsb	sy
 8006508:	e7fe      	b.n	8006508 <xQueueGenericSend+0x164>
 800650a:	f04f 0350 	mov.w	r3, #80	; 0x50
 800650e:	f383 8811 	msr	BASEPRI, r3
 8006512:	f3bf 8f6f 	isb	sy
 8006516:	f3bf 8f4f 	dsb	sy
	configASSERT( pxQueue );
 800651a:	e7fe      	b.n	800651a <xQueueGenericSend+0x176>
		configASSERT( !( ( xTaskGetSchedulerState() == taskSCHEDULER_SUSPENDED ) && ( xTicksToWait != 0 ) ) );
 800651c:	9b01      	ldr	r3, [sp, #4]
 800651e:	2b00      	cmp	r3, #0
 8006520:	f43f af63 	beq.w	80063ea <xQueueGenericSend+0x46>
 8006524:	f04f 0350 	mov.w	r3, #80	; 0x50
 8006528:	f383 8811 	msr	BASEPRI, r3
 800652c:	f3bf 8f6f 	isb	sy
 8006530:	f3bf 8f4f 	dsb	sy
 8006534:	e7fe      	b.n	8006534 <xQueueGenericSend+0x190>
				vTaskPlaceOnEventList( &( pxQueue->xTasksWaitingToSend ), xTicksToWait );
 8006536:	f104 0a10 	add.w	sl, r4, #16
	taskEXIT_CRITICAL();
 800653a:	f001 fd3d 	bl	8007fb8 <vPortExitCritical>
				vTaskPlaceOnEventList( &( pxQueue->xTasksWaitingToSend ), xTicksToWait );
 800653e:	9901      	ldr	r1, [sp, #4]
 8006540:	4650      	mov	r0, sl
 8006542:	f001 f80b 	bl	800755c <vTaskPlaceOnEventList>
	taskENTER_CRITICAL();
 8006546:	f001 fd15 	bl	8007f74 <vPortEnterCritical>
		int8_t cTxLock = pxQueue->cTxLock;
 800654a:	f894 5045 	ldrb.w	r5, [r4, #69]	; 0x45
 800654e:	b26d      	sxtb	r5, r5
		while( cTxLock > queueLOCKED_UNMODIFIED )
 8006550:	2d00      	cmp	r5, #0
 8006552:	dc05      	bgt.n	8006560 <xQueueGenericSend+0x1bc>
 8006554:	e012      	b.n	800657c <xQueueGenericSend+0x1d8>
			--cTxLock;
 8006556:	1e6b      	subs	r3, r5, #1
		while( cTxLock > queueLOCKED_UNMODIFIED )
 8006558:	f013 0fff 	tst.w	r3, #255	; 0xff
 800655c:	b25d      	sxtb	r5, r3
 800655e:	d00d      	beq.n	800657c <xQueueGenericSend+0x1d8>
				if( listLIST_IS_EMPTY( &( pxQueue->xTasksWaitingToReceive ) ) == pdFALSE )
 8006560:	6a63      	ldr	r3, [r4, #36]	; 0x24
					if( xTaskRemoveFromEventList( &( pxQueue->xTasksWaitingToReceive ) ) != pdFALSE )
 8006562:	4630      	mov	r0, r6
				if( listLIST_IS_EMPTY( &( pxQueue->xTasksWaitingToReceive ) ) == pdFALSE )
 8006564:	b153      	cbz	r3, 800657c <xQueueGenericSend+0x1d8>
					if( xTaskRemoveFromEventList( &( pxQueue->xTasksWaitingToReceive ) ) != pdFALSE )
 8006566:	f001 f891 	bl	800768c <xTaskRemoveFromEventList>
 800656a:	2800      	cmp	r0, #0
 800656c:	d0f3      	beq.n	8006556 <xQueueGenericSend+0x1b2>
						vTaskMissedYield();
 800656e:	f001 f931 	bl	80077d4 <vTaskMissedYield>
			--cTxLock;
 8006572:	1e6b      	subs	r3, r5, #1
		while( cTxLock > queueLOCKED_UNMODIFIED )
 8006574:	f013 0fff 	tst.w	r3, #255	; 0xff
 8006578:	b25d      	sxtb	r5, r3
 800657a:	d1f1      	bne.n	8006560 <xQueueGenericSend+0x1bc>
		pxQueue->cTxLock = queueUNLOCKED;
 800657c:	23ff      	movs	r3, #255	; 0xff
 800657e:	f884 3045 	strb.w	r3, [r4, #69]	; 0x45
	taskEXIT_CRITICAL();
 8006582:	f001 fd19 	bl	8007fb8 <vPortExitCritical>
	taskENTER_CRITICAL();
 8006586:	f001 fcf5 	bl	8007f74 <vPortEnterCritical>
		int8_t cRxLock = pxQueue->cRxLock;
 800658a:	f894 5044 	ldrb.w	r5, [r4, #68]	; 0x44
 800658e:	b26d      	sxtb	r5, r5
		while( cRxLock > queueLOCKED_UNMODIFIED )
 8006590:	2d00      	cmp	r5, #0
 8006592:	dc05      	bgt.n	80065a0 <xQueueGenericSend+0x1fc>
 8006594:	e012      	b.n	80065bc <xQueueGenericSend+0x218>
				--cRxLock;
 8006596:	1e6b      	subs	r3, r5, #1
		while( cRxLock > queueLOCKED_UNMODIFIED )
 8006598:	f013 0fff 	tst.w	r3, #255	; 0xff
 800659c:	b25d      	sxtb	r5, r3
 800659e:	d00d      	beq.n	80065bc <xQueueGenericSend+0x218>
			if( listLIST_IS_EMPTY( &( pxQueue->xTasksWaitingToSend ) ) == pdFALSE )
 80065a0:	6923      	ldr	r3, [r4, #16]
				if( xTaskRemoveFromEventList( &( pxQueue->xTasksWaitingToSend ) ) != pdFALSE )
 80065a2:	4650      	mov	r0, sl
			if( listLIST_IS_EMPTY( &( pxQueue->xTasksWaitingToSend ) ) == pdFALSE )
 80065a4:	b153      	cbz	r3, 80065bc <xQueueGenericSend+0x218>
				if( xTaskRemoveFromEventList( &( pxQueue->xTasksWaitingToSend ) ) != pdFALSE )
 80065a6:	f001 f871 	bl	800768c <xTaskRemoveFromEventList>
 80065aa:	2800      	cmp	r0, #0
 80065ac:	d0f3      	beq.n	8006596 <xQueueGenericSend+0x1f2>
					vTaskMissedYield();
 80065ae:	f001 f911 	bl	80077d4 <vTaskMissedYield>
				--cRxLock;
 80065b2:	1e6b      	subs	r3, r5, #1
		while( cRxLock > queueLOCKED_UNMODIFIED )
 80065b4:	f013 0fff 	tst.w	r3, #255	; 0xff
 80065b8:	b25d      	sxtb	r5, r3
 80065ba:	d1f1      	bne.n	80065a0 <xQueueGenericSend+0x1fc>
		pxQueue->cRxLock = queueUNLOCKED;
 80065bc:	23ff      	movs	r3, #255	; 0xff
 80065be:	f884 3044 	strb.w	r3, [r4, #68]	; 0x44
	taskEXIT_CRITICAL();
 80065c2:	f001 fcf9 	bl	8007fb8 <vPortExitCritical>
				if( xTaskResumeAll() == pdFALSE )
 80065c6:	f000 fee7 	bl	8007398 <xTaskResumeAll>
 80065ca:	2800      	cmp	r0, #0
 80065cc:	d18d      	bne.n	80064ea <xQueueGenericSend+0x146>
					portYIELD_WITHIN_API();
 80065ce:	f04f 5380 	mov.w	r3, #268435456	; 0x10000000
 80065d2:	f8c9 3000 	str.w	r3, [r9]
 80065d6:	f3bf 8f4f 	dsb	sy
 80065da:	f3bf 8f6f 	isb	sy
 80065de:	e784      	b.n	80064ea <xQueueGenericSend+0x146>
					vTaskInternalSetTimeOutState( &xTimeOut );
 80065e0:	4628      	mov	r0, r5
 80065e2:	f001 f89b 	bl	800771c <vTaskInternalSetTimeOutState>
					xEntryTimeSet = pdTRUE;
 80065e6:	e717      	b.n	8006418 <xQueueGenericSend+0x74>
					xYieldRequired = prvCopyDataToQueue( pxQueue, pvItemToQueue, xCopyPosition );
 80065e8:	463a      	mov	r2, r7
 80065ea:	4641      	mov	r1, r8
 80065ec:	4620      	mov	r0, r4
 80065ee:	f7ff fe29 	bl	8006244 <prvCopyDataToQueue>
					if( listLIST_IS_EMPTY( &( pxQueue->xTasksWaitingToReceive ) ) == pdFALSE )
 80065f2:	6a63      	ldr	r3, [r4, #36]	; 0x24
 80065f4:	b973      	cbnz	r3, 8006614 <xQueueGenericSend+0x270>
					else if( xYieldRequired != pdFALSE )
 80065f6:	b138      	cbz	r0, 8006608 <xQueueGenericSend+0x264>
						queueYIELD_IF_USING_PREEMPTION();
 80065f8:	4b2c      	ldr	r3, [pc, #176]	; (80066ac <xQueueGenericSend+0x308>)
 80065fa:	f04f 5280 	mov.w	r2, #268435456	; 0x10000000
 80065fe:	601a      	str	r2, [r3, #0]
 8006600:	f3bf 8f4f 	dsb	sy
 8006604:	f3bf 8f6f 	isb	sy
				taskEXIT_CRITICAL();
 8006608:	f001 fcd6 	bl	8007fb8 <vPortExitCritical>
				return pdPASS;
 800660c:	2001      	movs	r0, #1
}
 800660e:	b004      	add	sp, #16
 8006610:	e8bd 87f0 	ldmia.w	sp!, {r4, r5, r6, r7, r8, r9, sl, pc}
						if( xTaskRemoveFromEventList( &( pxQueue->xTasksWaitingToReceive ) ) != pdFALSE )
 8006614:	f104 0024 	add.w	r0, r4, #36	; 0x24
 8006618:	f001 f838 	bl	800768c <xTaskRemoveFromEventList>
 800661c:	2800      	cmp	r0, #0
 800661e:	d0f3      	beq.n	8006608 <xQueueGenericSend+0x264>
 8006620:	e7ea      	b.n	80065f8 <xQueueGenericSend+0x254>
	taskENTER_CRITICAL();
 8006622:	f001 fca7 	bl	8007f74 <vPortEnterCritical>
		int8_t cTxLock = pxQueue->cTxLock;
 8006626:	f894 5045 	ldrb.w	r5, [r4, #69]	; 0x45
 800662a:	b26d      	sxtb	r5, r5
		while( cTxLock > queueLOCKED_UNMODIFIED )
 800662c:	2d00      	cmp	r5, #0
 800662e:	dd11      	ble.n	8006654 <xQueueGenericSend+0x2b0>
					if( xTaskRemoveFromEventList( &( pxQueue->xTasksWaitingToReceive ) ) != pdFALSE )
 8006630:	f104 0624 	add.w	r6, r4, #36	; 0x24
 8006634:	e004      	b.n	8006640 <xQueueGenericSend+0x29c>
			--cTxLock;
 8006636:	1e6b      	subs	r3, r5, #1
		while( cTxLock > queueLOCKED_UNMODIFIED )
 8006638:	f013 0fff 	tst.w	r3, #255	; 0xff
 800663c:	b25d      	sxtb	r5, r3
 800663e:	d009      	beq.n	8006654 <xQueueGenericSend+0x2b0>
				if( listLIST_IS_EMPTY( &( pxQueue->xTasksWaitingToReceive ) ) == pdFALSE )
 8006640:	6a63      	ldr	r3, [r4, #36]	; 0x24
					if( xTaskRemoveFromEventList( &( pxQueue->xTasksWaitingToReceive ) ) != pdFALSE )
 8006642:	4630      	mov	r0, r6
				if( listLIST_IS_EMPTY( &( pxQueue->xTasksWaitingToReceive ) ) == pdFALSE )
 8006644:	b133      	cbz	r3, 8006654 <xQueueGenericSend+0x2b0>
					if( xTaskRemoveFromEventList( &( pxQueue->xTasksWaitingToReceive ) ) != pdFALSE )
 8006646:	f001 f821 	bl	800768c <xTaskRemoveFromEventList>
 800664a:	2800      	cmp	r0, #0
 800664c:	d0f3      	beq.n	8006636 <xQueueGenericSend+0x292>
						vTaskMissedYield();
 800664e:	f001 f8c1 	bl	80077d4 <vTaskMissedYield>
 8006652:	e7f0      	b.n	8006636 <xQueueGenericSend+0x292>
		pxQueue->cTxLock = queueUNLOCKED;
 8006654:	23ff      	movs	r3, #255	; 0xff
 8006656:	f884 3045 	strb.w	r3, [r4, #69]	; 0x45
	taskEXIT_CRITICAL();
 800665a:	f001 fcad 	bl	8007fb8 <vPortExitCritical>
	taskENTER_CRITICAL();
 800665e:	f001 fc89 	bl	8007f74 <vPortEnterCritical>
		int8_t cRxLock = pxQueue->cRxLock;
 8006662:	f894 5044 	ldrb.w	r5, [r4, #68]	; 0x44
 8006666:	b26d      	sxtb	r5, r5
		while( cRxLock > queueLOCKED_UNMODIFIED )
 8006668:	2d00      	cmp	r5, #0
 800666a:	dd11      	ble.n	8006690 <xQueueGenericSend+0x2ec>
				if( xTaskRemoveFromEventList( &( pxQueue->xTasksWaitingToSend ) ) != pdFALSE )
 800666c:	f104 0610 	add.w	r6, r4, #16
 8006670:	e004      	b.n	800667c <xQueueGenericSend+0x2d8>
				--cRxLock;
 8006672:	1e6b      	subs	r3, r5, #1
		while( cRxLock > queueLOCKED_UNMODIFIED )
 8006674:	f013 0fff 	tst.w	r3, #255	; 0xff
 8006678:	b25d      	sxtb	r5, r3
 800667a:	d009      	beq.n	8006690 <xQueueGenericSend+0x2ec>
			if( listLIST_IS_EMPTY( &( pxQueue->xTasksWaitingToSend ) ) == pdFALSE )
 800667c:	6923      	ldr	r3, [r4, #16]
				if( xTaskRemoveFromEventList( &( pxQueue->xTasksWaitingToSend ) ) != pdFALSE )
 800667e:	4630      	mov	r0, r6
			if( listLIST_IS_EMPTY( &( pxQueue->xTasksWaitingToSend ) ) == pdFALSE )
 8006680:	b133      	cbz	r3, 8006690 <xQueueGenericSend+0x2ec>
				if( xTaskRemoveFromEventList( &( pxQueue->xTasksWaitingToSend ) ) != pdFALSE )
 8006682:	f001 f803 	bl	800768c <xTaskRemoveFromEventList>
 8006686:	2800      	cmp	r0, #0
 8006688:	d0f3      	beq.n	8006672 <xQueueGenericSend+0x2ce>
					vTaskMissedYield();
 800668a:	f001 f8a3 	bl	80077d4 <vTaskMissedYield>
 800668e:	e7f0      	b.n	8006672 <xQueueGenericSend+0x2ce>
		pxQueue->cRxLock = queueUNLOCKED;
 8006690:	23ff      	movs	r3, #255	; 0xff
 8006692:	f884 3044 	strb.w	r3, [r4, #68]	; 0x44
	taskEXIT_CRITICAL();
 8006696:	f001 fc8f 	bl	8007fb8 <vPortExitCritical>
			( void ) xTaskResumeAll();
 800669a:	f000 fe7d 	bl	8007398 <xTaskResumeAll>
			return errQUEUE_FULL;
 800669e:	2000      	movs	r0, #0
 80066a0:	e7b5      	b.n	800660e <xQueueGenericSend+0x26a>
					taskEXIT_CRITICAL();
 80066a2:	f001 fc89 	bl	8007fb8 <vPortExitCritical>
					return errQUEUE_FULL;
 80066a6:	4628      	mov	r0, r5
 80066a8:	e7b1      	b.n	800660e <xQueueGenericSend+0x26a>
 80066aa:	bf00      	nop
 80066ac:	e000ed04 	.word	0xe000ed04

080066b0 <xQueueReceive>:
{
 80066b0:	e92d 43f0 	stmdb	sp!, {r4, r5, r6, r7, r8, r9, lr}
 80066b4:	b085      	sub	sp, #20
 80066b6:	9201      	str	r2, [sp, #4]
	configASSERT( ( pxQueue ) );
 80066b8:	2800      	cmp	r0, #0
 80066ba:	f000 80f5 	beq.w	80068a8 <xQueueReceive+0x1f8>
	configASSERT( !( ( ( pvBuffer ) == NULL ) && ( ( pxQueue )->uxItemSize != ( UBaseType_t ) 0U ) ) );
 80066be:	460e      	mov	r6, r1
 80066c0:	4604      	mov	r4, r0
 80066c2:	2900      	cmp	r1, #0
 80066c4:	f000 808a 	beq.w	80067dc <xQueueReceive+0x12c>
		configASSERT( !( ( xTaskGetSchedulerState() == taskSCHEDULER_SUSPENDED ) && ( xTicksToWait != 0 ) ) );
 80066c8:	f001 f8a4 	bl	8007814 <xTaskGetSchedulerState>
 80066cc:	2800      	cmp	r0, #0
 80066ce:	d079      	beq.n	80067c4 <xQueueReceive+0x114>
		taskENTER_CRITICAL();
 80066d0:	f001 fc50 	bl	8007f74 <vPortEnterCritical>
			const UBaseType_t uxMessagesWaiting = pxQueue->uxMessagesWaiting;
 80066d4:	6ba5      	ldr	r5, [r4, #56]	; 0x38
			if( uxMessagesWaiting > ( UBaseType_t ) 0 )
 80066d6:	2d00      	cmp	r5, #0
 80066d8:	f040 8148 	bne.w	800696c <xQueueReceive+0x2bc>
				if( xTicksToWait == ( TickType_t ) 0 )
 80066dc:	9b01      	ldr	r3, [sp, #4]
 80066de:	2b00      	cmp	r3, #0
 80066e0:	f000 80dc 	beq.w	800689c <xQueueReceive+0x1ec>
					vTaskInternalSetTimeOutState( &xTimeOut );
 80066e4:	a802      	add	r0, sp, #8
 80066e6:	f001 f819 	bl	800771c <vTaskInternalSetTimeOutState>
					portYIELD_WITHIN_API();
 80066ea:	f8df 82c8 	ldr.w	r8, [pc, #712]	; 80069b4 <xQueueReceive+0x304>
					if( xTaskRemoveFromEventList( &( pxQueue->xTasksWaitingToReceive ) ) != pdFALSE )
 80066ee:	f104 0724 	add.w	r7, r4, #36	; 0x24
		taskEXIT_CRITICAL();
 80066f2:	f001 fc61 	bl	8007fb8 <vPortExitCritical>
		vTaskSuspendAll();
 80066f6:	f000 fe47 	bl	8007388 <vTaskSuspendAll>
		prvLockQueue( pxQueue );
 80066fa:	f001 fc3b 	bl	8007f74 <vPortEnterCritical>
 80066fe:	f894 3044 	ldrb.w	r3, [r4, #68]	; 0x44
 8006702:	2bff      	cmp	r3, #255	; 0xff
 8006704:	bf04      	itt	eq
 8006706:	2300      	moveq	r3, #0
 8006708:	f884 3044 	strbeq.w	r3, [r4, #68]	; 0x44
 800670c:	f894 3045 	ldrb.w	r3, [r4, #69]	; 0x45
 8006710:	2bff      	cmp	r3, #255	; 0xff
 8006712:	bf04      	itt	eq
 8006714:	2300      	moveq	r3, #0
 8006716:	f884 3045 	strbeq.w	r3, [r4, #69]	; 0x45
 800671a:	f001 fc4d 	bl	8007fb8 <vPortExitCritical>
		if( xTaskCheckForTimeOut( &xTimeOut, &xTicksToWait ) == pdFALSE )
 800671e:	a901      	add	r1, sp, #4
 8006720:	a802      	add	r0, sp, #8
 8006722:	f001 f807 	bl	8007734 <xTaskCheckForTimeOut>
 8006726:	2800      	cmp	r0, #0
 8006728:	d165      	bne.n	80067f6 <xQueueReceive+0x146>
	taskENTER_CRITICAL();
 800672a:	f001 fc23 	bl	8007f74 <vPortEnterCritical>
		if( pxQueue->uxMessagesWaiting == ( UBaseType_t )  0 )
 800672e:	6ba3      	ldr	r3, [r4, #56]	; 0x38
 8006730:	2b00      	cmp	r3, #0
 8006732:	f000 80c2 	beq.w	80068ba <xQueueReceive+0x20a>
	taskEXIT_CRITICAL();
 8006736:	f001 fc3f 	bl	8007fb8 <vPortExitCritical>
	taskENTER_CRITICAL();
 800673a:	f001 fc1b 	bl	8007f74 <vPortEnterCritical>
		int8_t cTxLock = pxQueue->cTxLock;
 800673e:	f894 5045 	ldrb.w	r5, [r4, #69]	; 0x45
 8006742:	b26d      	sxtb	r5, r5
		while( cTxLock > queueLOCKED_UNMODIFIED )
 8006744:	2d00      	cmp	r5, #0
 8006746:	dc05      	bgt.n	8006754 <xQueueReceive+0xa4>
 8006748:	e012      	b.n	8006770 <xQueueReceive+0xc0>
			--cTxLock;
 800674a:	1e6b      	subs	r3, r5, #1
		while( cTxLock > queueLOCKED_UNMODIFIED )
 800674c:	f013 0fff 	tst.w	r3, #255	; 0xff
 8006750:	b25d      	sxtb	r5, r3
 8006752:	d00d      	beq.n	8006770 <xQueueReceive+0xc0>
				if( listLIST_IS_EMPTY( &( pxQueue->xTasksWaitingToReceive ) ) == pdFALSE )
 8006754:	6a63      	ldr	r3, [r4, #36]	; 0x24
					if( xTaskRemoveFromEventList( &( pxQueue->xTasksWaitingToReceive ) ) != pdFALSE )
 8006756:	4638      	mov	r0, r7
				if( listLIST_IS_EMPTY( &( pxQueue->xTasksWaitingToReceive ) ) == pdFALSE )
 8006758:	b153      	cbz	r3, 8006770 <xQueueReceive+0xc0>
					if( xTaskRemoveFromEventList( &( pxQueue->xTasksWaitingToReceive ) ) != pdFALSE )
 800675a:	f000 ff97 	bl	800768c <xTaskRemoveFromEventList>
 800675e:	2800      	cmp	r0, #0
 8006760:	d0f3      	beq.n	800674a <xQueueReceive+0x9a>
						vTaskMissedYield();
 8006762:	f001 f837 	bl	80077d4 <vTaskMissedYield>
			--cTxLock;
 8006766:	1e6b      	subs	r3, r5, #1
		while( cTxLock > queueLOCKED_UNMODIFIED )
 8006768:	f013 0fff 	tst.w	r3, #255	; 0xff
 800676c:	b25d      	sxtb	r5, r3
 800676e:	d1f1      	bne.n	8006754 <xQueueReceive+0xa4>
		pxQueue->cTxLock = queueUNLOCKED;
 8006770:	23ff      	movs	r3, #255	; 0xff
 8006772:	f884 3045 	strb.w	r3, [r4, #69]	; 0x45
	taskEXIT_CRITICAL();
 8006776:	f001 fc1f 	bl	8007fb8 <vPortExitCritical>
	taskENTER_CRITICAL();
 800677a:	f001 fbfb 	bl	8007f74 <vPortEnterCritical>
		int8_t cRxLock = pxQueue->cRxLock;
 800677e:	f894 5044 	ldrb.w	r5, [r4, #68]	; 0x44
 8006782:	b26d      	sxtb	r5, r5
		while( cRxLock > queueLOCKED_UNMODIFIED )
 8006784:	2d00      	cmp	r5, #0
 8006786:	dd15      	ble.n	80067b4 <xQueueReceive+0x104>
				if( xTaskRemoveFromEventList( &( pxQueue->xTasksWaitingToSend ) ) != pdFALSE )
 8006788:	f104 0910 	add.w	r9, r4, #16
 800678c:	e004      	b.n	8006798 <xQueueReceive+0xe8>
				--cRxLock;
 800678e:	1e6b      	subs	r3, r5, #1
		while( cRxLock > queueLOCKED_UNMODIFIED )
 8006790:	f013 0fff 	tst.w	r3, #255	; 0xff
 8006794:	b25d      	sxtb	r5, r3
 8006796:	d00d      	beq.n	80067b4 <xQueueReceive+0x104>
			if( listLIST_IS_EMPTY( &( pxQueue->xTasksWaitingToSend ) ) == pdFALSE )
 8006798:	6923      	ldr	r3, [r4, #16]
				if( xTaskRemoveFromEventList( &( pxQueue->xTasksWaitingToSend ) ) != pdFALSE )
 800679a:	4648      	mov	r0, r9
			if( listLIST_IS_EMPTY( &( pxQueue->xTasksWaitingToSend ) ) == pdFALSE )
 800679c:	b153      	cbz	r3, 80067b4 <xQueueReceive+0x104>
				if( xTaskRemoveFromEventList( &( pxQueue->xTasksWaitingToSend ) ) != pdFALSE )
 800679e:	f000 ff75 	bl	800768c <xTaskRemoveFromEventList>
 80067a2:	2800      	cmp	r0, #0
 80067a4:	d0f3      	beq.n	800678e <xQueueReceive+0xde>
					vTaskMissedYield();
 80067a6:	f001 f815 	bl	80077d4 <vTaskMissedYield>
				--cRxLock;
 80067aa:	1e6b      	subs	r3, r5, #1
		while( cRxLock > queueLOCKED_UNMODIFIED )
 80067ac:	f013 0fff 	tst.w	r3, #255	; 0xff
 80067b0:	b25d      	sxtb	r5, r3
 80067b2:	d1f1      	bne.n	8006798 <xQueueReceive+0xe8>
		pxQueue->cRxLock = queueUNLOCKED;
 80067b4:	23ff      	movs	r3, #255	; 0xff
 80067b6:	f884 3044 	strb.w	r3, [r4, #68]	; 0x44
	taskEXIT_CRITICAL();
 80067ba:	f001 fbfd 	bl	8007fb8 <vPortExitCritical>
				( void ) xTaskResumeAll();
 80067be:	f000 fdeb 	bl	8007398 <xTaskResumeAll>
		taskENTER_CRITICAL();
 80067c2:	e062      	b.n	800688a <xQueueReceive+0x1da>
		configASSERT( !( ( xTaskGetSchedulerState() == taskSCHEDULER_SUSPENDED ) && ( xTicksToWait != 0 ) ) );
 80067c4:	9b01      	ldr	r3, [sp, #4]
 80067c6:	2b00      	cmp	r3, #0
 80067c8:	d082      	beq.n	80066d0 <xQueueReceive+0x20>
 80067ca:	f04f 0350 	mov.w	r3, #80	; 0x50
 80067ce:	f383 8811 	msr	BASEPRI, r3
 80067d2:	f3bf 8f6f 	isb	sy
 80067d6:	f3bf 8f4f 	dsb	sy
 80067da:	e7fe      	b.n	80067da <xQueueReceive+0x12a>
	configASSERT( !( ( ( pvBuffer ) == NULL ) && ( ( pxQueue )->uxItemSize != ( UBaseType_t ) 0U ) ) );
 80067dc:	6c03      	ldr	r3, [r0, #64]	; 0x40
 80067de:	2b00      	cmp	r3, #0
 80067e0:	f43f af72 	beq.w	80066c8 <xQueueReceive+0x18>
 80067e4:	f04f 0350 	mov.w	r3, #80	; 0x50
 80067e8:	f383 8811 	msr	BASEPRI, r3
 80067ec:	f3bf 8f6f 	isb	sy
 80067f0:	f3bf 8f4f 	dsb	sy
 80067f4:	e7fe      	b.n	80067f4 <xQueueReceive+0x144>
	taskENTER_CRITICAL();
 80067f6:	f001 fbbd 	bl	8007f74 <vPortEnterCritical>
		int8_t cTxLock = pxQueue->cTxLock;
 80067fa:	f894 5045 	ldrb.w	r5, [r4, #69]	; 0x45
 80067fe:	b26d      	sxtb	r5, r5
		while( cTxLock > queueLOCKED_UNMODIFIED )
 8006800:	2d00      	cmp	r5, #0
 8006802:	dc05      	bgt.n	8006810 <xQueueReceive+0x160>
 8006804:	e012      	b.n	800682c <xQueueReceive+0x17c>
			--cTxLock;
 8006806:	1e6b      	subs	r3, r5, #1
		while( cTxLock > queueLOCKED_UNMODIFIED )
 8006808:	f013 0fff 	tst.w	r3, #255	; 0xff
 800680c:	b25d      	sxtb	r5, r3
 800680e:	d00d      	beq.n	800682c <xQueueReceive+0x17c>
				if( listLIST_IS_EMPTY( &( pxQueue->xTasksWaitingToReceive ) ) == pdFALSE )
 8006810:	6a63      	ldr	r3, [r4, #36]	; 0x24
					if( xTaskRemoveFromEventList( &( pxQueue->xTasksWaitingToReceive ) ) != pdFALSE )
 8006812:	4638      	mov	r0, r7
				if( listLIST_IS_EMPTY( &( pxQueue->xTasksWaitingToReceive ) ) == pdFALSE )
 8006814:	b153      	cbz	r3, 800682c <xQueueReceive+0x17c>
					if( xTaskRemoveFromEventList( &( pxQueue->xTasksWaitingToReceive ) ) != pdFALSE )
 8006816:	f000 ff39 	bl	800768c <xTaskRemoveFromEventList>
 800681a:	2800      	cmp	r0, #0
 800681c:	d0f3      	beq.n	8006806 <xQueueReceive+0x156>
						vTaskMissedYield();
 800681e:	f000 ffd9 	bl	80077d4 <vTaskMissedYield>
			--cTxLock;
 8006822:	1e6b      	subs	r3, r5, #1
		while( cTxLock > queueLOCKED_UNMODIFIED )
 8006824:	f013 0fff 	tst.w	r3, #255	; 0xff
 8006828:	b25d      	sxtb	r5, r3
 800682a:	d1f1      	bne.n	8006810 <xQueueReceive+0x160>
		pxQueue->cTxLock = queueUNLOCKED;
 800682c:	23ff      	movs	r3, #255	; 0xff
 800682e:	f884 3045 	strb.w	r3, [r4, #69]	; 0x45
	taskEXIT_CRITICAL();
 8006832:	f001 fbc1 	bl	8007fb8 <vPortExitCritical>
	taskENTER_CRITICAL();
 8006836:	f001 fb9d 	bl	8007f74 <vPortEnterCritical>
		int8_t cRxLock = pxQueue->cRxLock;
 800683a:	f894 5044 	ldrb.w	r5, [r4, #68]	; 0x44
 800683e:	b26d      	sxtb	r5, r5
		while( cRxLock > queueLOCKED_UNMODIFIED )
 8006840:	2d00      	cmp	r5, #0
 8006842:	dd15      	ble.n	8006870 <xQueueReceive+0x1c0>
				if( xTaskRemoveFromEventList( &( pxQueue->xTasksWaitingToSend ) ) != pdFALSE )
 8006844:	f104 0910 	add.w	r9, r4, #16
 8006848:	e004      	b.n	8006854 <xQueueReceive+0x1a4>
				--cRxLock;
 800684a:	1e6b      	subs	r3, r5, #1
		while( cRxLock > queueLOCKED_UNMODIFIED )
 800684c:	f013 0fff 	tst.w	r3, #255	; 0xff
 8006850:	b25d      	sxtb	r5, r3
 8006852:	d00d      	beq.n	8006870 <xQueueReceive+0x1c0>
			if( listLIST_IS_EMPTY( &( pxQueue->xTasksWaitingToSend ) ) == pdFALSE )
 8006854:	6923      	ldr	r3, [r4, #16]
				if( xTaskRemoveFromEventList( &( pxQueue->xTasksWaitingToSend ) ) != pdFALSE )
 8006856:	4648      	mov	r0, r9
			if( listLIST_IS_EMPTY( &( pxQueue->xTasksWaitingToSend ) ) == pdFALSE )
 8006858:	b153      	cbz	r3, 8006870 <xQueueReceive+0x1c0>
				if( xTaskRemoveFromEventList( &( pxQueue->xTasksWaitingToSend ) ) != pdFALSE )
 800685a:	f000 ff17 	bl	800768c <xTaskRemoveFromEventList>
 800685e:	2800      	cmp	r0, #0
 8006860:	d0f3      	beq.n	800684a <xQueueReceive+0x19a>
					vTaskMissedYield();
 8006862:	f000 ffb7 	bl	80077d4 <vTaskMissedYield>
				--cRxLock;
 8006866:	1e6b      	subs	r3, r5, #1
		while( cRxLock > queueLOCKED_UNMODIFIED )
 8006868:	f013 0fff 	tst.w	r3, #255	; 0xff
 800686c:	b25d      	sxtb	r5, r3
 800686e:	d1f1      	bne.n	8006854 <xQueueReceive+0x1a4>
		pxQueue->cRxLock = queueUNLOCKED;
 8006870:	23ff      	movs	r3, #255	; 0xff
 8006872:	f884 3044 	strb.w	r3, [r4, #68]	; 0x44
	taskEXIT_CRITICAL();
 8006876:	f001 fb9f 	bl	8007fb8 <vPortExitCritical>
			( void ) xTaskResumeAll();
 800687a:	f000 fd8d 	bl	8007398 <xTaskResumeAll>
	taskENTER_CRITICAL();
 800687e:	f001 fb79 	bl	8007f74 <vPortEnterCritical>
		if( pxQueue->uxMessagesWaiting == ( UBaseType_t )  0 )
 8006882:	6ba3      	ldr	r3, [r4, #56]	; 0x38
 8006884:	b153      	cbz	r3, 800689c <xQueueReceive+0x1ec>
	taskEXIT_CRITICAL();
 8006886:	f001 fb97 	bl	8007fb8 <vPortExitCritical>
		taskENTER_CRITICAL();
 800688a:	f001 fb73 	bl	8007f74 <vPortEnterCritical>
			const UBaseType_t uxMessagesWaiting = pxQueue->uxMessagesWaiting;
 800688e:	6ba5      	ldr	r5, [r4, #56]	; 0x38
			if( uxMessagesWaiting > ( UBaseType_t ) 0 )
 8006890:	2d00      	cmp	r5, #0
 8006892:	d16b      	bne.n	800696c <xQueueReceive+0x2bc>
				if( xTicksToWait == ( TickType_t ) 0 )
 8006894:	9b01      	ldr	r3, [sp, #4]
 8006896:	2b00      	cmp	r3, #0
 8006898:	f47f af2b 	bne.w	80066f2 <xQueueReceive+0x42>
					taskEXIT_CRITICAL();
 800689c:	f001 fb8c 	bl	8007fb8 <vPortExitCritical>
					return errQUEUE_EMPTY;
 80068a0:	2000      	movs	r0, #0
}
 80068a2:	b005      	add	sp, #20
 80068a4:	e8bd 83f0 	ldmia.w	sp!, {r4, r5, r6, r7, r8, r9, pc}
 80068a8:	f04f 0350 	mov.w	r3, #80	; 0x50
 80068ac:	f383 8811 	msr	BASEPRI, r3
 80068b0:	f3bf 8f6f 	isb	sy
 80068b4:	f3bf 8f4f 	dsb	sy
	configASSERT( ( pxQueue ) );
 80068b8:	e7fe      	b.n	80068b8 <xQueueReceive+0x208>
	taskEXIT_CRITICAL();
 80068ba:	f001 fb7d 	bl	8007fb8 <vPortExitCritical>
				vTaskPlaceOnEventList( &( pxQueue->xTasksWaitingToReceive ), xTicksToWait );
 80068be:	9901      	ldr	r1, [sp, #4]
 80068c0:	4638      	mov	r0, r7
 80068c2:	f000 fe4b 	bl	800755c <vTaskPlaceOnEventList>
	taskENTER_CRITICAL();
 80068c6:	f001 fb55 	bl	8007f74 <vPortEnterCritical>
		int8_t cTxLock = pxQueue->cTxLock;
 80068ca:	f894 5045 	ldrb.w	r5, [r4, #69]	; 0x45
 80068ce:	b26d      	sxtb	r5, r5
		while( cTxLock > queueLOCKED_UNMODIFIED )
 80068d0:	2d00      	cmp	r5, #0
 80068d2:	dc05      	bgt.n	80068e0 <xQueueReceive+0x230>
 80068d4:	e012      	b.n	80068fc <xQueueReceive+0x24c>
			--cTxLock;
 80068d6:	1e6b      	subs	r3, r5, #1
		while( cTxLock > queueLOCKED_UNMODIFIED )
 80068d8:	f013 0fff 	tst.w	r3, #255	; 0xff
 80068dc:	b25d      	sxtb	r5, r3
 80068de:	d00d      	beq.n	80068fc <xQueueReceive+0x24c>
				if( listLIST_IS_EMPTY( &( pxQueue->xTasksWaitingToReceive ) ) == pdFALSE )
 80068e0:	6a63      	ldr	r3, [r4, #36]	; 0x24
					if( xTaskRemoveFromEventList( &( pxQueue->xTasksWaitingToReceive ) ) != pdFALSE )
 80068e2:	4638      	mov	r0, r7
				if( listLIST_IS_EMPTY( &( pxQueue->xTasksWaitingToReceive ) ) == pdFALSE )
 80068e4:	b153      	cbz	r3, 80068fc <xQueueReceive+0x24c>
					if( xTaskRemoveFromEventList( &( pxQueue->xTasksWaitingToReceive ) ) != pdFALSE )
 80068e6:	f000 fed1 	bl	800768c <xTaskRemoveFromEventList>
 80068ea:	2800      	cmp	r0, #0
 80068ec:	d0f3      	beq.n	80068d6 <xQueueReceive+0x226>
						vTaskMissedYield();
 80068ee:	f000 ff71 	bl	80077d4 <vTaskMissedYield>
			--cTxLock;
 80068f2:	1e6b      	subs	r3, r5, #1
		while( cTxLock > queueLOCKED_UNMODIFIED )
 80068f4:	f013 0fff 	tst.w	r3, #255	; 0xff
 80068f8:	b25d      	sxtb	r5, r3
 80068fa:	d1f1      	bne.n	80068e0 <xQueueReceive+0x230>
		pxQueue->cTxLock = queueUNLOCKED;
 80068fc:	23ff      	movs	r3, #255	; 0xff
 80068fe:	f884 3045 	strb.w	r3, [r4, #69]	; 0x45
	taskEXIT_CRITICAL();
 8006902:	f001 fb59 	bl	8007fb8 <vPortExitCritical>
	taskENTER_CRITICAL();
 8006906:	f001 fb35 	bl	8007f74 <vPortEnterCritical>
		int8_t cRxLock = pxQueue->cRxLock;
 800690a:	f894 5044 	ldrb.w	r5, [r4, #68]	; 0x44
 800690e:	b26d      	sxtb	r5, r5
		while( cRxLock > queueLOCKED_UNMODIFIED )
 8006910:	2d00      	cmp	r5, #0
 8006912:	dd15      	ble.n	8006940 <xQueueReceive+0x290>
				if( xTaskRemoveFromEventList( &( pxQueue->xTasksWaitingToSend ) ) != pdFALSE )
 8006914:	f104 0910 	add.w	r9, r4, #16
 8006918:	e004      	b.n	8006924 <xQueueReceive+0x274>
				--cRxLock;
 800691a:	1e6b      	subs	r3, r5, #1
		while( cRxLock > queueLOCKED_UNMODIFIED )
 800691c:	f013 0fff 	tst.w	r3, #255	; 0xff
 8006920:	b25d      	sxtb	r5, r3
 8006922:	d00d      	beq.n	8006940 <xQueueReceive+0x290>
			if( listLIST_IS_EMPTY( &( pxQueue->xTasksWaitingToSend ) ) == pdFALSE )
 8006924:	6923      	ldr	r3, [r4, #16]
				if( xTaskRemoveFromEventList( &( pxQueue->xTasksWaitingToSend ) ) != pdFALSE )
 8006926:	4648      	mov	r0, r9
			if( listLIST_IS_EMPTY( &( pxQueue->xTasksWaitingToSend ) ) == pdFALSE )
 8006928:	b153      	cbz	r3, 8006940 <xQueueReceive+0x290>
				if( xTaskRemoveFromEventList( &( pxQueue->xTasksWaitingToSend ) ) != pdFALSE )
 800692a:	f000 feaf 	bl	800768c <xTaskRemoveFromEventList>
 800692e:	2800      	cmp	r0, #0
 8006930:	d0f3      	beq.n	800691a <xQueueReceive+0x26a>
					vTaskMissedYield();
 8006932:	f000 ff4f 	bl	80077d4 <vTaskMissedYield>
				--cRxLock;
 8006936:	1e6b      	subs	r3, r5, #1
		while( cRxLock > queueLOCKED_UNMODIFIED )
 8006938:	f013 0fff 	tst.w	r3, #255	; 0xff
 800693c:	b25d      	sxtb	r5, r3
 800693e:	d1f1      	bne.n	8006924 <xQueueReceive+0x274>
		pxQueue->cRxLock = queueUNLOCKED;
 8006940:	23ff      	movs	r3, #255	; 0xff
 8006942:	f884 3044 	strb.w	r3, [r4, #68]	; 0x44
	taskEXIT_CRITICAL();
 8006946:	f001 fb37 	bl	8007fb8 <vPortExitCritical>
				if( xTaskResumeAll() == pdFALSE )
 800694a:	f000 fd25 	bl	8007398 <xTaskResumeAll>
 800694e:	2800      	cmp	r0, #0
 8006950:	d19b      	bne.n	800688a <xQueueReceive+0x1da>
					portYIELD_WITHIN_API();
 8006952:	f04f 5380 	mov.w	r3, #268435456	; 0x10000000
 8006956:	f8c8 3000 	str.w	r3, [r8]
 800695a:	f3bf 8f4f 	dsb	sy
 800695e:	f3bf 8f6f 	isb	sy
		taskENTER_CRITICAL();
 8006962:	f001 fb07 	bl	8007f74 <vPortEnterCritical>
			const UBaseType_t uxMessagesWaiting = pxQueue->uxMessagesWaiting;
 8006966:	6ba5      	ldr	r5, [r4, #56]	; 0x38
			if( uxMessagesWaiting > ( UBaseType_t ) 0 )
 8006968:	2d00      	cmp	r5, #0
 800696a:	d093      	beq.n	8006894 <xQueueReceive+0x1e4>
	if( pxQueue->uxItemSize != ( UBaseType_t ) 0 )
 800696c:	6c22      	ldr	r2, [r4, #64]	; 0x40
 800696e:	b152      	cbz	r2, 8006986 <xQueueReceive+0x2d6>
		if( pxQueue->u.xQueue.pcReadFrom >= pxQueue->u.xQueue.pcTail ) /*lint !e946 MISRA exception justified as use of the relational operator is the cleanest solutions. */
 8006970:	e9d4 0302 	ldrd	r0, r3, [r4, #8]
		pxQueue->u.xQueue.pcReadFrom += pxQueue->uxItemSize; /*lint !e9016 Pointer arithmetic on char types ok, especially in this use case where it is the clearest way of conveying intent. */
 8006974:	1899      	adds	r1, r3, r2
		if( pxQueue->u.xQueue.pcReadFrom >= pxQueue->u.xQueue.pcTail ) /*lint !e946 MISRA exception justified as use of the relational operator is the cleanest solutions. */
 8006976:	4281      	cmp	r1, r0
		pxQueue->u.xQueue.pcReadFrom += pxQueue->uxItemSize; /*lint !e9016 Pointer arithmetic on char types ok, especially in this use case where it is the clearest way of conveying intent. */
 8006978:	60e1      	str	r1, [r4, #12]
			pxQueue->u.xQueue.pcReadFrom = pxQueue->pcHead;
 800697a:	bf24      	itt	cs
 800697c:	6821      	ldrcs	r1, [r4, #0]
 800697e:	60e1      	strcs	r1, [r4, #12]
		( void ) memcpy( ( void * ) pvBuffer, ( void * ) pxQueue->u.xQueue.pcReadFrom, ( size_t ) pxQueue->uxItemSize ); /*lint !e961 !e418 !e9087 MISRA exception as the casts are only redundant for some ports.  Also previous logic ensures a null pointer can only be passed to memcpy() when the count is 0.  Cast to void required by function signature and safe as no alignment requirement and copy length specified in bytes. */
 8006980:	4630      	mov	r0, r6
 8006982:	f001 fda1 	bl	80084c8 <memcpy>
				pxQueue->uxMessagesWaiting = uxMessagesWaiting - ( UBaseType_t ) 1;
 8006986:	3d01      	subs	r5, #1
 8006988:	63a5      	str	r5, [r4, #56]	; 0x38
				if( listLIST_IS_EMPTY( &( pxQueue->xTasksWaitingToSend ) ) == pdFALSE )
 800698a:	6923      	ldr	r3, [r4, #16]
 800698c:	b91b      	cbnz	r3, 8006996 <xQueueReceive+0x2e6>
				taskEXIT_CRITICAL();
 800698e:	f001 fb13 	bl	8007fb8 <vPortExitCritical>
				return pdPASS;
 8006992:	2001      	movs	r0, #1
 8006994:	e785      	b.n	80068a2 <xQueueReceive+0x1f2>
					if( xTaskRemoveFromEventList( &( pxQueue->xTasksWaitingToSend ) ) != pdFALSE )
 8006996:	f104 0010 	add.w	r0, r4, #16
 800699a:	f000 fe77 	bl	800768c <xTaskRemoveFromEventList>
 800699e:	2800      	cmp	r0, #0
 80069a0:	d0f5      	beq.n	800698e <xQueueReceive+0x2de>
						queueYIELD_IF_USING_PREEMPTION();
 80069a2:	4b04      	ldr	r3, [pc, #16]	; (80069b4 <xQueueReceive+0x304>)
 80069a4:	f04f 5280 	mov.w	r2, #268435456	; 0x10000000
 80069a8:	601a      	str	r2, [r3, #0]
 80069aa:	f3bf 8f4f 	dsb	sy
 80069ae:	f3bf 8f6f 	isb	sy
 80069b2:	e7ec      	b.n	800698e <xQueueReceive+0x2de>
 80069b4:	e000ed04 	.word	0xe000ed04

080069b8 <vQueueAddToRegistry>:

		/* See if there is an empty space in the registry.  A NULL name denotes
		a free slot. */
		for( ux = ( UBaseType_t ) 0U; ux < ( UBaseType_t ) configQUEUE_REGISTRY_SIZE; ux++ )
		{
			if( xQueueRegistry[ ux ].pcQueueName == NULL )
 80069b8:	4b1b      	ldr	r3, [pc, #108]	; (8006a28 <vQueueAddToRegistry+0x70>)
 80069ba:	681a      	ldr	r2, [r3, #0]
 80069bc:	b1ba      	cbz	r2, 80069ee <vQueueAddToRegistry+0x36>
 80069be:	689a      	ldr	r2, [r3, #8]
 80069c0:	b1f2      	cbz	r2, 8006a00 <vQueueAddToRegistry+0x48>
 80069c2:	691a      	ldr	r2, [r3, #16]
 80069c4:	b1f2      	cbz	r2, 8006a04 <vQueueAddToRegistry+0x4c>
 80069c6:	699a      	ldr	r2, [r3, #24]
 80069c8:	b1f2      	cbz	r2, 8006a08 <vQueueAddToRegistry+0x50>
 80069ca:	6a1a      	ldr	r2, [r3, #32]
 80069cc:	b1f2      	cbz	r2, 8006a0c <vQueueAddToRegistry+0x54>
 80069ce:	6a9a      	ldr	r2, [r3, #40]	; 0x28
 80069d0:	b1f2      	cbz	r2, 8006a10 <vQueueAddToRegistry+0x58>
 80069d2:	6b1a      	ldr	r2, [r3, #48]	; 0x30
 80069d4:	b1f2      	cbz	r2, 8006a14 <vQueueAddToRegistry+0x5c>
 80069d6:	6b9a      	ldr	r2, [r3, #56]	; 0x38
 80069d8:	b1f2      	cbz	r2, 8006a18 <vQueueAddToRegistry+0x60>
 80069da:	6c1a      	ldr	r2, [r3, #64]	; 0x40
 80069dc:	b1f2      	cbz	r2, 8006a1c <vQueueAddToRegistry+0x64>
 80069de:	6c9a      	ldr	r2, [r3, #72]	; 0x48
 80069e0:	b1f2      	cbz	r2, 8006a20 <vQueueAddToRegistry+0x68>
 80069e2:	6d1a      	ldr	r2, [r3, #80]	; 0x50
 80069e4:	b112      	cbz	r2, 80069ec <vQueueAddToRegistry+0x34>
 80069e6:	6d9a      	ldr	r2, [r3, #88]	; 0x58
 80069e8:	b1e2      	cbz	r2, 8006a24 <vQueueAddToRegistry+0x6c>
 80069ea:	4770      	bx	lr
		for( ux = ( UBaseType_t ) 0U; ux < ( UBaseType_t ) configQUEUE_REGISTRY_SIZE; ux++ )
 80069ec:	220a      	movs	r2, #10
	{
 80069ee:	b410      	push	{r4}
			{
				/* Store the information on this queue. */
				xQueueRegistry[ ux ].pcQueueName = pcQueueName;
				xQueueRegistry[ ux ].xHandle = xQueue;
 80069f0:	eb03 04c2 	add.w	r4, r3, r2, lsl #3
				xQueueRegistry[ ux ].pcQueueName = pcQueueName;
 80069f4:	f843 1032 	str.w	r1, [r3, r2, lsl #3]
				xQueueRegistry[ ux ].xHandle = xQueue;
 80069f8:	6060      	str	r0, [r4, #4]
			else
			{
				mtCOVERAGE_TEST_MARKER();
			}
		}
	}
 80069fa:	f85d 4b04 	ldr.w	r4, [sp], #4
 80069fe:	4770      	bx	lr
		for( ux = ( UBaseType_t ) 0U; ux < ( UBaseType_t ) configQUEUE_REGISTRY_SIZE; ux++ )
 8006a00:	2201      	movs	r2, #1
 8006a02:	e7f4      	b.n	80069ee <vQueueAddToRegistry+0x36>
 8006a04:	2202      	movs	r2, #2
 8006a06:	e7f2      	b.n	80069ee <vQueueAddToRegistry+0x36>
 8006a08:	2203      	movs	r2, #3
 8006a0a:	e7f0      	b.n	80069ee <vQueueAddToRegistry+0x36>
 8006a0c:	2204      	movs	r2, #4
 8006a0e:	e7ee      	b.n	80069ee <vQueueAddToRegistry+0x36>
 8006a10:	2205      	movs	r2, #5
 8006a12:	e7ec      	b.n	80069ee <vQueueAddToRegistry+0x36>
 8006a14:	2206      	movs	r2, #6
 8006a16:	e7ea      	b.n	80069ee <vQueueAddToRegistry+0x36>
 8006a18:	2207      	movs	r2, #7
 8006a1a:	e7e8      	b.n	80069ee <vQueueAddToRegistry+0x36>
 8006a1c:	2208      	movs	r2, #8
 8006a1e:	e7e6      	b.n	80069ee <vQueueAddToRegistry+0x36>
 8006a20:	2209      	movs	r2, #9
 8006a22:	e7e4      	b.n	80069ee <vQueueAddToRegistry+0x36>
 8006a24:	220b      	movs	r2, #11
 8006a26:	e7e2      	b.n	80069ee <vQueueAddToRegistry+0x36>
 8006a28:	20009b4c 	.word	0x20009b4c

08006a2c <vQueueWaitForMessageRestricted>:
/*-----------------------------------------------------------*/

#if ( configUSE_TIMERS == 1 )

	void vQueueWaitForMessageRestricted( QueueHandle_t xQueue, TickType_t xTicksToWait, const BaseType_t xWaitIndefinitely )
	{
 8006a2c:	b570      	push	{r4, r5, r6, lr}
 8006a2e:	4604      	mov	r4, r0
 8006a30:	460e      	mov	r6, r1
 8006a32:	4615      	mov	r5, r2
		will not actually cause the task to block, just place it on a blocked
		list.  It will not block until the scheduler is unlocked - at which
		time a yield will be performed.  If an item is added to the queue while
		the queue is locked, and the calling task blocks on the queue, then the
		calling task will be immediately unblocked when the queue is unlocked. */
		prvLockQueue( pxQueue );
 8006a34:	f001 fa9e 	bl	8007f74 <vPortEnterCritical>
 8006a38:	f894 3044 	ldrb.w	r3, [r4, #68]	; 0x44
 8006a3c:	2bff      	cmp	r3, #255	; 0xff
 8006a3e:	bf04      	itt	eq
 8006a40:	2300      	moveq	r3, #0
 8006a42:	f884 3044 	strbeq.w	r3, [r4, #68]	; 0x44
 8006a46:	f894 3045 	ldrb.w	r3, [r4, #69]	; 0x45
 8006a4a:	2bff      	cmp	r3, #255	; 0xff
 8006a4c:	bf04      	itt	eq
 8006a4e:	2300      	moveq	r3, #0
 8006a50:	f884 3045 	strbeq.w	r3, [r4, #69]	; 0x45
 8006a54:	f001 fab0 	bl	8007fb8 <vPortExitCritical>
		if( pxQueue->uxMessagesWaiting == ( UBaseType_t ) 0U )
 8006a58:	6ba3      	ldr	r3, [r4, #56]	; 0x38
 8006a5a:	2b00      	cmp	r3, #0
 8006a5c:	d045      	beq.n	8006aea <vQueueWaitForMessageRestricted+0xbe>
	taskENTER_CRITICAL();
 8006a5e:	f001 fa89 	bl	8007f74 <vPortEnterCritical>
		int8_t cTxLock = pxQueue->cTxLock;
 8006a62:	f894 5045 	ldrb.w	r5, [r4, #69]	; 0x45
 8006a66:	b26d      	sxtb	r5, r5
		while( cTxLock > queueLOCKED_UNMODIFIED )
 8006a68:	2d00      	cmp	r5, #0
 8006a6a:	dd15      	ble.n	8006a98 <vQueueWaitForMessageRestricted+0x6c>
					if( xTaskRemoveFromEventList( &( pxQueue->xTasksWaitingToReceive ) ) != pdFALSE )
 8006a6c:	f104 0624 	add.w	r6, r4, #36	; 0x24
 8006a70:	e004      	b.n	8006a7c <vQueueWaitForMessageRestricted+0x50>
			--cTxLock;
 8006a72:	1e6b      	subs	r3, r5, #1
		while( cTxLock > queueLOCKED_UNMODIFIED )
 8006a74:	f013 0fff 	tst.w	r3, #255	; 0xff
 8006a78:	b25d      	sxtb	r5, r3
 8006a7a:	d00d      	beq.n	8006a98 <vQueueWaitForMessageRestricted+0x6c>
				if( listLIST_IS_EMPTY( &( pxQueue->xTasksWaitingToReceive ) ) == pdFALSE )
 8006a7c:	6a63      	ldr	r3, [r4, #36]	; 0x24
					if( xTaskRemoveFromEventList( &( pxQueue->xTasksWaitingToReceive ) ) != pdFALSE )
 8006a7e:	4630      	mov	r0, r6
				if( listLIST_IS_EMPTY( &( pxQueue->xTasksWaitingToReceive ) ) == pdFALSE )
 8006a80:	b153      	cbz	r3, 8006a98 <vQueueWaitForMessageRestricted+0x6c>
					if( xTaskRemoveFromEventList( &( pxQueue->xTasksWaitingToReceive ) ) != pdFALSE )
 8006a82:	f000 fe03 	bl	800768c <xTaskRemoveFromEventList>
 8006a86:	2800      	cmp	r0, #0
 8006a88:	d0f3      	beq.n	8006a72 <vQueueWaitForMessageRestricted+0x46>
						vTaskMissedYield();
 8006a8a:	f000 fea3 	bl	80077d4 <vTaskMissedYield>
			--cTxLock;
 8006a8e:	1e6b      	subs	r3, r5, #1
		while( cTxLock > queueLOCKED_UNMODIFIED )
 8006a90:	f013 0fff 	tst.w	r3, #255	; 0xff
 8006a94:	b25d      	sxtb	r5, r3
 8006a96:	d1f1      	bne.n	8006a7c <vQueueWaitForMessageRestricted+0x50>
		pxQueue->cTxLock = queueUNLOCKED;
 8006a98:	23ff      	movs	r3, #255	; 0xff
 8006a9a:	f884 3045 	strb.w	r3, [r4, #69]	; 0x45
	taskEXIT_CRITICAL();
 8006a9e:	f001 fa8b 	bl	8007fb8 <vPortExitCritical>
	taskENTER_CRITICAL();
 8006aa2:	f001 fa67 	bl	8007f74 <vPortEnterCritical>
		int8_t cRxLock = pxQueue->cRxLock;
 8006aa6:	f894 5044 	ldrb.w	r5, [r4, #68]	; 0x44
 8006aaa:	b26d      	sxtb	r5, r5
		while( cRxLock > queueLOCKED_UNMODIFIED )
 8006aac:	2d00      	cmp	r5, #0
 8006aae:	dd15      	ble.n	8006adc <vQueueWaitForMessageRestricted+0xb0>
				if( xTaskRemoveFromEventList( &( pxQueue->xTasksWaitingToSend ) ) != pdFALSE )
 8006ab0:	f104 0610 	add.w	r6, r4, #16
 8006ab4:	e004      	b.n	8006ac0 <vQueueWaitForMessageRestricted+0x94>
				--cRxLock;
 8006ab6:	1e6b      	subs	r3, r5, #1
		while( cRxLock > queueLOCKED_UNMODIFIED )
 8006ab8:	f013 0fff 	tst.w	r3, #255	; 0xff
 8006abc:	b25d      	sxtb	r5, r3
 8006abe:	d00d      	beq.n	8006adc <vQueueWaitForMessageRestricted+0xb0>
			if( listLIST_IS_EMPTY( &( pxQueue->xTasksWaitingToSend ) ) == pdFALSE )
 8006ac0:	6923      	ldr	r3, [r4, #16]
				if( xTaskRemoveFromEventList( &( pxQueue->xTasksWaitingToSend ) ) != pdFALSE )
 8006ac2:	4630      	mov	r0, r6
			if( listLIST_IS_EMPTY( &( pxQueue->xTasksWaitingToSend ) ) == pdFALSE )
 8006ac4:	b153      	cbz	r3, 8006adc <vQueueWaitForMessageRestricted+0xb0>
				if( xTaskRemoveFromEventList( &( pxQueue->xTasksWaitingToSend ) ) != pdFALSE )
 8006ac6:	f000 fde1 	bl	800768c <xTaskRemoveFromEventList>
 8006aca:	2800      	cmp	r0, #0
 8006acc:	d0f3      	beq.n	8006ab6 <vQueueWaitForMessageRestricted+0x8a>
					vTaskMissedYield();
 8006ace:	f000 fe81 	bl	80077d4 <vTaskMissedYield>
				--cRxLock;
 8006ad2:	1e6b      	subs	r3, r5, #1
		while( cRxLock > queueLOCKED_UNMODIFIED )
 8006ad4:	f013 0fff 	tst.w	r3, #255	; 0xff
 8006ad8:	b25d      	sxtb	r5, r3
 8006ada:	d1f1      	bne.n	8006ac0 <vQueueWaitForMessageRestricted+0x94>
		pxQueue->cRxLock = queueUNLOCKED;
 8006adc:	23ff      	movs	r3, #255	; 0xff
 8006ade:	f884 3044 	strb.w	r3, [r4, #68]	; 0x44
		else
		{
			mtCOVERAGE_TEST_MARKER();
		}
		prvUnlockQueue( pxQueue );
	}
 8006ae2:	e8bd 4070 	ldmia.w	sp!, {r4, r5, r6, lr}
	taskEXIT_CRITICAL();
 8006ae6:	f001 ba67 	b.w	8007fb8 <vPortExitCritical>
			vTaskPlaceOnEventListRestricted( &( pxQueue->xTasksWaitingToReceive ), xTicksToWait, xWaitIndefinitely );
 8006aea:	462a      	mov	r2, r5
 8006aec:	4631      	mov	r1, r6
 8006aee:	f104 0024 	add.w	r0, r4, #36	; 0x24
 8006af2:	f000 fd7b 	bl	80075ec <vTaskPlaceOnEventListRestricted>
 8006af6:	e7b2      	b.n	8006a5e <vQueueWaitForMessageRestricted+0x32>

08006af8 <prvAddNewTaskToReadyList>:
	}
}
/*-----------------------------------------------------------*/

static void prvAddNewTaskToReadyList( TCB_t *pxNewTCB )
{
 8006af8:	e92d 43f8 	stmdb	sp!, {r3, r4, r5, r6, r7, r8, r9, lr}
 8006afc:	4604      	mov	r4, r0
	/* Ensure interrupts don't access the task lists while the lists are being
	updated. */
	taskENTER_CRITICAL();
 8006afe:	f001 fa39 	bl	8007f74 <vPortEnterCritical>
	{
		uxCurrentNumberOfTasks++;
 8006b02:	4a34      	ldr	r2, [pc, #208]	; (8006bd4 <prvAddNewTaskToReadyList+0xdc>)
		if( pxCurrentTCB == NULL )
 8006b04:	4e34      	ldr	r6, [pc, #208]	; (8006bd8 <prvAddNewTaskToReadyList+0xe0>)
		uxCurrentNumberOfTasks++;
 8006b06:	6813      	ldr	r3, [r2, #0]
 8006b08:	3301      	adds	r3, #1
 8006b0a:	6013      	str	r3, [r2, #0]
		if( pxCurrentTCB == NULL )
 8006b0c:	6833      	ldr	r3, [r6, #0]
 8006b0e:	2b00      	cmp	r3, #0
 8006b10:	d032      	beq.n	8006b78 <prvAddNewTaskToReadyList+0x80>
		else
		{
			/* If the scheduler is not already running, make this task the
			current task if it is the highest priority task to be created
			so far. */
			if( xSchedulerRunning == pdFALSE )
 8006b12:	4d32      	ldr	r5, [pc, #200]	; (8006bdc <prvAddNewTaskToReadyList+0xe4>)
 8006b14:	682b      	ldr	r3, [r5, #0]
 8006b16:	b33b      	cbz	r3, 8006b68 <prvAddNewTaskToReadyList+0x70>
 8006b18:	6ae0      	ldr	r0, [r4, #44]	; 0x2c
 8006b1a:	4f31      	ldr	r7, [pc, #196]	; (8006be0 <prvAddNewTaskToReadyList+0xe8>)
			pxNewTCB->uxTCBNumber = uxTaskNumber;
		}
		#endif /* configUSE_TRACE_FACILITY */
		traceTASK_CREATE( pxNewTCB );

		prvAddTaskToReadyList( pxNewTCB );
 8006b1c:	4931      	ldr	r1, [pc, #196]	; (8006be4 <prvAddNewTaskToReadyList+0xec>)
		uxTaskNumber++;
 8006b1e:	4a32      	ldr	r2, [pc, #200]	; (8006be8 <prvAddNewTaskToReadyList+0xf0>)
		prvAddTaskToReadyList( pxNewTCB );
 8006b20:	f8d1 c000 	ldr.w	ip, [r1]
		uxTaskNumber++;
 8006b24:	6813      	ldr	r3, [r2, #0]
		prvAddTaskToReadyList( pxNewTCB );
 8006b26:	4584      	cmp	ip, r0
		uxTaskNumber++;
 8006b28:	f103 0301 	add.w	r3, r3, #1
		prvAddTaskToReadyList( pxNewTCB );
 8006b2c:	bf38      	it	cc
 8006b2e:	6008      	strcc	r0, [r1, #0]
 8006b30:	eb00 0080 	add.w	r0, r0, r0, lsl #2
			pxNewTCB->uxTCBNumber = uxTaskNumber;
 8006b34:	64e3      	str	r3, [r4, #76]	; 0x4c
		prvAddTaskToReadyList( pxNewTCB );
 8006b36:	eb07 0080 	add.w	r0, r7, r0, lsl #2
 8006b3a:	1d21      	adds	r1, r4, #4
		uxTaskNumber++;
 8006b3c:	6013      	str	r3, [r2, #0]
		prvAddTaskToReadyList( pxNewTCB );
 8006b3e:	f7ff fb45 	bl	80061cc <vListInsertEnd>

		portSETUP_TCB( pxNewTCB );
	}
	taskEXIT_CRITICAL();
 8006b42:	f001 fa39 	bl	8007fb8 <vPortExitCritical>

	if( xSchedulerRunning != pdFALSE )
 8006b46:	682b      	ldr	r3, [r5, #0]
 8006b48:	b163      	cbz	r3, 8006b64 <prvAddNewTaskToReadyList+0x6c>
	{
		/* If the created task is of a higher priority than the current task
		then it should run now. */
		if( pxCurrentTCB->uxPriority < pxNewTCB->uxPriority )
 8006b4a:	6832      	ldr	r2, [r6, #0]
 8006b4c:	6ae3      	ldr	r3, [r4, #44]	; 0x2c
 8006b4e:	6ad2      	ldr	r2, [r2, #44]	; 0x2c
 8006b50:	429a      	cmp	r2, r3
 8006b52:	d207      	bcs.n	8006b64 <prvAddNewTaskToReadyList+0x6c>
		{
			taskYIELD_IF_USING_PREEMPTION();
 8006b54:	4b25      	ldr	r3, [pc, #148]	; (8006bec <prvAddNewTaskToReadyList+0xf4>)
 8006b56:	f04f 5280 	mov.w	r2, #268435456	; 0x10000000
 8006b5a:	601a      	str	r2, [r3, #0]
 8006b5c:	f3bf 8f4f 	dsb	sy
 8006b60:	f3bf 8f6f 	isb	sy
	}
	else
	{
		mtCOVERAGE_TEST_MARKER();
	}
}
 8006b64:	e8bd 83f8 	ldmia.w	sp!, {r3, r4, r5, r6, r7, r8, r9, pc}
				if( pxCurrentTCB->uxPriority <= pxNewTCB->uxPriority )
 8006b68:	6833      	ldr	r3, [r6, #0]
 8006b6a:	6ae0      	ldr	r0, [r4, #44]	; 0x2c
 8006b6c:	6adb      	ldr	r3, [r3, #44]	; 0x2c
 8006b6e:	4f1c      	ldr	r7, [pc, #112]	; (8006be0 <prvAddNewTaskToReadyList+0xe8>)
 8006b70:	4283      	cmp	r3, r0
					pxCurrentTCB = pxNewTCB;
 8006b72:	bf98      	it	ls
 8006b74:	6034      	strls	r4, [r6, #0]
 8006b76:	e7d1      	b.n	8006b1c <prvAddNewTaskToReadyList+0x24>
			pxCurrentTCB = pxNewTCB;
 8006b78:	6034      	str	r4, [r6, #0]
			if( uxCurrentNumberOfTasks == ( UBaseType_t ) 1 )
 8006b7a:	6813      	ldr	r3, [r2, #0]
 8006b7c:	2b01      	cmp	r3, #1
 8006b7e:	d003      	beq.n	8006b88 <prvAddNewTaskToReadyList+0x90>
 8006b80:	6ae0      	ldr	r0, [r4, #44]	; 0x2c
 8006b82:	4f17      	ldr	r7, [pc, #92]	; (8006be0 <prvAddNewTaskToReadyList+0xe8>)
 8006b84:	4d15      	ldr	r5, [pc, #84]	; (8006bdc <prvAddNewTaskToReadyList+0xe4>)
 8006b86:	e7c9      	b.n	8006b1c <prvAddNewTaskToReadyList+0x24>
 8006b88:	4f15      	ldr	r7, [pc, #84]	; (8006be0 <prvAddNewTaskToReadyList+0xe8>)
 8006b8a:	463d      	mov	r5, r7
 8006b8c:	f507 688c 	add.w	r8, r7, #1120	; 0x460
{
UBaseType_t uxPriority;

	for( uxPriority = ( UBaseType_t ) 0U; uxPriority < ( UBaseType_t ) configMAX_PRIORITIES; uxPriority++ )
	{
		vListInitialise( &( pxReadyTasksLists[ uxPriority ] ) );
 8006b90:	4628      	mov	r0, r5
 8006b92:	3514      	adds	r5, #20
 8006b94:	f7ff fb0a 	bl	80061ac <vListInitialise>
	for( uxPriority = ( UBaseType_t ) 0U; uxPriority < ( UBaseType_t ) configMAX_PRIORITIES; uxPriority++ )
 8006b98:	45a8      	cmp	r8, r5
 8006b9a:	d1f9      	bne.n	8006b90 <prvAddNewTaskToReadyList+0x98>
	}

	vListInitialise( &xDelayedTaskList1 );
 8006b9c:	f8df 9064 	ldr.w	r9, [pc, #100]	; 8006c04 <prvAddNewTaskToReadyList+0x10c>
	vListInitialise( &xDelayedTaskList2 );
 8006ba0:	f8df 8064 	ldr.w	r8, [pc, #100]	; 8006c08 <prvAddNewTaskToReadyList+0x110>
 8006ba4:	4d0d      	ldr	r5, [pc, #52]	; (8006bdc <prvAddNewTaskToReadyList+0xe4>)
	vListInitialise( &xDelayedTaskList1 );
 8006ba6:	4648      	mov	r0, r9
 8006ba8:	f7ff fb00 	bl	80061ac <vListInitialise>
	vListInitialise( &xDelayedTaskList2 );
 8006bac:	4640      	mov	r0, r8
 8006bae:	f7ff fafd 	bl	80061ac <vListInitialise>
	vListInitialise( &xPendingReadyList );
 8006bb2:	480f      	ldr	r0, [pc, #60]	; (8006bf0 <prvAddNewTaskToReadyList+0xf8>)
 8006bb4:	f7ff fafa 	bl	80061ac <vListInitialise>

	#if ( INCLUDE_vTaskDelete == 1 )
	{
		vListInitialise( &xTasksWaitingTermination );
 8006bb8:	480e      	ldr	r0, [pc, #56]	; (8006bf4 <prvAddNewTaskToReadyList+0xfc>)
 8006bba:	f7ff faf7 	bl	80061ac <vListInitialise>
	}
	#endif /* INCLUDE_vTaskDelete */

	#if ( INCLUDE_vTaskSuspend == 1 )
	{
		vListInitialise( &xSuspendedTaskList );
 8006bbe:	480e      	ldr	r0, [pc, #56]	; (8006bf8 <prvAddNewTaskToReadyList+0x100>)
 8006bc0:	f7ff faf4 	bl	80061ac <vListInitialise>
	}
	#endif /* INCLUDE_vTaskSuspend */

	/* Start with pxDelayedTaskList using list1 and the pxOverflowDelayedTaskList
	using list2. */
	pxDelayedTaskList = &xDelayedTaskList1;
 8006bc4:	4a0d      	ldr	r2, [pc, #52]	; (8006bfc <prvAddNewTaskToReadyList+0x104>)
	pxOverflowDelayedTaskList = &xDelayedTaskList2;
 8006bc6:	4b0e      	ldr	r3, [pc, #56]	; (8006c00 <prvAddNewTaskToReadyList+0x108>)
	pxDelayedTaskList = &xDelayedTaskList1;
 8006bc8:	f8c2 9000 	str.w	r9, [r2]
	pxOverflowDelayedTaskList = &xDelayedTaskList2;
 8006bcc:	6ae0      	ldr	r0, [r4, #44]	; 0x2c
 8006bce:	f8c3 8000 	str.w	r8, [r3]
}
 8006bd2:	e7a3      	b.n	8006b1c <prvAddNewTaskToReadyList+0x24>
 8006bd4:	200016a0 	.word	0x200016a0
 8006bd8:	20001230 	.word	0x20001230
 8006bdc:	200016fc 	.word	0x200016fc
 8006be0:	2000123c 	.word	0x2000123c
 8006be4:	200016b0 	.word	0x200016b0
 8006be8:	200016ac 	.word	0x200016ac
 8006bec:	e000ed04 	.word	0xe000ed04
 8006bf0:	200016e8 	.word	0x200016e8
 8006bf4:	20001714 	.word	0x20001714
 8006bf8:	20001700 	.word	0x20001700
 8006bfc:	20001234 	.word	0x20001234
 8006c00:	20001238 	.word	0x20001238
 8006c04:	200016b4 	.word	0x200016b4
 8006c08:	200016c8 	.word	0x200016c8

08006c0c <prvInitialiseNewTask.isra.0>:
static void prvInitialiseNewTask( 	TaskFunction_t pxTaskCode,
 8006c0c:	e92d 4ff8 	stmdb	sp!, {r3, r4, r5, r6, r7, r8, r9, sl, fp, lr}
 8006c10:	9c0c      	ldr	r4, [sp, #48]	; 0x30
		( void ) memset( pxNewTCB->pxStack, ( int ) tskSTACK_FILL_BYTE, ( size_t ) ulStackDepth * sizeof( StackType_t ) );
 8006c12:	ea4f 0b82 	mov.w	fp, r2, lsl #2
 8006c16:	465a      	mov	r2, fp
static void prvInitialiseNewTask( 	TaskFunction_t pxTaskCode,
 8006c18:	4680      	mov	r8, r0
 8006c1a:	460d      	mov	r5, r1
		( void ) memset( pxNewTCB->pxStack, ( int ) tskSTACK_FILL_BYTE, ( size_t ) ulStackDepth * sizeof( StackType_t ) );
 8006c1c:	6b20      	ldr	r0, [r4, #48]	; 0x30
 8006c1e:	21a5      	movs	r1, #165	; 0xa5
static void prvInitialiseNewTask( 	TaskFunction_t pxTaskCode,
 8006c20:	4699      	mov	r9, r3
 8006c22:	e9dd 6a0a 	ldrd	r6, sl, [sp, #40]	; 0x28
		( void ) memset( pxNewTCB->pxStack, ( int ) tskSTACK_FILL_BYTE, ( size_t ) ulStackDepth * sizeof( StackType_t ) );
 8006c26:	f001 fc5d 	bl	80084e4 <memset>
		pxTopOfStack = &( pxNewTCB->pxStack[ ulStackDepth - ( uint32_t ) 1 ] );
 8006c2a:	6b23      	ldr	r3, [r4, #48]	; 0x30
 8006c2c:	f1ab 0b04 	sub.w	fp, fp, #4
 8006c30:	449b      	add	fp, r3
		pxTopOfStack = ( StackType_t * ) ( ( ( portPOINTER_SIZE_TYPE ) pxTopOfStack ) & ( ~( ( portPOINTER_SIZE_TYPE ) portBYTE_ALIGNMENT_MASK ) ) ); /*lint !e923 !e9033 !e9078 MISRA exception.  Avoiding casts between pointers and integers is not practical.  Size differences accounted for using portPOINTER_SIZE_TYPE type.  Checked by assert(). */
 8006c32:	f02b 0b07 	bic.w	fp, fp, #7
	if( pcName != NULL )
 8006c36:	2d00      	cmp	r5, #0
 8006c38:	d038      	beq.n	8006cac <prvInitialiseNewTask.isra.0+0xa0>
 8006c3a:	1e6a      	subs	r2, r5, #1
 8006c3c:	f105 0117 	add.w	r1, r5, #23
 8006c40:	f104 0533 	add.w	r5, r4, #51	; 0x33
 8006c44:	e001      	b.n	8006c4a <prvInitialiseNewTask.isra.0+0x3e>
		for( x = ( UBaseType_t ) 0; x < ( UBaseType_t ) configMAX_TASK_NAME_LEN; x++ )
 8006c46:	428a      	cmp	r2, r1
 8006c48:	d006      	beq.n	8006c58 <prvInitialiseNewTask.isra.0+0x4c>
			pxNewTCB->pcTaskName[ x ] = pcName[ x ];
 8006c4a:	f812 3f01 	ldrb.w	r3, [r2, #1]!
 8006c4e:	f805 3f01 	strb.w	r3, [r5, #1]!
			if( pcName[ x ] == ( char ) 0x00 )
 8006c52:	7817      	ldrb	r7, [r2, #0]
 8006c54:	2f00      	cmp	r7, #0
 8006c56:	d1f6      	bne.n	8006c46 <prvInitialiseNewTask.isra.0+0x3a>
		pxNewTCB->pcTaskName[ configMAX_TASK_NAME_LEN - 1 ] = '\0';
 8006c58:	2300      	movs	r3, #0
 8006c5a:	f884 304b 	strb.w	r3, [r4, #75]	; 0x4b
	if( uxPriority >= ( UBaseType_t ) configMAX_PRIORITIES )
 8006c5e:	2e37      	cmp	r6, #55	; 0x37
 8006c60:	bf28      	it	cs
 8006c62:	2637      	movcs	r6, #55	; 0x37
		pxNewTCB->uxMutexesHeld = 0;
 8006c64:	2500      	movs	r5, #0
 8006c66:	e9c4 6515 	strd	r6, r5, [r4, #84]	; 0x54
	pxNewTCB->uxPriority = uxPriority;
 8006c6a:	62e6      	str	r6, [r4, #44]	; 0x2c
	vListInitialiseItem( &( pxNewTCB->xStateListItem ) );
 8006c6c:	1d20      	adds	r0, r4, #4
 8006c6e:	f7ff faa9 	bl	80061c4 <vListInitialiseItem>
	listSET_LIST_ITEM_VALUE( &( pxNewTCB->xEventListItem ), ( TickType_t ) configMAX_PRIORITIES - ( TickType_t ) uxPriority ); /*lint !e961 MISRA exception as the casts are only redundant for some ports. */
 8006c72:	f1c6 0638 	rsb	r6, r6, #56	; 0x38
	vListInitialiseItem( &( pxNewTCB->xEventListItem ) );
 8006c76:	f104 0018 	add.w	r0, r4, #24
 8006c7a:	f7ff faa3 	bl	80061c4 <vListInitialiseItem>
		pxNewTCB->ulNotifiedValue = 0;
 8006c7e:	6665      	str	r5, [r4, #100]	; 0x64
		pxNewTCB->ulRunTimeCounter = 0UL;
 8006c80:	e9c4 5517 	strd	r5, r5, [r4, #92]	; 0x5c
	listSET_LIST_ITEM_VALUE( &( pxNewTCB->xEventListItem ), ( TickType_t ) configMAX_PRIORITIES - ( TickType_t ) uxPriority ); /*lint !e961 MISRA exception as the casts are only redundant for some ports. */
 8006c84:	61a6      	str	r6, [r4, #24]
		pxNewTCB->ucNotifyState = taskNOT_WAITING_NOTIFICATION;
 8006c86:	f884 5068 	strb.w	r5, [r4, #104]	; 0x68
		pxNewTCB->ucDelayAborted = pdFALSE;
 8006c8a:	f884 506a 	strb.w	r5, [r4, #106]	; 0x6a
	listSET_LIST_ITEM_OWNER( &( pxNewTCB->xStateListItem ), pxNewTCB );
 8006c8e:	6124      	str	r4, [r4, #16]
	listSET_LIST_ITEM_OWNER( &( pxNewTCB->xEventListItem ), pxNewTCB );
 8006c90:	6264      	str	r4, [r4, #36]	; 0x24
			pxNewTCB->pxTopOfStack = pxPortInitialiseStack( pxTopOfStack, pxTaskCode, pvParameters );
 8006c92:	464a      	mov	r2, r9
 8006c94:	4641      	mov	r1, r8
 8006c96:	4658      	mov	r0, fp
 8006c98:	f001 f93c 	bl	8007f14 <pxPortInitialiseStack>
 8006c9c:	6020      	str	r0, [r4, #0]
	if( pxCreatedTask != NULL )
 8006c9e:	f1ba 0f00 	cmp.w	sl, #0
 8006ca2:	d001      	beq.n	8006ca8 <prvInitialiseNewTask.isra.0+0x9c>
		*pxCreatedTask = ( TaskHandle_t ) pxNewTCB;
 8006ca4:	f8ca 4000 	str.w	r4, [sl]
}
 8006ca8:	e8bd 8ff8 	ldmia.w	sp!, {r3, r4, r5, r6, r7, r8, r9, sl, fp, pc}
		pxNewTCB->pcTaskName[ 0 ] = 0x00;
 8006cac:	f884 5034 	strb.w	r5, [r4, #52]	; 0x34
 8006cb0:	e7d5      	b.n	8006c5e <prvInitialiseNewTask.isra.0+0x52>
 8006cb2:	bf00      	nop

08006cb4 <prvIdleTask>:
{
 8006cb4:	4d23      	ldr	r5, [pc, #140]	; (8006d44 <prvIdleTask+0x90>)
 8006cb6:	f8df a094 	ldr.w	sl, [pc, #148]	; 8006d4c <prvIdleTask+0x98>
 8006cba:	4e23      	ldr	r6, [pc, #140]	; (8006d48 <prvIdleTask+0x94>)
 8006cbc:	f8df 9090 	ldr.w	r9, [pc, #144]	; 8006d50 <prvIdleTask+0x9c>
				taskYIELD();
 8006cc0:	f8df 8090 	ldr.w	r8, [pc, #144]	; 8006d54 <prvIdleTask+0xa0>
{
 8006cc4:	b580      	push	{r7, lr}
				taskYIELD();
 8006cc6:	f04f 5780 	mov.w	r7, #268435456	; 0x10000000
	{
		TCB_t *pxTCB;

		/* uxDeletedTasksWaitingCleanUp is used to prevent taskENTER_CRITICAL()
		being called too often in the idle task. */
		while( uxDeletedTasksWaitingCleanUp > ( UBaseType_t ) 0U )
 8006cca:	682b      	ldr	r3, [r5, #0]
 8006ccc:	b343      	cbz	r3, 8006d20 <prvIdleTask+0x6c>
		{
			taskENTER_CRITICAL();
 8006cce:	f001 f951 	bl	8007f74 <vPortEnterCritical>
			{
				pxTCB = listGET_OWNER_OF_HEAD_ENTRY( ( &xTasksWaitingTermination ) ); /*lint !e9079 void * is used as this macro is used with timers and co-routines too.  Alignment is known to be fine as the type of the pointer stored and retrieved is the same. */
 8006cd2:	f8da 300c 	ldr.w	r3, [sl, #12]
 8006cd6:	68dc      	ldr	r4, [r3, #12]
				( void ) uxListRemove( &( pxTCB->xStateListItem ) );
 8006cd8:	1d20      	adds	r0, r4, #4
 8006cda:	f7ff fa9f 	bl	800621c <uxListRemove>
				--uxCurrentNumberOfTasks;
 8006cde:	6833      	ldr	r3, [r6, #0]
 8006ce0:	3b01      	subs	r3, #1
 8006ce2:	6033      	str	r3, [r6, #0]
				--uxDeletedTasksWaitingCleanUp;
 8006ce4:	682b      	ldr	r3, [r5, #0]
 8006ce6:	3b01      	subs	r3, #1
 8006ce8:	602b      	str	r3, [r5, #0]
			}
			taskEXIT_CRITICAL();
 8006cea:	f001 f965 	bl	8007fb8 <vPortExitCritical>
		#elif( tskSTATIC_AND_DYNAMIC_ALLOCATION_POSSIBLE != 0 ) /*lint !e731 !e9029 Macro has been consolidated for readability reasons. */
		{
			/* The task could have been allocated statically or dynamically, so
			check what was statically allocated before trying to free the
			memory. */
			if( pxTCB->ucStaticallyAllocated == tskDYNAMICALLY_ALLOCATED_STACK_AND_TCB )
 8006cee:	f894 3069 	ldrb.w	r3, [r4, #105]	; 0x69
 8006cf2:	b163      	cbz	r3, 8006d0e <prvIdleTask+0x5a>
				/* Both the stack and TCB were allocated dynamically, so both
				must be freed. */
				vPortFree( pxTCB->pxStack );
				vPortFree( pxTCB );
			}
			else if( pxTCB->ucStaticallyAllocated == tskSTATICALLY_ALLOCATED_STACK_ONLY )
 8006cf4:	2b01      	cmp	r3, #1
 8006cf6:	d020      	beq.n	8006d3a <prvIdleTask+0x86>
			}
			else
			{
				/* Neither the stack nor the TCB were allocated dynamically, so
				nothing needs to be freed. */
				configASSERT( pxTCB->ucStaticallyAllocated == tskSTATICALLY_ALLOCATED_STACK_AND_TCB	);
 8006cf8:	2b02      	cmp	r3, #2
 8006cfa:	d0e6      	beq.n	8006cca <prvIdleTask+0x16>
 8006cfc:	f04f 0350 	mov.w	r3, #80	; 0x50
 8006d00:	f383 8811 	msr	BASEPRI, r3
 8006d04:	f3bf 8f6f 	isb	sy
 8006d08:	f3bf 8f4f 	dsb	sy
 8006d0c:	e7fe      	b.n	8006d0c <prvIdleTask+0x58>
				vPortFree( pxTCB->pxStack );
 8006d0e:	6b20      	ldr	r0, [r4, #48]	; 0x30
 8006d10:	f001 fb52 	bl	80083b8 <vPortFree>
				vPortFree( pxTCB );
 8006d14:	4620      	mov	r0, r4
 8006d16:	f001 fb4f 	bl	80083b8 <vPortFree>
		while( uxDeletedTasksWaitingCleanUp > ( UBaseType_t ) 0U )
 8006d1a:	682b      	ldr	r3, [r5, #0]
 8006d1c:	2b00      	cmp	r3, #0
 8006d1e:	d1d6      	bne.n	8006cce <prvIdleTask+0x1a>
			if( listCURRENT_LIST_LENGTH( &( pxReadyTasksLists[ tskIDLE_PRIORITY ] ) ) > ( UBaseType_t ) 1 )
 8006d20:	f8d9 3000 	ldr.w	r3, [r9]
 8006d24:	2b01      	cmp	r3, #1
 8006d26:	d905      	bls.n	8006d34 <prvIdleTask+0x80>
				taskYIELD();
 8006d28:	f8c8 7000 	str.w	r7, [r8]
 8006d2c:	f3bf 8f4f 	dsb	sy
 8006d30:	f3bf 8f6f 	isb	sy
			vApplicationIdleHook();
 8006d34:	f7fa fb1e 	bl	8001374 <vApplicationIdleHook>
		prvCheckTasksWaitingTermination();
 8006d38:	e7c7      	b.n	8006cca <prvIdleTask+0x16>
				vPortFree( pxTCB );
 8006d3a:	4620      	mov	r0, r4
 8006d3c:	f001 fb3c 	bl	80083b8 <vPortFree>
 8006d40:	e7c3      	b.n	8006cca <prvIdleTask+0x16>
 8006d42:	bf00      	nop
 8006d44:	200016a4 	.word	0x200016a4
 8006d48:	200016a0 	.word	0x200016a0
 8006d4c:	20001714 	.word	0x20001714
 8006d50:	2000123c 	.word	0x2000123c
 8006d54:	e000ed04 	.word	0xe000ed04

08006d58 <xTaskIncrementTick.part.0>:
BaseType_t xTaskIncrementTick( void )
 8006d58:	e92d 4ff0 	stmdb	sp!, {r4, r5, r6, r7, r8, r9, sl, fp, lr}
		const TickType_t xConstTickCount = xTickCount + ( TickType_t ) 1;
 8006d5c:	4b47      	ldr	r3, [pc, #284]	; (8006e7c <xTaskIncrementTick.part.0+0x124>)
 8006d5e:	681e      	ldr	r6, [r3, #0]
 8006d60:	3601      	adds	r6, #1
BaseType_t xTaskIncrementTick( void )
 8006d62:	b083      	sub	sp, #12
		xTickCount = xConstTickCount;
 8006d64:	601e      	str	r6, [r3, #0]
		if( xConstTickCount == ( TickType_t ) 0U ) /*lint !e774 'if' does not always evaluate to false as it is looking for an overflow. */
 8006d66:	2e00      	cmp	r6, #0
 8006d68:	d041      	beq.n	8006dee <xTaskIncrementTick.part.0+0x96>
 8006d6a:	4d45      	ldr	r5, [pc, #276]	; (8006e80 <xTaskIncrementTick.part.0+0x128>)
		if( xConstTickCount >= xNextTaskUnblockTime )
 8006d6c:	682b      	ldr	r3, [r5, #0]
 8006d6e:	429e      	cmp	r6, r3
 8006d70:	d34a      	bcc.n	8006e08 <xTaskIncrementTick.part.0+0xb0>
				if( listLIST_IS_EMPTY( pxDelayedTaskList ) != pdFALSE )
 8006d72:	f8df a110 	ldr.w	sl, [pc, #272]	; 8006e84 <xTaskIncrementTick.part.0+0x12c>
 8006d76:	f8da 3000 	ldr.w	r3, [sl]
 8006d7a:	681c      	ldr	r4, [r3, #0]
 8006d7c:	2c00      	cmp	r4, #0
 8006d7e:	d074      	beq.n	8006e6a <xTaskIncrementTick.part.0+0x112>
 8006d80:	f8df 8110 	ldr.w	r8, [pc, #272]	; 8006e94 <xTaskIncrementTick.part.0+0x13c>
 8006d84:	f8df 9110 	ldr.w	r9, [pc, #272]	; 8006e98 <xTaskIncrementTick.part.0+0x140>
					prvAddTaskToReadyList( pxTCB );
 8006d88:	f8df b110 	ldr.w	fp, [pc, #272]	; 8006e9c <xTaskIncrementTick.part.0+0x144>
BaseType_t xSwitchRequired = pdFALSE;
 8006d8c:	2400      	movs	r4, #0
 8006d8e:	e023      	b.n	8006dd8 <xTaskIncrementTick.part.0+0x80>
 8006d90:	9101      	str	r1, [sp, #4]
					( void ) uxListRemove( &( pxTCB->xStateListItem ) );
 8006d92:	f7ff fa43 	bl	800621c <uxListRemove>
					if( listLIST_ITEM_CONTAINER( &( pxTCB->xEventListItem ) ) != NULL )
 8006d96:	6abb      	ldr	r3, [r7, #40]	; 0x28
 8006d98:	9901      	ldr	r1, [sp, #4]
						( void ) uxListRemove( &( pxTCB->xEventListItem ) );
 8006d9a:	f107 0018 	add.w	r0, r7, #24
					if( listLIST_ITEM_CONTAINER( &( pxTCB->xEventListItem ) ) != NULL )
 8006d9e:	b113      	cbz	r3, 8006da6 <xTaskIncrementTick.part.0+0x4e>
						( void ) uxListRemove( &( pxTCB->xEventListItem ) );
 8006da0:	f7ff fa3c 	bl	800621c <uxListRemove>
 8006da4:	9901      	ldr	r1, [sp, #4]
					prvAddTaskToReadyList( pxTCB );
 8006da6:	6afb      	ldr	r3, [r7, #44]	; 0x2c
 8006da8:	f8db 2000 	ldr.w	r2, [fp]
 8006dac:	eb03 0083 	add.w	r0, r3, r3, lsl #2
 8006db0:	4293      	cmp	r3, r2
 8006db2:	eb08 0080 	add.w	r0, r8, r0, lsl #2
 8006db6:	bf88      	it	hi
 8006db8:	f8cb 3000 	strhi.w	r3, [fp]
 8006dbc:	f7ff fa06 	bl	80061cc <vListInsertEnd>
						if( pxTCB->uxPriority >= pxCurrentTCB->uxPriority )
 8006dc0:	f8d9 2000 	ldr.w	r2, [r9]
				if( listLIST_IS_EMPTY( pxDelayedTaskList ) != pdFALSE )
 8006dc4:	f8da 3000 	ldr.w	r3, [sl]
						if( pxTCB->uxPriority >= pxCurrentTCB->uxPriority )
 8006dc8:	6af9      	ldr	r1, [r7, #44]	; 0x2c
 8006dca:	6ad2      	ldr	r2, [r2, #44]	; 0x2c
				if( listLIST_IS_EMPTY( pxDelayedTaskList ) != pdFALSE )
 8006dcc:	681b      	ldr	r3, [r3, #0]
							xSwitchRequired = pdTRUE;
 8006dce:	4291      	cmp	r1, r2
 8006dd0:	bf28      	it	cs
 8006dd2:	2401      	movcs	r4, #1
				if( listLIST_IS_EMPTY( pxDelayedTaskList ) != pdFALSE )
 8006dd4:	2b00      	cmp	r3, #0
 8006dd6:	d04c      	beq.n	8006e72 <xTaskIncrementTick.part.0+0x11a>
					pxTCB = listGET_OWNER_OF_HEAD_ENTRY( pxDelayedTaskList ); /*lint !e9079 void * is used as this macro is used with timers and co-routines too.  Alignment is known to be fine as the type of the pointer stored and retrieved is the same. */
 8006dd8:	f8da 3000 	ldr.w	r3, [sl]
 8006ddc:	68db      	ldr	r3, [r3, #12]
 8006dde:	68df      	ldr	r7, [r3, #12]
					xItemValue = listGET_LIST_ITEM_VALUE( &( pxTCB->xStateListItem ) );
 8006de0:	687b      	ldr	r3, [r7, #4]
					( void ) uxListRemove( &( pxTCB->xStateListItem ) );
 8006de2:	1d39      	adds	r1, r7, #4
					if( xConstTickCount < xItemValue )
 8006de4:	429e      	cmp	r6, r3
					( void ) uxListRemove( &( pxTCB->xStateListItem ) );
 8006de6:	4608      	mov	r0, r1
					if( xConstTickCount < xItemValue )
 8006de8:	d2d2      	bcs.n	8006d90 <xTaskIncrementTick.part.0+0x38>
						xNextTaskUnblockTime = xItemValue;
 8006dea:	602b      	str	r3, [r5, #0]
						break; /*lint !e9011 Code structure here is deedmed easier to understand with multiple breaks. */
 8006dec:	e011      	b.n	8006e12 <xTaskIncrementTick.part.0+0xba>
			taskSWITCH_DELAYED_LISTS();
 8006dee:	4b25      	ldr	r3, [pc, #148]	; (8006e84 <xTaskIncrementTick.part.0+0x12c>)
 8006df0:	681a      	ldr	r2, [r3, #0]
 8006df2:	6812      	ldr	r2, [r2, #0]
 8006df4:	b30a      	cbz	r2, 8006e3a <xTaskIncrementTick.part.0+0xe2>
 8006df6:	f04f 0350 	mov.w	r3, #80	; 0x50
 8006dfa:	f383 8811 	msr	BASEPRI, r3
 8006dfe:	f3bf 8f6f 	isb	sy
 8006e02:	f3bf 8f4f 	dsb	sy
 8006e06:	e7fe      	b.n	8006e06 <xTaskIncrementTick.part.0+0xae>
 8006e08:	f8df 8088 	ldr.w	r8, [pc, #136]	; 8006e94 <xTaskIncrementTick.part.0+0x13c>
 8006e0c:	f8df 9088 	ldr.w	r9, [pc, #136]	; 8006e98 <xTaskIncrementTick.part.0+0x140>
BaseType_t xSwitchRequired = pdFALSE;
 8006e10:	2400      	movs	r4, #0
			if( listCURRENT_LIST_LENGTH( &( pxReadyTasksLists[ pxCurrentTCB->uxPriority ] ) ) > ( UBaseType_t ) 1 )
 8006e12:	f8d9 3000 	ldr.w	r3, [r9]
			if( xYieldPending != pdFALSE )
 8006e16:	491c      	ldr	r1, [pc, #112]	; (8006e88 <xTaskIncrementTick.part.0+0x130>)
			if( listCURRENT_LIST_LENGTH( &( pxReadyTasksLists[ pxCurrentTCB->uxPriority ] ) ) > ( UBaseType_t ) 1 )
 8006e18:	6adb      	ldr	r3, [r3, #44]	; 0x2c
 8006e1a:	eb03 0383 	add.w	r3, r3, r3, lsl #2
 8006e1e:	009b      	lsls	r3, r3, #2
 8006e20:	f858 2003 	ldr.w	r2, [r8, r3]
			if( xYieldPending != pdFALSE )
 8006e24:	680b      	ldr	r3, [r1, #0]
				xSwitchRequired = pdTRUE;
 8006e26:	2a02      	cmp	r2, #2
 8006e28:	bf28      	it	cs
 8006e2a:	2401      	movcs	r4, #1
				xSwitchRequired = pdTRUE;
 8006e2c:	2b00      	cmp	r3, #0
}
 8006e2e:	bf0c      	ite	eq
 8006e30:	4620      	moveq	r0, r4
 8006e32:	2001      	movne	r0, #1
 8006e34:	b003      	add	sp, #12
 8006e36:	e8bd 8ff0 	ldmia.w	sp!, {r4, r5, r6, r7, r8, r9, sl, fp, pc}
			taskSWITCH_DELAYED_LISTS();
 8006e3a:	4a14      	ldr	r2, [pc, #80]	; (8006e8c <xTaskIncrementTick.part.0+0x134>)
 8006e3c:	6818      	ldr	r0, [r3, #0]
 8006e3e:	4914      	ldr	r1, [pc, #80]	; (8006e90 <xTaskIncrementTick.part.0+0x138>)
 8006e40:	6814      	ldr	r4, [r2, #0]
 8006e42:	601c      	str	r4, [r3, #0]
 8006e44:	6010      	str	r0, [r2, #0]
 8006e46:	680a      	ldr	r2, [r1, #0]
 8006e48:	3201      	adds	r2, #1
 8006e4a:	600a      	str	r2, [r1, #0]

static void prvResetNextTaskUnblockTime( void )
{
TCB_t *pxTCB;

	if( listLIST_IS_EMPTY( pxDelayedTaskList ) != pdFALSE )
 8006e4c:	681a      	ldr	r2, [r3, #0]
 8006e4e:	6812      	ldr	r2, [r2, #0]
 8006e50:	b922      	cbnz	r2, 8006e5c <xTaskIncrementTick.part.0+0x104>
	{
		/* The new current delayed list is empty.  Set xNextTaskUnblockTime to
		the maximum possible value so it is	extremely unlikely that the
		if( xTickCount >= xNextTaskUnblockTime ) test will pass until
		there is an item in the delayed list. */
		xNextTaskUnblockTime = portMAX_DELAY;
 8006e52:	4d0b      	ldr	r5, [pc, #44]	; (8006e80 <xTaskIncrementTick.part.0+0x128>)
 8006e54:	f04f 33ff 	mov.w	r3, #4294967295
 8006e58:	602b      	str	r3, [r5, #0]
 8006e5a:	e787      	b.n	8006d6c <xTaskIncrementTick.part.0+0x14>
	{
		/* The new current delayed list is not empty, get the value of
		the item at the head of the delayed list.  This is the time at
		which the task at the head of the delayed list should be removed
		from the Blocked state. */
		( pxTCB ) = listGET_OWNER_OF_HEAD_ENTRY( pxDelayedTaskList ); /*lint !e9079 void * is used as this macro is used with timers and co-routines too.  Alignment is known to be fine as the type of the pointer stored and retrieved is the same. */
 8006e5c:	681b      	ldr	r3, [r3, #0]
		xNextTaskUnblockTime = listGET_LIST_ITEM_VALUE( &( ( pxTCB )->xStateListItem ) );
 8006e5e:	4d08      	ldr	r5, [pc, #32]	; (8006e80 <xTaskIncrementTick.part.0+0x128>)
		( pxTCB ) = listGET_OWNER_OF_HEAD_ENTRY( pxDelayedTaskList ); /*lint !e9079 void * is used as this macro is used with timers and co-routines too.  Alignment is known to be fine as the type of the pointer stored and retrieved is the same. */
 8006e60:	68db      	ldr	r3, [r3, #12]
		xNextTaskUnblockTime = listGET_LIST_ITEM_VALUE( &( ( pxTCB )->xStateListItem ) );
 8006e62:	68db      	ldr	r3, [r3, #12]
 8006e64:	685b      	ldr	r3, [r3, #4]
 8006e66:	602b      	str	r3, [r5, #0]
	}
}
 8006e68:	e780      	b.n	8006d6c <xTaskIncrementTick.part.0+0x14>
 8006e6a:	f8df 8028 	ldr.w	r8, [pc, #40]	; 8006e94 <xTaskIncrementTick.part.0+0x13c>
 8006e6e:	f8df 9028 	ldr.w	r9, [pc, #40]	; 8006e98 <xTaskIncrementTick.part.0+0x140>
					xNextTaskUnblockTime = portMAX_DELAY; /*lint !e961 MISRA exception as the casts are only redundant for some ports. */
 8006e72:	f04f 33ff 	mov.w	r3, #4294967295
 8006e76:	602b      	str	r3, [r5, #0]
					break;
 8006e78:	e7cb      	b.n	8006e12 <xTaskIncrementTick.part.0+0xba>
 8006e7a:	bf00      	nop
 8006e7c:	20001728 	.word	0x20001728
 8006e80:	200016dc 	.word	0x200016dc
 8006e84:	20001234 	.word	0x20001234
 8006e88:	2000172c 	.word	0x2000172c
 8006e8c:	20001238 	.word	0x20001238
 8006e90:	200016e0 	.word	0x200016e0
 8006e94:	2000123c 	.word	0x2000123c
 8006e98:	20001230 	.word	0x20001230
 8006e9c:	200016b0 	.word	0x200016b0

08006ea0 <xTaskResumeAll.part.0>:
BaseType_t xTaskResumeAll( void )
 8006ea0:	e92d 4ff0 	stmdb	sp!, {r4, r5, r6, r7, r8, r9, sl, fp, lr}
		--uxSchedulerSuspended;
 8006ea4:	4d40      	ldr	r5, [pc, #256]	; (8006fa8 <xTaskResumeAll.part.0+0x108>)
BaseType_t xTaskResumeAll( void )
 8006ea6:	b083      	sub	sp, #12
	taskENTER_CRITICAL();
 8006ea8:	f001 f864 	bl	8007f74 <vPortEnterCritical>
		--uxSchedulerSuspended;
 8006eac:	682b      	ldr	r3, [r5, #0]
 8006eae:	3b01      	subs	r3, #1
 8006eb0:	602b      	str	r3, [r5, #0]
		if( uxSchedulerSuspended == ( UBaseType_t ) pdFALSE )
 8006eb2:	682b      	ldr	r3, [r5, #0]
 8006eb4:	2b00      	cmp	r3, #0
 8006eb6:	d15f      	bne.n	8006f78 <xTaskResumeAll.part.0+0xd8>
			if( uxCurrentNumberOfTasks > ( UBaseType_t ) 0U )
 8006eb8:	4b3c      	ldr	r3, [pc, #240]	; (8006fac <xTaskResumeAll.part.0+0x10c>)
 8006eba:	681b      	ldr	r3, [r3, #0]
 8006ebc:	2b00      	cmp	r3, #0
 8006ebe:	d05b      	beq.n	8006f78 <xTaskResumeAll.part.0+0xd8>
				while( listLIST_IS_EMPTY( &xPendingReadyList ) == pdFALSE )
 8006ec0:	4e3b      	ldr	r6, [pc, #236]	; (8006fb0 <xTaskResumeAll.part.0+0x110>)
 8006ec2:	6833      	ldr	r3, [r6, #0]
 8006ec4:	2b00      	cmp	r3, #0
 8006ec6:	d06c      	beq.n	8006fa2 <xTaskResumeAll.part.0+0x102>
 8006ec8:	4f3a      	ldr	r7, [pc, #232]	; (8006fb4 <xTaskResumeAll.part.0+0x114>)
 8006eca:	f8df 90fc 	ldr.w	r9, [pc, #252]	; 8006fc8 <xTaskResumeAll.part.0+0x128>
 8006ece:	f8df 80fc 	ldr.w	r8, [pc, #252]	; 8006fcc <xTaskResumeAll.part.0+0x12c>
 8006ed2:	f8df a0fc 	ldr.w	sl, [pc, #252]	; 8006fd0 <xTaskResumeAll.part.0+0x130>
					pxTCB = listGET_OWNER_OF_HEAD_ENTRY( ( &xPendingReadyList ) ); /*lint !e9079 void * is used as this macro is used with timers and co-routines too.  Alignment is known to be fine as the type of the pointer stored and retrieved is the same. */
 8006ed6:	68f3      	ldr	r3, [r6, #12]
 8006ed8:	68dc      	ldr	r4, [r3, #12]
					( void ) uxListRemove( &( pxTCB->xStateListItem ) );
 8006eda:	f104 0b04 	add.w	fp, r4, #4
					( void ) uxListRemove( &( pxTCB->xEventListItem ) );
 8006ede:	f104 0018 	add.w	r0, r4, #24
 8006ee2:	f7ff f99b 	bl	800621c <uxListRemove>
					( void ) uxListRemove( &( pxTCB->xStateListItem ) );
 8006ee6:	4658      	mov	r0, fp
 8006ee8:	f7ff f998 	bl	800621c <uxListRemove>
					prvAddTaskToReadyList( pxTCB );
 8006eec:	6ae3      	ldr	r3, [r4, #44]	; 0x2c
 8006eee:	683a      	ldr	r2, [r7, #0]
 8006ef0:	eb03 0083 	add.w	r0, r3, r3, lsl #2
 8006ef4:	4293      	cmp	r3, r2
 8006ef6:	4659      	mov	r1, fp
 8006ef8:	eb09 0080 	add.w	r0, r9, r0, lsl #2
 8006efc:	bf88      	it	hi
 8006efe:	603b      	strhi	r3, [r7, #0]
 8006f00:	f7ff f964 	bl	80061cc <vListInsertEnd>
					if( pxTCB->uxPriority >= pxCurrentTCB->uxPriority )
 8006f04:	f8d8 3000 	ldr.w	r3, [r8]
 8006f08:	6ae2      	ldr	r2, [r4, #44]	; 0x2c
 8006f0a:	6adb      	ldr	r3, [r3, #44]	; 0x2c
 8006f0c:	429a      	cmp	r2, r3
 8006f0e:	d33b      	bcc.n	8006f88 <xTaskResumeAll.part.0+0xe8>
						xYieldPending = pdTRUE;
 8006f10:	2301      	movs	r3, #1
 8006f12:	f8ca 3000 	str.w	r3, [sl]
				while( listLIST_IS_EMPTY( &xPendingReadyList ) == pdFALSE )
 8006f16:	6833      	ldr	r3, [r6, #0]
 8006f18:	2b00      	cmp	r3, #0
 8006f1a:	d1dc      	bne.n	8006ed6 <xTaskResumeAll.part.0+0x36>
	if( listLIST_IS_EMPTY( pxDelayedTaskList ) != pdFALSE )
 8006f1c:	4b26      	ldr	r3, [pc, #152]	; (8006fb8 <xTaskResumeAll.part.0+0x118>)
 8006f1e:	681a      	ldr	r2, [r3, #0]
 8006f20:	6812      	ldr	r2, [r2, #0]
 8006f22:	2a00      	cmp	r2, #0
 8006f24:	d038      	beq.n	8006f98 <xTaskResumeAll.part.0+0xf8>
		( pxTCB ) = listGET_OWNER_OF_HEAD_ENTRY( pxDelayedTaskList ); /*lint !e9079 void * is used as this macro is used with timers and co-routines too.  Alignment is known to be fine as the type of the pointer stored and retrieved is the same. */
 8006f26:	681a      	ldr	r2, [r3, #0]
		xNextTaskUnblockTime = listGET_LIST_ITEM_VALUE( &( ( pxTCB )->xStateListItem ) );
 8006f28:	4b24      	ldr	r3, [pc, #144]	; (8006fbc <xTaskResumeAll.part.0+0x11c>)
		( pxTCB ) = listGET_OWNER_OF_HEAD_ENTRY( pxDelayedTaskList ); /*lint !e9079 void * is used as this macro is used with timers and co-routines too.  Alignment is known to be fine as the type of the pointer stored and retrieved is the same. */
 8006f2a:	68d2      	ldr	r2, [r2, #12]
		xNextTaskUnblockTime = listGET_LIST_ITEM_VALUE( &( ( pxTCB )->xStateListItem ) );
 8006f2c:	68d2      	ldr	r2, [r2, #12]
 8006f2e:	6852      	ldr	r2, [r2, #4]
 8006f30:	601a      	str	r2, [r3, #0]
					TickType_t xPendedCounts = xPendedTicks; /* Non-volatile copy. */
 8006f32:	4e23      	ldr	r6, [pc, #140]	; (8006fc0 <xTaskResumeAll.part.0+0x120>)
 8006f34:	6834      	ldr	r4, [r6, #0]
					if( xPendedCounts > ( TickType_t ) 0U )
 8006f36:	b194      	cbz	r4, 8006f5e <xTaskResumeAll.part.0+0xbe>
								xYieldPending = pdTRUE;
 8006f38:	2701      	movs	r7, #1
 8006f3a:	e006      	b.n	8006f4a <xTaskResumeAll.part.0+0xaa>
 8006f3c:	f7ff ff0c 	bl	8006d58 <xTaskIncrementTick.part.0>
							if( xTaskIncrementTick() != pdFALSE )
 8006f40:	b108      	cbz	r0, 8006f46 <xTaskResumeAll.part.0+0xa6>
								xYieldPending = pdTRUE;
 8006f42:	f8ca 7000 	str.w	r7, [sl]
						} while( xPendedCounts > ( TickType_t ) 0U );
 8006f46:	3c01      	subs	r4, #1
 8006f48:	d008      	beq.n	8006f5c <xTaskResumeAll.part.0+0xbc>
	if( uxSchedulerSuspended == ( UBaseType_t ) pdFALSE )
 8006f4a:	682b      	ldr	r3, [r5, #0]
 8006f4c:	2b00      	cmp	r3, #0
 8006f4e:	d0f5      	beq.n	8006f3c <xTaskResumeAll.part.0+0x9c>
		++xPendedTicks;
 8006f50:	6833      	ldr	r3, [r6, #0]
						} while( xPendedCounts > ( TickType_t ) 0U );
 8006f52:	3c01      	subs	r4, #1
		++xPendedTicks;
 8006f54:	f103 0301 	add.w	r3, r3, #1
 8006f58:	6033      	str	r3, [r6, #0]
						} while( xPendedCounts > ( TickType_t ) 0U );
 8006f5a:	d1f6      	bne.n	8006f4a <xTaskResumeAll.part.0+0xaa>
						xPendedTicks = 0;
 8006f5c:	6034      	str	r4, [r6, #0]
				if( xYieldPending != pdFALSE )
 8006f5e:	f8da 3000 	ldr.w	r3, [sl]
 8006f62:	b14b      	cbz	r3, 8006f78 <xTaskResumeAll.part.0+0xd8>
					taskYIELD_IF_USING_PREEMPTION();
 8006f64:	4b17      	ldr	r3, [pc, #92]	; (8006fc4 <xTaskResumeAll.part.0+0x124>)
 8006f66:	f04f 5280 	mov.w	r2, #268435456	; 0x10000000
 8006f6a:	601a      	str	r2, [r3, #0]
 8006f6c:	f3bf 8f4f 	dsb	sy
 8006f70:	f3bf 8f6f 	isb	sy
						xAlreadyYielded = pdTRUE;
 8006f74:	2001      	movs	r0, #1
 8006f76:	e000      	b.n	8006f7a <xTaskResumeAll.part.0+0xda>
BaseType_t xAlreadyYielded = pdFALSE;
 8006f78:	2000      	movs	r0, #0
 8006f7a:	9001      	str	r0, [sp, #4]
	taskEXIT_CRITICAL();
 8006f7c:	f001 f81c 	bl	8007fb8 <vPortExitCritical>
}
 8006f80:	9801      	ldr	r0, [sp, #4]
 8006f82:	b003      	add	sp, #12
 8006f84:	e8bd 8ff0 	ldmia.w	sp!, {r4, r5, r6, r7, r8, r9, sl, fp, pc}
				while( listLIST_IS_EMPTY( &xPendingReadyList ) == pdFALSE )
 8006f88:	6833      	ldr	r3, [r6, #0]
 8006f8a:	2b00      	cmp	r3, #0
 8006f8c:	d1a3      	bne.n	8006ed6 <xTaskResumeAll.part.0+0x36>
	if( listLIST_IS_EMPTY( pxDelayedTaskList ) != pdFALSE )
 8006f8e:	4b0a      	ldr	r3, [pc, #40]	; (8006fb8 <xTaskResumeAll.part.0+0x118>)
 8006f90:	681a      	ldr	r2, [r3, #0]
 8006f92:	6812      	ldr	r2, [r2, #0]
 8006f94:	2a00      	cmp	r2, #0
 8006f96:	d1c6      	bne.n	8006f26 <xTaskResumeAll.part.0+0x86>
		xNextTaskUnblockTime = portMAX_DELAY;
 8006f98:	4b08      	ldr	r3, [pc, #32]	; (8006fbc <xTaskResumeAll.part.0+0x11c>)
 8006f9a:	f04f 32ff 	mov.w	r2, #4294967295
 8006f9e:	601a      	str	r2, [r3, #0]
 8006fa0:	e7c7      	b.n	8006f32 <xTaskResumeAll.part.0+0x92>
 8006fa2:	f8df a02c 	ldr.w	sl, [pc, #44]	; 8006fd0 <xTaskResumeAll.part.0+0x130>
 8006fa6:	e7c4      	b.n	8006f32 <xTaskResumeAll.part.0+0x92>
 8006fa8:	200016a8 	.word	0x200016a8
 8006fac:	200016a0 	.word	0x200016a0
 8006fb0:	200016e8 	.word	0x200016e8
 8006fb4:	200016b0 	.word	0x200016b0
 8006fb8:	20001234 	.word	0x20001234
 8006fbc:	200016dc 	.word	0x200016dc
 8006fc0:	200016e4 	.word	0x200016e4
 8006fc4:	e000ed04 	.word	0xe000ed04
 8006fc8:	2000123c 	.word	0x2000123c
 8006fcc:	20001230 	.word	0x20001230
 8006fd0:	2000172c 	.word	0x2000172c

08006fd4 <xTaskCreateStatic>:
	{
 8006fd4:	b5f0      	push	{r4, r5, r6, r7, lr}
 8006fd6:	b087      	sub	sp, #28
 8006fd8:	e9dd 650c 	ldrd	r6, r5, [sp, #48]	; 0x30
 8006fdc:	9c0e      	ldr	r4, [sp, #56]	; 0x38
		configASSERT( puxStackBuffer != NULL );
 8006fde:	b1bd      	cbz	r5, 8007010 <xTaskCreateStatic+0x3c>
		configASSERT( pxTaskBuffer != NULL );
 8006fe0:	b16c      	cbz	r4, 8006ffe <xTaskCreateStatic+0x2a>
			volatile size_t xSize = sizeof( StaticTask_t );
 8006fe2:	276c      	movs	r7, #108	; 0x6c
 8006fe4:	9705      	str	r7, [sp, #20]
			configASSERT( xSize == sizeof( TCB_t ) );
 8006fe6:	9f05      	ldr	r7, [sp, #20]
 8006fe8:	2f6c      	cmp	r7, #108	; 0x6c
 8006fea:	d01a      	beq.n	8007022 <xTaskCreateStatic+0x4e>
 8006fec:	f04f 0350 	mov.w	r3, #80	; 0x50
 8006ff0:	f383 8811 	msr	BASEPRI, r3
 8006ff4:	f3bf 8f6f 	isb	sy
 8006ff8:	f3bf 8f4f 	dsb	sy
 8006ffc:	e7fe      	b.n	8006ffc <xTaskCreateStatic+0x28>
 8006ffe:	f04f 0350 	mov.w	r3, #80	; 0x50
 8007002:	f383 8811 	msr	BASEPRI, r3
 8007006:	f3bf 8f6f 	isb	sy
 800700a:	f3bf 8f4f 	dsb	sy
		configASSERT( pxTaskBuffer != NULL );
 800700e:	e7fe      	b.n	800700e <xTaskCreateStatic+0x3a>
 8007010:	f04f 0350 	mov.w	r3, #80	; 0x50
 8007014:	f383 8811 	msr	BASEPRI, r3
 8007018:	f3bf 8f6f 	isb	sy
 800701c:	f3bf 8f4f 	dsb	sy
		configASSERT( puxStackBuffer != NULL );
 8007020:	e7fe      	b.n	8007020 <xTaskCreateStatic+0x4c>
			pxNewTCB->pxStack = ( StackType_t * ) puxStackBuffer;
 8007022:	6325      	str	r5, [r4, #48]	; 0x30
				pxNewTCB->ucStaticallyAllocated = tskSTATICALLY_ALLOCATED_STACK_AND_TCB;
 8007024:	2702      	movs	r7, #2
			prvInitialiseNewTask( pxTaskCode, pcName, ulStackDepth, pvParameters, uxPriority, &xReturn, pxNewTCB, NULL );
 8007026:	ad04      	add	r5, sp, #16
 8007028:	9402      	str	r4, [sp, #8]
 800702a:	9600      	str	r6, [sp, #0]
				pxNewTCB->ucStaticallyAllocated = tskSTATICALLY_ALLOCATED_STACK_AND_TCB;
 800702c:	f884 7069 	strb.w	r7, [r4, #105]	; 0x69
			prvInitialiseNewTask( pxTaskCode, pcName, ulStackDepth, pvParameters, uxPriority, &xReturn, pxNewTCB, NULL );
 8007030:	9501      	str	r5, [sp, #4]
			( void ) xSize; /* Prevent lint warning when configASSERT() is not used. */
 8007032:	9d05      	ldr	r5, [sp, #20]
			prvInitialiseNewTask( pxTaskCode, pcName, ulStackDepth, pvParameters, uxPriority, &xReturn, pxNewTCB, NULL );
 8007034:	f7ff fdea 	bl	8006c0c <prvInitialiseNewTask.isra.0>
			prvAddNewTaskToReadyList( pxNewTCB );
 8007038:	4620      	mov	r0, r4
 800703a:	f7ff fd5d 	bl	8006af8 <prvAddNewTaskToReadyList>
	}
 800703e:	9804      	ldr	r0, [sp, #16]
 8007040:	b007      	add	sp, #28
 8007042:	bdf0      	pop	{r4, r5, r6, r7, pc}

08007044 <xTaskCreate>:
	{
 8007044:	e92d 43f0 	stmdb	sp!, {r4, r5, r6, r7, r8, r9, lr}
 8007048:	4607      	mov	r7, r0
 800704a:	b085      	sub	sp, #20
			pxStack = pvPortMalloc( ( ( ( size_t ) usStackDepth ) * sizeof( StackType_t ) ) ); /*lint !e9079 All values returned by pvPortMalloc() have at least the alignment required by the MCU's stack and this allocation is the stack. */
 800704c:	0090      	lsls	r0, r2, #2
	{
 800704e:	4615      	mov	r5, r2
 8007050:	4688      	mov	r8, r1
 8007052:	4699      	mov	r9, r3
			pxStack = pvPortMalloc( ( ( ( size_t ) usStackDepth ) * sizeof( StackType_t ) ) ); /*lint !e9079 All values returned by pvPortMalloc() have at least the alignment required by the MCU's stack and this allocation is the stack. */
 8007054:	f001 f8f4 	bl	8008240 <pvPortMalloc>
			if( pxStack != NULL )
 8007058:	b1e0      	cbz	r0, 8007094 <xTaskCreate+0x50>
				pxNewTCB = ( TCB_t * ) pvPortMalloc( sizeof( TCB_t ) ); /*lint !e9087 !e9079 All values returned by pvPortMalloc() have at least the alignment required by the MCU's stack, and the first member of TCB_t is always a pointer to the task's stack. */
 800705a:	4604      	mov	r4, r0
 800705c:	206c      	movs	r0, #108	; 0x6c
 800705e:	f001 f8ef 	bl	8008240 <pvPortMalloc>
				if( pxNewTCB != NULL )
 8007062:	4606      	mov	r6, r0
 8007064:	b1d8      	cbz	r0, 800709e <xTaskCreate+0x5a>
					pxNewTCB->pxStack = pxStack;
 8007066:	6304      	str	r4, [r0, #48]	; 0x30
				pxNewTCB->ucStaticallyAllocated = tskDYNAMICALLY_ALLOCATED_STACK_AND_TCB;
 8007068:	f04f 0c00 	mov.w	ip, #0
			prvInitialiseNewTask( pxTaskCode, pcName, ( uint32_t ) usStackDepth, pvParameters, uxPriority, pxCreatedTask, pxNewTCB, NULL );
 800706c:	9c0d      	ldr	r4, [sp, #52]	; 0x34
				pxNewTCB->ucStaticallyAllocated = tskDYNAMICALLY_ALLOCATED_STACK_AND_TCB;
 800706e:	f886 c069 	strb.w	ip, [r6, #105]	; 0x69
			prvInitialiseNewTask( pxTaskCode, pcName, ( uint32_t ) usStackDepth, pvParameters, uxPriority, pxCreatedTask, pxNewTCB, NULL );
 8007072:	9401      	str	r4, [sp, #4]
 8007074:	9c0c      	ldr	r4, [sp, #48]	; 0x30
 8007076:	9602      	str	r6, [sp, #8]
 8007078:	464b      	mov	r3, r9
 800707a:	462a      	mov	r2, r5
 800707c:	4641      	mov	r1, r8
 800707e:	4638      	mov	r0, r7
 8007080:	9400      	str	r4, [sp, #0]
 8007082:	f7ff fdc3 	bl	8006c0c <prvInitialiseNewTask.isra.0>
			prvAddNewTaskToReadyList( pxNewTCB );
 8007086:	4630      	mov	r0, r6
 8007088:	f7ff fd36 	bl	8006af8 <prvAddNewTaskToReadyList>
			xReturn = pdPASS;
 800708c:	2001      	movs	r0, #1
	}
 800708e:	b005      	add	sp, #20
 8007090:	e8bd 83f0 	ldmia.w	sp!, {r4, r5, r6, r7, r8, r9, pc}
			xReturn = errCOULD_NOT_ALLOCATE_REQUIRED_MEMORY;
 8007094:	f04f 30ff 	mov.w	r0, #4294967295
	}
 8007098:	b005      	add	sp, #20
 800709a:	e8bd 83f0 	ldmia.w	sp!, {r4, r5, r6, r7, r8, r9, pc}
					vPortFree( pxStack );
 800709e:	4620      	mov	r0, r4
 80070a0:	f001 f98a 	bl	80083b8 <vPortFree>
			xReturn = errCOULD_NOT_ALLOCATE_REQUIRED_MEMORY;
 80070a4:	f04f 30ff 	mov.w	r0, #4294967295
 80070a8:	e7f1      	b.n	800708e <xTaskCreate+0x4a>
 80070aa:	bf00      	nop

080070ac <vTaskDelayUntil>:
		configASSERT( pxPreviousWakeTime );
 80070ac:	b338      	cbz	r0, 80070fe <vTaskDelayUntil+0x52>
		configASSERT( ( xTimeIncrement > 0U ) );
 80070ae:	b941      	cbnz	r1, 80070c2 <vTaskDelayUntil+0x16>
 80070b0:	f04f 0350 	mov.w	r3, #80	; 0x50
 80070b4:	f383 8811 	msr	BASEPRI, r3
 80070b8:	f3bf 8f6f 	isb	sy
 80070bc:	f3bf 8f4f 	dsb	sy
 80070c0:	e7fe      	b.n	80070c0 <vTaskDelayUntil+0x14>
	{
 80070c2:	e92d 41f0 	stmdb	sp!, {r4, r5, r6, r7, r8, lr}
		configASSERT( uxSchedulerSuspended == 0 );
 80070c6:	4f31      	ldr	r7, [pc, #196]	; (800718c <vTaskDelayUntil+0xe0>)
 80070c8:	683b      	ldr	r3, [r7, #0]
 80070ca:	bb0b      	cbnz	r3, 8007110 <vTaskDelayUntil+0x64>
	++uxSchedulerSuspended;
 80070cc:	683b      	ldr	r3, [r7, #0]
 80070ce:	3301      	adds	r3, #1
 80070d0:	603b      	str	r3, [r7, #0]
			const TickType_t xConstTickCount = xTickCount;
 80070d2:	4d2f      	ldr	r5, [pc, #188]	; (8007190 <vTaskDelayUntil+0xe4>)
			xTimeToWake = *pxPreviousWakeTime + xTimeIncrement;
 80070d4:	6802      	ldr	r2, [r0, #0]
			const TickType_t xConstTickCount = xTickCount;
 80070d6:	682b      	ldr	r3, [r5, #0]
			xTimeToWake = *pxPreviousWakeTime + xTimeIncrement;
 80070d8:	1854      	adds	r4, r2, r1
 80070da:	bf2c      	ite	cs
 80070dc:	2101      	movcs	r1, #1
 80070de:	2100      	movcc	r1, #0
			if( xConstTickCount < *pxPreviousWakeTime )
 80070e0:	429a      	cmp	r2, r3
			*pxPreviousWakeTime = xTimeToWake;
 80070e2:	6004      	str	r4, [r0, #0]
			if( xConstTickCount < *pxPreviousWakeTime )
 80070e4:	d92a      	bls.n	800713c <vTaskDelayUntil+0x90>
				if( ( xTimeToWake < *pxPreviousWakeTime ) && ( xTimeToWake > xConstTickCount ) )
 80070e6:	bb51      	cbnz	r1, 800713e <vTaskDelayUntil+0x92>
	configASSERT( uxSchedulerSuspended );
 80070e8:	683b      	ldr	r3, [r7, #0]
 80070ea:	b9d3      	cbnz	r3, 8007122 <vTaskDelayUntil+0x76>
 80070ec:	f04f 0350 	mov.w	r3, #80	; 0x50
 80070f0:	f383 8811 	msr	BASEPRI, r3
 80070f4:	f3bf 8f6f 	isb	sy
 80070f8:	f3bf 8f4f 	dsb	sy
 80070fc:	e7fe      	b.n	80070fc <vTaskDelayUntil+0x50>
 80070fe:	f04f 0350 	mov.w	r3, #80	; 0x50
 8007102:	f383 8811 	msr	BASEPRI, r3
 8007106:	f3bf 8f6f 	isb	sy
 800710a:	f3bf 8f4f 	dsb	sy
		configASSERT( pxPreviousWakeTime );
 800710e:	e7fe      	b.n	800710e <vTaskDelayUntil+0x62>
 8007110:	f04f 0350 	mov.w	r3, #80	; 0x50
 8007114:	f383 8811 	msr	BASEPRI, r3
 8007118:	f3bf 8f6f 	isb	sy
 800711c:	f3bf 8f4f 	dsb	sy
		configASSERT( uxSchedulerSuspended == 0 );
 8007120:	e7fe      	b.n	8007120 <vTaskDelayUntil+0x74>
 8007122:	f7ff febd 	bl	8006ea0 <xTaskResumeAll.part.0>
		if( xAlreadyYielded == pdFALSE )
 8007126:	b938      	cbnz	r0, 8007138 <vTaskDelayUntil+0x8c>
			portYIELD_WITHIN_API();
 8007128:	4b1a      	ldr	r3, [pc, #104]	; (8007194 <vTaskDelayUntil+0xe8>)
 800712a:	f04f 5280 	mov.w	r2, #268435456	; 0x10000000
 800712e:	601a      	str	r2, [r3, #0]
 8007130:	f3bf 8f4f 	dsb	sy
 8007134:	f3bf 8f6f 	isb	sy
	}
 8007138:	e8bd 81f0 	ldmia.w	sp!, {r4, r5, r6, r7, r8, pc}
				if( ( xTimeToWake < *pxPreviousWakeTime ) || ( xTimeToWake > xConstTickCount ) )
 800713c:	b909      	cbnz	r1, 8007142 <vTaskDelayUntil+0x96>
 800713e:	42a3      	cmp	r3, r4
 8007140:	d2d2      	bcs.n	80070e8 <vTaskDelayUntil+0x3c>
	#if( INCLUDE_xTaskAbortDelay == 1 )
	{
		/* About to enter a delayed list, so ensure the ucDelayAborted flag is
		reset to pdFALSE so it can be detected as having been set to pdTRUE
		when the task leaves the Blocked state. */
		pxCurrentTCB->ucDelayAborted = pdFALSE;
 8007142:	4e15      	ldr	r6, [pc, #84]	; (8007198 <vTaskDelayUntil+0xec>)
const TickType_t xConstTickCount = xTickCount;
 8007144:	f8d5 8000 	ldr.w	r8, [r5]
		pxCurrentTCB->ucDelayAborted = pdFALSE;
 8007148:	6832      	ldr	r2, [r6, #0]
	}
	#endif

	/* Remove the task from the ready list before adding it to the blocked list
	as the same list item is used for both lists. */
	if( uxListRemove( &( pxCurrentTCB->xStateListItem ) ) == ( UBaseType_t ) 0 )
 800714a:	6830      	ldr	r0, [r6, #0]
		pxCurrentTCB->ucDelayAborted = pdFALSE;
 800714c:	2100      	movs	r1, #0
 800714e:	eba8 0503 	sub.w	r5, r8, r3
	if( uxListRemove( &( pxCurrentTCB->xStateListItem ) ) == ( UBaseType_t ) 0 )
 8007152:	3004      	adds	r0, #4
		pxCurrentTCB->ucDelayAborted = pdFALSE;
 8007154:	f882 106a 	strb.w	r1, [r2, #106]	; 0x6a
	if( uxListRemove( &( pxCurrentTCB->xStateListItem ) ) == ( UBaseType_t ) 0 )
 8007158:	f7ff f860 	bl	800621c <uxListRemove>
		else
		{
			/* Calculate the time at which the task should be woken if the event
			does not occur.  This may overflow but this doesn't matter, the
			kernel will manage it correctly. */
			xTimeToWake = xConstTickCount + xTicksToWait;
 800715c:	442c      	add	r4, r5

			/* The list item will be inserted in wake time order. */
			listSET_LIST_ITEM_VALUE( &( pxCurrentTCB->xStateListItem ), xTimeToWake );
 800715e:	6833      	ldr	r3, [r6, #0]

			if( xTimeToWake < xConstTickCount )
 8007160:	45a0      	cmp	r8, r4
			listSET_LIST_ITEM_VALUE( &( pxCurrentTCB->xStateListItem ), xTimeToWake );
 8007162:	605c      	str	r4, [r3, #4]
			if( xTimeToWake < xConstTickCount )
 8007164:	d906      	bls.n	8007174 <vTaskDelayUntil+0xc8>
			{
				/* Wake time has overflowed.  Place this item in the overflow
				list. */
				vListInsert( pxOverflowDelayedTaskList, &( pxCurrentTCB->xStateListItem ) );
 8007166:	4b0d      	ldr	r3, [pc, #52]	; (800719c <vTaskDelayUntil+0xf0>)
 8007168:	6818      	ldr	r0, [r3, #0]
 800716a:	6831      	ldr	r1, [r6, #0]
 800716c:	3104      	adds	r1, #4
 800716e:	f7ff f83d 	bl	80061ec <vListInsert>
 8007172:	e7b9      	b.n	80070e8 <vTaskDelayUntil+0x3c>
			}
			else
			{
				/* The wake time has not overflowed, so the current block list
				is used. */
				vListInsert( pxDelayedTaskList, &( pxCurrentTCB->xStateListItem ) );
 8007174:	4b0a      	ldr	r3, [pc, #40]	; (80071a0 <vTaskDelayUntil+0xf4>)
 8007176:	6818      	ldr	r0, [r3, #0]
 8007178:	6831      	ldr	r1, [r6, #0]
 800717a:	3104      	adds	r1, #4
 800717c:	f7ff f836 	bl	80061ec <vListInsert>

				/* If the task entering the blocked state was placed at the
				head of the list of blocked tasks then xNextTaskUnblockTime
				needs to be updated too. */
				if( xTimeToWake < xNextTaskUnblockTime )
 8007180:	4b08      	ldr	r3, [pc, #32]	; (80071a4 <vTaskDelayUntil+0xf8>)
 8007182:	681a      	ldr	r2, [r3, #0]
 8007184:	4294      	cmp	r4, r2
				{
					xNextTaskUnblockTime = xTimeToWake;
 8007186:	bf38      	it	cc
 8007188:	601c      	strcc	r4, [r3, #0]
 800718a:	e7ad      	b.n	80070e8 <vTaskDelayUntil+0x3c>
 800718c:	200016a8 	.word	0x200016a8
 8007190:	20001728 	.word	0x20001728
 8007194:	e000ed04 	.word	0xe000ed04
 8007198:	20001230 	.word	0x20001230
 800719c:	20001238 	.word	0x20001238
 80071a0:	20001234 	.word	0x20001234
 80071a4:	200016dc 	.word	0x200016dc

080071a8 <vTaskResume>:
		configASSERT( xTaskToResume );
 80071a8:	b198      	cbz	r0, 80071d2 <vTaskResume+0x2a>
	{
 80071aa:	b530      	push	{r4, r5, lr}
		if( ( pxTCB != pxCurrentTCB ) && ( pxTCB != NULL ) )
 80071ac:	4d21      	ldr	r5, [pc, #132]	; (8007234 <vTaskResume+0x8c>)
 80071ae:	682b      	ldr	r3, [r5, #0]
 80071b0:	4283      	cmp	r3, r0
	{
 80071b2:	b083      	sub	sp, #12
 80071b4:	4604      	mov	r4, r0
		if( ( pxTCB != pxCurrentTCB ) && ( pxTCB != NULL ) )
 80071b6:	d00a      	beq.n	80071ce <vTaskResume+0x26>
			taskENTER_CRITICAL();
 80071b8:	f000 fedc 	bl	8007f74 <vPortEnterCritical>
		if( listIS_CONTAINED_WITHIN( &xSuspendedTaskList, &( pxTCB->xStateListItem ) ) != pdFALSE )
 80071bc:	4b1e      	ldr	r3, [pc, #120]	; (8007238 <vTaskResume+0x90>)
 80071be:	6962      	ldr	r2, [r4, #20]
 80071c0:	429a      	cmp	r2, r3
 80071c2:	d00f      	beq.n	80071e4 <vTaskResume+0x3c>
	}
 80071c4:	b003      	add	sp, #12
 80071c6:	e8bd 4030 	ldmia.w	sp!, {r4, r5, lr}
			taskEXIT_CRITICAL();
 80071ca:	f000 bef5 	b.w	8007fb8 <vPortExitCritical>
	}
 80071ce:	b003      	add	sp, #12
 80071d0:	bd30      	pop	{r4, r5, pc}
 80071d2:	f04f 0350 	mov.w	r3, #80	; 0x50
 80071d6:	f383 8811 	msr	BASEPRI, r3
 80071da:	f3bf 8f6f 	isb	sy
 80071de:	f3bf 8f4f 	dsb	sy
		configASSERT( xTaskToResume );
 80071e2:	e7fe      	b.n	80071e2 <vTaskResume+0x3a>
			if( listIS_CONTAINED_WITHIN( &xPendingReadyList, &( pxTCB->xEventListItem ) ) == pdFALSE )
 80071e4:	6aa3      	ldr	r3, [r4, #40]	; 0x28
 80071e6:	4a15      	ldr	r2, [pc, #84]	; (800723c <vTaskResume+0x94>)
 80071e8:	4293      	cmp	r3, r2
 80071ea:	d0eb      	beq.n	80071c4 <vTaskResume+0x1c>
				if( listIS_CONTAINED_WITHIN( NULL, &( pxTCB->xEventListItem ) ) != pdFALSE ) /*lint !e961.  The cast is only redundant when NULL is used. */
 80071ec:	2b00      	cmp	r3, #0
 80071ee:	d1e9      	bne.n	80071c4 <vTaskResume+0x1c>
					( void ) uxListRemove(  &( pxTCB->xStateListItem ) );
 80071f0:	1d21      	adds	r1, r4, #4
 80071f2:	4608      	mov	r0, r1
 80071f4:	9101      	str	r1, [sp, #4]
 80071f6:	f7ff f811 	bl	800621c <uxListRemove>
					prvAddTaskToReadyList( pxTCB );
 80071fa:	4a11      	ldr	r2, [pc, #68]	; (8007240 <vTaskResume+0x98>)
 80071fc:	6ae3      	ldr	r3, [r4, #44]	; 0x2c
 80071fe:	6810      	ldr	r0, [r2, #0]
 8007200:	9901      	ldr	r1, [sp, #4]
 8007202:	4283      	cmp	r3, r0
 8007204:	480f      	ldr	r0, [pc, #60]	; (8007244 <vTaskResume+0x9c>)
 8007206:	bf88      	it	hi
 8007208:	6013      	strhi	r3, [r2, #0]
 800720a:	eb03 0383 	add.w	r3, r3, r3, lsl #2
 800720e:	eb00 0083 	add.w	r0, r0, r3, lsl #2
 8007212:	f7fe ffdb 	bl	80061cc <vListInsertEnd>
					if( pxTCB->uxPriority >= pxCurrentTCB->uxPriority )
 8007216:	682b      	ldr	r3, [r5, #0]
 8007218:	6ae2      	ldr	r2, [r4, #44]	; 0x2c
 800721a:	6adb      	ldr	r3, [r3, #44]	; 0x2c
 800721c:	429a      	cmp	r2, r3
 800721e:	d3d1      	bcc.n	80071c4 <vTaskResume+0x1c>
						taskYIELD_IF_USING_PREEMPTION();
 8007220:	4b09      	ldr	r3, [pc, #36]	; (8007248 <vTaskResume+0xa0>)
 8007222:	f04f 5280 	mov.w	r2, #268435456	; 0x10000000
 8007226:	601a      	str	r2, [r3, #0]
 8007228:	f3bf 8f4f 	dsb	sy
 800722c:	f3bf 8f6f 	isb	sy
 8007230:	e7c8      	b.n	80071c4 <vTaskResume+0x1c>
 8007232:	bf00      	nop
 8007234:	20001230 	.word	0x20001230
 8007238:	20001700 	.word	0x20001700
 800723c:	200016e8 	.word	0x200016e8
 8007240:	200016b0 	.word	0x200016b0
 8007244:	2000123c 	.word	0x2000123c
 8007248:	e000ed04 	.word	0xe000ed04

0800724c <vTaskStartScheduler>:
{
 800724c:	b570      	push	{r4, r5, r6, lr}
 800724e:	b084      	sub	sp, #16
		StaticTask_t *pxIdleTaskTCBBuffer = NULL;
 8007250:	2300      	movs	r3, #0
		vApplicationGetIdleTaskMemory( &pxIdleTaskTCBBuffer, &pxIdleTaskStackBuffer, &ulIdleTaskStackSize );
 8007252:	4668      	mov	r0, sp
 8007254:	aa02      	add	r2, sp, #8
 8007256:	a901      	add	r1, sp, #4
		StackType_t *pxIdleTaskStackBuffer = NULL;
 8007258:	e9cd 3300 	strd	r3, r3, [sp]
		vApplicationGetIdleTaskMemory( &pxIdleTaskTCBBuffer, &pxIdleTaskStackBuffer, &ulIdleTaskStackSize );
 800725c:	f7fe ff88 	bl	8006170 <vApplicationGetIdleTaskMemory>
		xIdleTaskHandle = xTaskCreateStatic(	prvIdleTask,
 8007260:	9801      	ldr	r0, [sp, #4]
		configASSERT( puxStackBuffer != NULL );
 8007262:	b1c8      	cbz	r0, 8007298 <vTaskStartScheduler+0x4c>
		xIdleTaskHandle = xTaskCreateStatic(	prvIdleTask,
 8007264:	9c00      	ldr	r4, [sp, #0]
		configASSERT( pxTaskBuffer != NULL );
 8007266:	b174      	cbz	r4, 8007286 <vTaskStartScheduler+0x3a>
			volatile size_t xSize = sizeof( StaticTask_t );
 8007268:	236c      	movs	r3, #108	; 0x6c
 800726a:	9303      	str	r3, [sp, #12]
			configASSERT( xSize == sizeof( TCB_t ) );
 800726c:	9b03      	ldr	r3, [sp, #12]
		xIdleTaskHandle = xTaskCreateStatic(	prvIdleTask,
 800726e:	9d02      	ldr	r5, [sp, #8]
			configASSERT( xSize == sizeof( TCB_t ) );
 8007270:	2b6c      	cmp	r3, #108	; 0x6c
 8007272:	d01a      	beq.n	80072aa <vTaskStartScheduler+0x5e>
 8007274:	f04f 0350 	mov.w	r3, #80	; 0x50
 8007278:	f383 8811 	msr	BASEPRI, r3
 800727c:	f3bf 8f6f 	isb	sy
 8007280:	f3bf 8f4f 	dsb	sy
 8007284:	e7fe      	b.n	8007284 <vTaskStartScheduler+0x38>
 8007286:	f04f 0350 	mov.w	r3, #80	; 0x50
 800728a:	f383 8811 	msr	BASEPRI, r3
 800728e:	f3bf 8f6f 	isb	sy
 8007292:	f3bf 8f4f 	dsb	sy
		configASSERT( pxTaskBuffer != NULL );
 8007296:	e7fe      	b.n	8007296 <vTaskStartScheduler+0x4a>
 8007298:	f04f 0350 	mov.w	r3, #80	; 0x50
 800729c:	f383 8811 	msr	BASEPRI, r3
 80072a0:	f3bf 8f6f 	isb	sy
 80072a4:	f3bf 8f4f 	dsb	sy
		configASSERT( puxStackBuffer != NULL );
 80072a8:	e7fe      	b.n	80072a8 <vTaskStartScheduler+0x5c>
		( void ) memset( pxNewTCB->pxStack, ( int ) tskSTACK_FILL_BYTE, ( size_t ) ulStackDepth * sizeof( StackType_t ) );
 80072aa:	00ad      	lsls	r5, r5, #2
				pxNewTCB->ucStaticallyAllocated = tskSTATICALLY_ALLOCATED_STACK_AND_TCB;
 80072ac:	2302      	movs	r3, #2
		( void ) memset( pxNewTCB->pxStack, ( int ) tskSTACK_FILL_BYTE, ( size_t ) ulStackDepth * sizeof( StackType_t ) );
 80072ae:	462a      	mov	r2, r5
				pxNewTCB->ucStaticallyAllocated = tskSTATICALLY_ALLOCATED_STACK_AND_TCB;
 80072b0:	f884 3069 	strb.w	r3, [r4, #105]	; 0x69
		( void ) memset( pxNewTCB->pxStack, ( int ) tskSTACK_FILL_BYTE, ( size_t ) ulStackDepth * sizeof( StackType_t ) );
 80072b4:	21a5      	movs	r1, #165	; 0xa5
			pxNewTCB->pxStack = ( StackType_t * ) puxStackBuffer;
 80072b6:	6320      	str	r0, [r4, #48]	; 0x30
			( void ) xSize; /* Prevent lint warning when configASSERT() is not used. */
 80072b8:	9b03      	ldr	r3, [sp, #12]
		( void ) memset( pxNewTCB->pxStack, ( int ) tskSTACK_FILL_BYTE, ( size_t ) ulStackDepth * sizeof( StackType_t ) );
 80072ba:	f001 f913 	bl	80084e4 <memset>
		pxTopOfStack = &( pxNewTCB->pxStack[ ulStackDepth - ( uint32_t ) 1 ] );
 80072be:	6b23      	ldr	r3, [r4, #48]	; 0x30
 80072c0:	4a2c      	ldr	r2, [pc, #176]	; (8007374 <vTaskStartScheduler+0x128>)
 80072c2:	3d04      	subs	r5, #4
			pxNewTCB->pcTaskName[ x ] = pcName[ x ];
 80072c4:	4621      	mov	r1, r4
		pxTopOfStack = &( pxNewTCB->pxStack[ ulStackDepth - ( uint32_t ) 1 ] );
 80072c6:	441d      	add	r5, r3
			pxNewTCB->pcTaskName[ x ] = pcName[ x ];
 80072c8:	2349      	movs	r3, #73	; 0x49
 80072ca:	f801 3f34 	strb.w	r3, [r1, #52]!
		pxTopOfStack = ( StackType_t * ) ( ( ( portPOINTER_SIZE_TYPE ) pxTopOfStack ) & ( ~( ( portPOINTER_SIZE_TYPE ) portBYTE_ALIGNMENT_MASK ) ) ); /*lint !e923 !e9033 !e9078 MISRA exception.  Avoiding casts between pointers and integers is not practical.  Size differences accounted for using portPOINTER_SIZE_TYPE type.  Checked by assert(). */
 80072ce:	f025 0607 	bic.w	r6, r5, #7
			if( pcName[ x ] == ( char ) 0x00 )
 80072d2:	f102 0017 	add.w	r0, r2, #23
		for( x = ( UBaseType_t ) 0; x < ( UBaseType_t ) configMAX_TASK_NAME_LEN; x++ )
 80072d6:	4290      	cmp	r0, r2
 80072d8:	d005      	beq.n	80072e6 <vTaskStartScheduler+0x9a>
			pxNewTCB->pcTaskName[ x ] = pcName[ x ];
 80072da:	f812 3f01 	ldrb.w	r3, [r2, #1]!
 80072de:	f801 3f01 	strb.w	r3, [r1, #1]!
			if( pcName[ x ] == ( char ) 0x00 )
 80072e2:	2b00      	cmp	r3, #0
 80072e4:	d1f7      	bne.n	80072d6 <vTaskStartScheduler+0x8a>
		pxNewTCB->pcTaskName[ configMAX_TASK_NAME_LEN - 1 ] = '\0';
 80072e6:	2500      	movs	r5, #0
	vListInitialiseItem( &( pxNewTCB->xStateListItem ) );
 80072e8:	1d20      	adds	r0, r4, #4
		pxNewTCB->uxMutexesHeld = 0;
 80072ea:	e9c4 5515 	strd	r5, r5, [r4, #84]	; 0x54
		pxNewTCB->pcTaskName[ configMAX_TASK_NAME_LEN - 1 ] = '\0';
 80072ee:	f884 504b 	strb.w	r5, [r4, #75]	; 0x4b
	pxNewTCB->uxPriority = uxPriority;
 80072f2:	62e5      	str	r5, [r4, #44]	; 0x2c
	vListInitialiseItem( &( pxNewTCB->xStateListItem ) );
 80072f4:	f7fe ff66 	bl	80061c4 <vListInitialiseItem>
	vListInitialiseItem( &( pxNewTCB->xEventListItem ) );
 80072f8:	f104 0018 	add.w	r0, r4, #24
 80072fc:	f7fe ff62 	bl	80061c4 <vListInitialiseItem>
	listSET_LIST_ITEM_VALUE( &( pxNewTCB->xEventListItem ), ( TickType_t ) configMAX_PRIORITIES - ( TickType_t ) uxPriority ); /*lint !e961 MISRA exception as the casts are only redundant for some ports. */
 8007300:	2338      	movs	r3, #56	; 0x38
			pxNewTCB->pxTopOfStack = pxPortInitialiseStack( pxTopOfStack, pxTaskCode, pvParameters );
 8007302:	491d      	ldr	r1, [pc, #116]	; (8007378 <vTaskStartScheduler+0x12c>)
	listSET_LIST_ITEM_VALUE( &( pxNewTCB->xEventListItem ), ( TickType_t ) configMAX_PRIORITIES - ( TickType_t ) uxPriority ); /*lint !e961 MISRA exception as the casts are only redundant for some ports. */
 8007304:	61a3      	str	r3, [r4, #24]
			pxNewTCB->pxTopOfStack = pxPortInitialiseStack( pxTopOfStack, pxTaskCode, pvParameters );
 8007306:	462a      	mov	r2, r5
		pxNewTCB->ulNotifiedValue = 0;
 8007308:	6665      	str	r5, [r4, #100]	; 0x64
		pxNewTCB->ulRunTimeCounter = 0UL;
 800730a:	e9c4 5517 	strd	r5, r5, [r4, #92]	; 0x5c
		pxNewTCB->ucNotifyState = taskNOT_WAITING_NOTIFICATION;
 800730e:	f884 5068 	strb.w	r5, [r4, #104]	; 0x68
		pxNewTCB->ucDelayAborted = pdFALSE;
 8007312:	f884 506a 	strb.w	r5, [r4, #106]	; 0x6a
	listSET_LIST_ITEM_OWNER( &( pxNewTCB->xStateListItem ), pxNewTCB );
 8007316:	6124      	str	r4, [r4, #16]
	listSET_LIST_ITEM_OWNER( &( pxNewTCB->xEventListItem ), pxNewTCB );
 8007318:	6264      	str	r4, [r4, #36]	; 0x24
			pxNewTCB->pxTopOfStack = pxPortInitialiseStack( pxTopOfStack, pxTaskCode, pvParameters );
 800731a:	4630      	mov	r0, r6
 800731c:	f000 fdfa 	bl	8007f14 <pxPortInitialiseStack>
 8007320:	6020      	str	r0, [r4, #0]
			prvAddNewTaskToReadyList( pxNewTCB );
 8007322:	4620      	mov	r0, r4
 8007324:	f7ff fbe8 	bl	8006af8 <prvAddNewTaskToReadyList>
			xReturn = xTimerCreateTimerTask();
 8007328:	f000 fd58 	bl	8007ddc <xTimerCreateTimerTask>
	if( xReturn == pdPASS )
 800732c:	2801      	cmp	r0, #1
 800732e:	d003      	beq.n	8007338 <vTaskStartScheduler+0xec>
		configASSERT( xReturn != errCOULD_NOT_ALLOCATE_REQUIRED_MEMORY );
 8007330:	3001      	adds	r0, #1
 8007332:	d016      	beq.n	8007362 <vTaskStartScheduler+0x116>
}
 8007334:	b004      	add	sp, #16
 8007336:	bd70      	pop	{r4, r5, r6, pc}
 8007338:	f04f 0350 	mov.w	r3, #80	; 0x50
 800733c:	f383 8811 	msr	BASEPRI, r3
 8007340:	f3bf 8f6f 	isb	sy
 8007344:	f3bf 8f4f 	dsb	sy
		xNextTaskUnblockTime = portMAX_DELAY;
 8007348:	490c      	ldr	r1, [pc, #48]	; (800737c <vTaskStartScheduler+0x130>)
		xSchedulerRunning = pdTRUE;
 800734a:	4a0d      	ldr	r2, [pc, #52]	; (8007380 <vTaskStartScheduler+0x134>)
		xTickCount = ( TickType_t ) configINITIAL_TICK_COUNT;
 800734c:	4b0d      	ldr	r3, [pc, #52]	; (8007384 <vTaskStartScheduler+0x138>)
		xNextTaskUnblockTime = portMAX_DELAY;
 800734e:	f04f 34ff 	mov.w	r4, #4294967295
 8007352:	600c      	str	r4, [r1, #0]
		xSchedulerRunning = pdTRUE;
 8007354:	6010      	str	r0, [r2, #0]
		xTickCount = ( TickType_t ) configINITIAL_TICK_COUNT;
 8007356:	601d      	str	r5, [r3, #0]
		portCONFIGURE_TIMER_FOR_RUN_TIME_STATS();
 8007358:	f7fa f808 	bl	800136c <configureTimerForRunTimeStats>
		if( xPortStartScheduler() != pdFALSE )
 800735c:	f000 fea6 	bl	80080ac <xPortStartScheduler>
 8007360:	e7e8      	b.n	8007334 <vTaskStartScheduler+0xe8>
 8007362:	f04f 0350 	mov.w	r3, #80	; 0x50
 8007366:	f383 8811 	msr	BASEPRI, r3
 800736a:	f3bf 8f6f 	isb	sy
 800736e:	f3bf 8f4f 	dsb	sy
		configASSERT( xReturn != errCOULD_NOT_ALLOCATE_REQUIRED_MEMORY );
 8007372:	e7fe      	b.n	8007372 <vTaskStartScheduler+0x126>
 8007374:	080099a4 	.word	0x080099a4
 8007378:	08006cb5 	.word	0x08006cb5
 800737c:	200016dc 	.word	0x200016dc
 8007380:	200016fc 	.word	0x200016fc
 8007384:	20001728 	.word	0x20001728

08007388 <vTaskSuspendAll>:
	++uxSchedulerSuspended;
 8007388:	4a02      	ldr	r2, [pc, #8]	; (8007394 <vTaskSuspendAll+0xc>)
 800738a:	6813      	ldr	r3, [r2, #0]
 800738c:	3301      	adds	r3, #1
 800738e:	6013      	str	r3, [r2, #0]
}
 8007390:	4770      	bx	lr
 8007392:	bf00      	nop
 8007394:	200016a8 	.word	0x200016a8

08007398 <xTaskResumeAll>:
	configASSERT( uxSchedulerSuspended );
 8007398:	4b06      	ldr	r3, [pc, #24]	; (80073b4 <xTaskResumeAll+0x1c>)
 800739a:	681b      	ldr	r3, [r3, #0]
 800739c:	b943      	cbnz	r3, 80073b0 <xTaskResumeAll+0x18>
 800739e:	f04f 0350 	mov.w	r3, #80	; 0x50
 80073a2:	f383 8811 	msr	BASEPRI, r3
 80073a6:	f3bf 8f6f 	isb	sy
 80073aa:	f3bf 8f4f 	dsb	sy
 80073ae:	e7fe      	b.n	80073ae <xTaskResumeAll+0x16>
 80073b0:	f7ff bd76 	b.w	8006ea0 <xTaskResumeAll.part.0>
 80073b4:	200016a8 	.word	0x200016a8

080073b8 <xTaskGetTickCount>:
		xTicks = xTickCount;
 80073b8:	4b01      	ldr	r3, [pc, #4]	; (80073c0 <xTaskGetTickCount+0x8>)
 80073ba:	6818      	ldr	r0, [r3, #0]
}
 80073bc:	4770      	bx	lr
 80073be:	bf00      	nop
 80073c0:	20001728 	.word	0x20001728

080073c4 <xTaskIncrementTick>:
	if( uxSchedulerSuspended == ( UBaseType_t ) pdFALSE )
 80073c4:	4b05      	ldr	r3, [pc, #20]	; (80073dc <xTaskIncrementTick+0x18>)
 80073c6:	681b      	ldr	r3, [r3, #0]
 80073c8:	b90b      	cbnz	r3, 80073ce <xTaskIncrementTick+0xa>
 80073ca:	f7ff bcc5 	b.w	8006d58 <xTaskIncrementTick.part.0>
		++xPendedTicks;
 80073ce:	4a04      	ldr	r2, [pc, #16]	; (80073e0 <xTaskIncrementTick+0x1c>)
 80073d0:	6813      	ldr	r3, [r2, #0]
 80073d2:	3301      	adds	r3, #1
 80073d4:	6013      	str	r3, [r2, #0]
}
 80073d6:	2000      	movs	r0, #0
 80073d8:	4770      	bx	lr
 80073da:	bf00      	nop
 80073dc:	200016a8 	.word	0x200016a8
 80073e0:	200016e4 	.word	0x200016e4

080073e4 <vTaskSwitchContext>:
{
 80073e4:	b538      	push	{r3, r4, r5, lr}
	if( uxSchedulerSuspended != ( UBaseType_t ) pdFALSE )
 80073e6:	4b20      	ldr	r3, [pc, #128]	; (8007468 <vTaskSwitchContext+0x84>)
 80073e8:	681b      	ldr	r3, [r3, #0]
 80073ea:	b11b      	cbz	r3, 80073f4 <vTaskSwitchContext+0x10>
		xYieldPending = pdTRUE;
 80073ec:	4b1f      	ldr	r3, [pc, #124]	; (800746c <vTaskSwitchContext+0x88>)
 80073ee:	2201      	movs	r2, #1
 80073f0:	601a      	str	r2, [r3, #0]
}
 80073f2:	bd38      	pop	{r3, r4, r5, pc}
		xYieldPending = pdFALSE;
 80073f4:	4a1d      	ldr	r2, [pc, #116]	; (800746c <vTaskSwitchContext+0x88>)
				pxCurrentTCB->ulRunTimeCounter += ( ulTotalRunTime - ulTaskSwitchedInTime );
 80073f6:	4c1e      	ldr	r4, [pc, #120]	; (8007470 <vTaskSwitchContext+0x8c>)
		xYieldPending = pdFALSE;
 80073f8:	6013      	str	r3, [r2, #0]
				ulTotalRunTime = portGET_RUN_TIME_COUNTER_VALUE();
 80073fa:	f7f9 ffb9 	bl	8001370 <getRunTimeCounterValue>
			if( ulTotalRunTime > ulTaskSwitchedInTime )
 80073fe:	491d      	ldr	r1, [pc, #116]	; (8007474 <vTaskSwitchContext+0x90>)
 8007400:	680d      	ldr	r5, [r1, #0]
 8007402:	42a8      	cmp	r0, r5
 8007404:	d904      	bls.n	8007410 <vTaskSwitchContext+0x2c>
				pxCurrentTCB->ulRunTimeCounter += ( ulTotalRunTime - ulTaskSwitchedInTime );
 8007406:	6822      	ldr	r2, [r4, #0]
 8007408:	6e13      	ldr	r3, [r2, #96]	; 0x60
 800740a:	1b5b      	subs	r3, r3, r5
 800740c:	4403      	add	r3, r0
 800740e:	6613      	str	r3, [r2, #96]	; 0x60
		taskSELECT_HIGHEST_PRIORITY_TASK(); /*lint !e9079 void * is used as this macro is used with timers and co-routines too.  Alignment is known to be fine as the type of the pointer stored and retrieved is the same. */
 8007410:	4d19      	ldr	r5, [pc, #100]	; (8007478 <vTaskSwitchContext+0x94>)
			ulTaskSwitchedInTime = ulTotalRunTime;
 8007412:	6008      	str	r0, [r1, #0]
		taskSELECT_HIGHEST_PRIORITY_TASK(); /*lint !e9079 void * is used as this macro is used with timers and co-routines too.  Alignment is known to be fine as the type of the pointer stored and retrieved is the same. */
 8007414:	682b      	ldr	r3, [r5, #0]
 8007416:	4a19      	ldr	r2, [pc, #100]	; (800747c <vTaskSwitchContext+0x98>)
 8007418:	eb03 0083 	add.w	r0, r3, r3, lsl #2
 800741c:	0080      	lsls	r0, r0, #2
 800741e:	0099      	lsls	r1, r3, #2
 8007420:	5810      	ldr	r0, [r2, r0]
 8007422:	b940      	cbnz	r0, 8007436 <vTaskSwitchContext+0x52>
 8007424:	b1bb      	cbz	r3, 8007456 <vTaskSwitchContext+0x72>
 8007426:	3b01      	subs	r3, #1
 8007428:	eb03 0083 	add.w	r0, r3, r3, lsl #2
 800742c:	0099      	lsls	r1, r3, #2
 800742e:	f852 0020 	ldr.w	r0, [r2, r0, lsl #2]
 8007432:	2800      	cmp	r0, #0
 8007434:	d0f6      	beq.n	8007424 <vTaskSwitchContext+0x40>
 8007436:	4419      	add	r1, r3
 8007438:	eb02 0081 	add.w	r0, r2, r1, lsl #2
 800743c:	4602      	mov	r2, r0
 800743e:	6841      	ldr	r1, [r0, #4]
 8007440:	6849      	ldr	r1, [r1, #4]
 8007442:	6041      	str	r1, [r0, #4]
 8007444:	3208      	adds	r2, #8
 8007446:	4291      	cmp	r1, r2
 8007448:	bf04      	itt	eq
 800744a:	6849      	ldreq	r1, [r1, #4]
 800744c:	6041      	streq	r1, [r0, #4]
 800744e:	68ca      	ldr	r2, [r1, #12]
 8007450:	6022      	str	r2, [r4, #0]
 8007452:	602b      	str	r3, [r5, #0]
}
 8007454:	bd38      	pop	{r3, r4, r5, pc}
 8007456:	f04f 0350 	mov.w	r3, #80	; 0x50
 800745a:	f383 8811 	msr	BASEPRI, r3
 800745e:	f3bf 8f6f 	isb	sy
 8007462:	f3bf 8f4f 	dsb	sy
		taskSELECT_HIGHEST_PRIORITY_TASK(); /*lint !e9079 void * is used as this macro is used with timers and co-routines too.  Alignment is known to be fine as the type of the pointer stored and retrieved is the same. */
 8007466:	e7fe      	b.n	8007466 <vTaskSwitchContext+0x82>
 8007468:	200016a8 	.word	0x200016a8
 800746c:	2000172c 	.word	0x2000172c
 8007470:	20001230 	.word	0x20001230
 8007474:	2000169c 	.word	0x2000169c
 8007478:	200016b0 	.word	0x200016b0
 800747c:	2000123c 	.word	0x2000123c

08007480 <vTaskSuspend>:
	{
 8007480:	b570      	push	{r4, r5, r6, lr}
 8007482:	4604      	mov	r4, r0
			pxTCB = prvGetTCBFromHandle( xTaskToSuspend );
 8007484:	4d2d      	ldr	r5, [pc, #180]	; (800753c <vTaskSuspend+0xbc>)
		taskENTER_CRITICAL();
 8007486:	f000 fd75 	bl	8007f74 <vPortEnterCritical>
			pxTCB = prvGetTCBFromHandle( xTaskToSuspend );
 800748a:	2c00      	cmp	r4, #0
 800748c:	d03a      	beq.n	8007504 <vTaskSuspend+0x84>
			if( uxListRemove( &( pxTCB->xStateListItem ) ) == ( UBaseType_t ) 0 )
 800748e:	1d26      	adds	r6, r4, #4
 8007490:	4630      	mov	r0, r6
 8007492:	f7fe fec3 	bl	800621c <uxListRemove>
			if( listLIST_ITEM_CONTAINER( &( pxTCB->xEventListItem ) ) != NULL )
 8007496:	6aa3      	ldr	r3, [r4, #40]	; 0x28
 8007498:	b11b      	cbz	r3, 80074a2 <vTaskSuspend+0x22>
				( void ) uxListRemove( &( pxTCB->xEventListItem ) );
 800749a:	f104 0018 	add.w	r0, r4, #24
 800749e:	f7fe febd 	bl	800621c <uxListRemove>
			vListInsertEnd( &xSuspendedTaskList, &( pxTCB->xStateListItem ) );
 80074a2:	4631      	mov	r1, r6
 80074a4:	4826      	ldr	r0, [pc, #152]	; (8007540 <vTaskSuspend+0xc0>)
		if( xSchedulerRunning != pdFALSE )
 80074a6:	4e27      	ldr	r6, [pc, #156]	; (8007544 <vTaskSuspend+0xc4>)
			vListInsertEnd( &xSuspendedTaskList, &( pxTCB->xStateListItem ) );
 80074a8:	f7fe fe90 	bl	80061cc <vListInsertEnd>
				if( pxTCB->ucNotifyState == taskWAITING_NOTIFICATION )
 80074ac:	f894 3068 	ldrb.w	r3, [r4, #104]	; 0x68
 80074b0:	2b01      	cmp	r3, #1
					pxTCB->ucNotifyState = taskNOT_WAITING_NOTIFICATION;
 80074b2:	bf04      	itt	eq
 80074b4:	2300      	moveq	r3, #0
 80074b6:	f884 3068 	strbeq.w	r3, [r4, #104]	; 0x68
		taskEXIT_CRITICAL();
 80074ba:	f000 fd7d 	bl	8007fb8 <vPortExitCritical>
		if( xSchedulerRunning != pdFALSE )
 80074be:	6833      	ldr	r3, [r6, #0]
 80074c0:	b98b      	cbnz	r3, 80074e6 <vTaskSuspend+0x66>
		if( pxTCB == pxCurrentTCB )
 80074c2:	682b      	ldr	r3, [r5, #0]
 80074c4:	42a3      	cmp	r3, r4
 80074c6:	d000      	beq.n	80074ca <vTaskSuspend+0x4a>
	}
 80074c8:	bd70      	pop	{r4, r5, r6, pc}
			if( xSchedulerRunning != pdFALSE )
 80074ca:	6833      	ldr	r3, [r6, #0]
 80074cc:	b30b      	cbz	r3, 8007512 <vTaskSuspend+0x92>
				configASSERT( uxSchedulerSuspended == 0 );
 80074ce:	4b1e      	ldr	r3, [pc, #120]	; (8007548 <vTaskSuspend+0xc8>)
 80074d0:	681b      	ldr	r3, [r3, #0]
 80074d2:	b333      	cbz	r3, 8007522 <vTaskSuspend+0xa2>
 80074d4:	f04f 0350 	mov.w	r3, #80	; 0x50
 80074d8:	f383 8811 	msr	BASEPRI, r3
 80074dc:	f3bf 8f6f 	isb	sy
 80074e0:	f3bf 8f4f 	dsb	sy
 80074e4:	e7fe      	b.n	80074e4 <vTaskSuspend+0x64>
			taskENTER_CRITICAL();
 80074e6:	f000 fd45 	bl	8007f74 <vPortEnterCritical>
	if( listLIST_IS_EMPTY( pxDelayedTaskList ) != pdFALSE )
 80074ea:	4b18      	ldr	r3, [pc, #96]	; (800754c <vTaskSuspend+0xcc>)
 80074ec:	681a      	ldr	r2, [r3, #0]
 80074ee:	6812      	ldr	r2, [r2, #0]
 80074f0:	b152      	cbz	r2, 8007508 <vTaskSuspend+0x88>
		( pxTCB ) = listGET_OWNER_OF_HEAD_ENTRY( pxDelayedTaskList ); /*lint !e9079 void * is used as this macro is used with timers and co-routines too.  Alignment is known to be fine as the type of the pointer stored and retrieved is the same. */
 80074f2:	681a      	ldr	r2, [r3, #0]
		xNextTaskUnblockTime = listGET_LIST_ITEM_VALUE( &( ( pxTCB )->xStateListItem ) );
 80074f4:	4b16      	ldr	r3, [pc, #88]	; (8007550 <vTaskSuspend+0xd0>)
		( pxTCB ) = listGET_OWNER_OF_HEAD_ENTRY( pxDelayedTaskList ); /*lint !e9079 void * is used as this macro is used with timers and co-routines too.  Alignment is known to be fine as the type of the pointer stored and retrieved is the same. */
 80074f6:	68d2      	ldr	r2, [r2, #12]
		xNextTaskUnblockTime = listGET_LIST_ITEM_VALUE( &( ( pxTCB )->xStateListItem ) );
 80074f8:	68d2      	ldr	r2, [r2, #12]
 80074fa:	6852      	ldr	r2, [r2, #4]
 80074fc:	601a      	str	r2, [r3, #0]
			taskEXIT_CRITICAL();
 80074fe:	f000 fd5b 	bl	8007fb8 <vPortExitCritical>
 8007502:	e7de      	b.n	80074c2 <vTaskSuspend+0x42>
			pxTCB = prvGetTCBFromHandle( xTaskToSuspend );
 8007504:	682c      	ldr	r4, [r5, #0]
 8007506:	e7c2      	b.n	800748e <vTaskSuspend+0xe>
		xNextTaskUnblockTime = portMAX_DELAY;
 8007508:	4b11      	ldr	r3, [pc, #68]	; (8007550 <vTaskSuspend+0xd0>)
 800750a:	f04f 32ff 	mov.w	r2, #4294967295
 800750e:	601a      	str	r2, [r3, #0]
 8007510:	e7f5      	b.n	80074fe <vTaskSuspend+0x7e>
				if( listCURRENT_LIST_LENGTH( &xSuspendedTaskList ) == uxCurrentNumberOfTasks ) /*lint !e931 Right has no side effect, just volatile. */
 8007512:	490b      	ldr	r1, [pc, #44]	; (8007540 <vTaskSuspend+0xc0>)
 8007514:	4a0f      	ldr	r2, [pc, #60]	; (8007554 <vTaskSuspend+0xd4>)
 8007516:	6809      	ldr	r1, [r1, #0]
 8007518:	6812      	ldr	r2, [r2, #0]
 800751a:	4291      	cmp	r1, r2
 800751c:	d10a      	bne.n	8007534 <vTaskSuspend+0xb4>
					pxCurrentTCB = NULL;
 800751e:	602b      	str	r3, [r5, #0]
	}
 8007520:	bd70      	pop	{r4, r5, r6, pc}
				portYIELD_WITHIN_API();
 8007522:	4b0d      	ldr	r3, [pc, #52]	; (8007558 <vTaskSuspend+0xd8>)
 8007524:	f04f 5280 	mov.w	r2, #268435456	; 0x10000000
 8007528:	601a      	str	r2, [r3, #0]
 800752a:	f3bf 8f4f 	dsb	sy
 800752e:	f3bf 8f6f 	isb	sy
	}
 8007532:	bd70      	pop	{r4, r5, r6, pc}
 8007534:	e8bd 4070 	ldmia.w	sp!, {r4, r5, r6, lr}
					vTaskSwitchContext();
 8007538:	f7ff bf54 	b.w	80073e4 <vTaskSwitchContext>
 800753c:	20001230 	.word	0x20001230
 8007540:	20001700 	.word	0x20001700
 8007544:	200016fc 	.word	0x200016fc
 8007548:	200016a8 	.word	0x200016a8
 800754c:	20001234 	.word	0x20001234
 8007550:	200016dc 	.word	0x200016dc
 8007554:	200016a0 	.word	0x200016a0
 8007558:	e000ed04 	.word	0xe000ed04

0800755c <vTaskPlaceOnEventList>:
	configASSERT( pxEventList );
 800755c:	b1f0      	cbz	r0, 800759c <vTaskPlaceOnEventList+0x40>
{
 800755e:	b570      	push	{r4, r5, r6, lr}
	vListInsert( pxEventList, &( pxCurrentTCB->xEventListItem ) );
 8007560:	4d1c      	ldr	r5, [pc, #112]	; (80075d4 <vTaskPlaceOnEventList+0x78>)
 8007562:	460c      	mov	r4, r1
 8007564:	6829      	ldr	r1, [r5, #0]
 8007566:	3118      	adds	r1, #24
 8007568:	f7fe fe40 	bl	80061ec <vListInsert>
const TickType_t xConstTickCount = xTickCount;
 800756c:	4b1a      	ldr	r3, [pc, #104]	; (80075d8 <vTaskPlaceOnEventList+0x7c>)
 800756e:	681e      	ldr	r6, [r3, #0]
		pxCurrentTCB->ucDelayAborted = pdFALSE;
 8007570:	682b      	ldr	r3, [r5, #0]
	if( uxListRemove( &( pxCurrentTCB->xStateListItem ) ) == ( UBaseType_t ) 0 )
 8007572:	6828      	ldr	r0, [r5, #0]
		pxCurrentTCB->ucDelayAborted = pdFALSE;
 8007574:	2200      	movs	r2, #0
 8007576:	f883 206a 	strb.w	r2, [r3, #106]	; 0x6a
	if( uxListRemove( &( pxCurrentTCB->xStateListItem ) ) == ( UBaseType_t ) 0 )
 800757a:	3004      	adds	r0, #4
 800757c:	f7fe fe4e 	bl	800621c <uxListRemove>
		if( ( xTicksToWait == portMAX_DELAY ) && ( xCanBlockIndefinitely != pdFALSE ) )
 8007580:	1c63      	adds	r3, r4, #1
 8007582:	d014      	beq.n	80075ae <vTaskPlaceOnEventList+0x52>
			listSET_LIST_ITEM_VALUE( &( pxCurrentTCB->xStateListItem ), xTimeToWake );
 8007584:	682b      	ldr	r3, [r5, #0]
 8007586:	19a4      	adds	r4, r4, r6
 8007588:	605c      	str	r4, [r3, #4]
			if( xTimeToWake < xConstTickCount )
 800758a:	d317      	bcc.n	80075bc <vTaskPlaceOnEventList+0x60>
				vListInsert( pxOverflowDelayedTaskList, &( pxCurrentTCB->xStateListItem ) );
 800758c:	4b13      	ldr	r3, [pc, #76]	; (80075dc <vTaskPlaceOnEventList+0x80>)
 800758e:	6818      	ldr	r0, [r3, #0]
 8007590:	6829      	ldr	r1, [r5, #0]
}
 8007592:	e8bd 4070 	ldmia.w	sp!, {r4, r5, r6, lr}
				vListInsert( pxOverflowDelayedTaskList, &( pxCurrentTCB->xStateListItem ) );
 8007596:	3104      	adds	r1, #4
 8007598:	f7fe be28 	b.w	80061ec <vListInsert>
 800759c:	f04f 0350 	mov.w	r3, #80	; 0x50
 80075a0:	f383 8811 	msr	BASEPRI, r3
 80075a4:	f3bf 8f6f 	isb	sy
 80075a8:	f3bf 8f4f 	dsb	sy
	configASSERT( pxEventList );
 80075ac:	e7fe      	b.n	80075ac <vTaskPlaceOnEventList+0x50>
			vListInsertEnd( &xSuspendedTaskList, &( pxCurrentTCB->xStateListItem ) );
 80075ae:	6829      	ldr	r1, [r5, #0]
 80075b0:	480b      	ldr	r0, [pc, #44]	; (80075e0 <vTaskPlaceOnEventList+0x84>)
}
 80075b2:	e8bd 4070 	ldmia.w	sp!, {r4, r5, r6, lr}
			vListInsertEnd( &xSuspendedTaskList, &( pxCurrentTCB->xStateListItem ) );
 80075b6:	3104      	adds	r1, #4
 80075b8:	f7fe be08 	b.w	80061cc <vListInsertEnd>
				vListInsert( pxDelayedTaskList, &( pxCurrentTCB->xStateListItem ) );
 80075bc:	4b09      	ldr	r3, [pc, #36]	; (80075e4 <vTaskPlaceOnEventList+0x88>)
 80075be:	6818      	ldr	r0, [r3, #0]
 80075c0:	6829      	ldr	r1, [r5, #0]
 80075c2:	3104      	adds	r1, #4
 80075c4:	f7fe fe12 	bl	80061ec <vListInsert>
				if( xTimeToWake < xNextTaskUnblockTime )
 80075c8:	4b07      	ldr	r3, [pc, #28]	; (80075e8 <vTaskPlaceOnEventList+0x8c>)
 80075ca:	681a      	ldr	r2, [r3, #0]
 80075cc:	4294      	cmp	r4, r2
					xNextTaskUnblockTime = xTimeToWake;
 80075ce:	bf38      	it	cc
 80075d0:	601c      	strcc	r4, [r3, #0]
}
 80075d2:	bd70      	pop	{r4, r5, r6, pc}
 80075d4:	20001230 	.word	0x20001230
 80075d8:	20001728 	.word	0x20001728
 80075dc:	20001238 	.word	0x20001238
 80075e0:	20001700 	.word	0x20001700
 80075e4:	20001234 	.word	0x20001234
 80075e8:	200016dc 	.word	0x200016dc

080075ec <vTaskPlaceOnEventListRestricted>:
	{
 80075ec:	b5f8      	push	{r3, r4, r5, r6, r7, lr}
		configASSERT( pxEventList );
 80075ee:	b360      	cbz	r0, 800764a <vTaskPlaceOnEventListRestricted+0x5e>
		vListInsertEnd( pxEventList, &( pxCurrentTCB->xEventListItem ) );
 80075f0:	4d20      	ldr	r5, [pc, #128]	; (8007674 <vTaskPlaceOnEventListRestricted+0x88>)
 80075f2:	460c      	mov	r4, r1
 80075f4:	6829      	ldr	r1, [r5, #0]
 80075f6:	4616      	mov	r6, r2
 80075f8:	3118      	adds	r1, #24
 80075fa:	f7fe fde7 	bl	80061cc <vListInsertEnd>
const TickType_t xConstTickCount = xTickCount;
 80075fe:	4b1e      	ldr	r3, [pc, #120]	; (8007678 <vTaskPlaceOnEventListRestricted+0x8c>)
		if( xWaitIndefinitely != pdFALSE )
 8007600:	b99e      	cbnz	r6, 800762a <vTaskPlaceOnEventListRestricted+0x3e>
const TickType_t xConstTickCount = xTickCount;
 8007602:	681f      	ldr	r7, [r3, #0]
		pxCurrentTCB->ucDelayAborted = pdFALSE;
 8007604:	682b      	ldr	r3, [r5, #0]
	if( uxListRemove( &( pxCurrentTCB->xStateListItem ) ) == ( UBaseType_t ) 0 )
 8007606:	6828      	ldr	r0, [r5, #0]
		pxCurrentTCB->ucDelayAborted = pdFALSE;
 8007608:	f883 606a 	strb.w	r6, [r3, #106]	; 0x6a
	if( uxListRemove( &( pxCurrentTCB->xStateListItem ) ) == ( UBaseType_t ) 0 )
 800760c:	3004      	adds	r0, #4
 800760e:	f7fe fe05 	bl	800621c <uxListRemove>
			listSET_LIST_ITEM_VALUE( &( pxCurrentTCB->xStateListItem ), xTimeToWake );
 8007612:	682b      	ldr	r3, [r5, #0]
 8007614:	19e4      	adds	r4, r4, r7
 8007616:	605c      	str	r4, [r3, #4]
			if( xTimeToWake < xConstTickCount )
 8007618:	d320      	bcc.n	800765c <vTaskPlaceOnEventListRestricted+0x70>
				vListInsert( pxOverflowDelayedTaskList, &( pxCurrentTCB->xStateListItem ) );
 800761a:	4b18      	ldr	r3, [pc, #96]	; (800767c <vTaskPlaceOnEventListRestricted+0x90>)
 800761c:	6818      	ldr	r0, [r3, #0]
 800761e:	6829      	ldr	r1, [r5, #0]
	}
 8007620:	e8bd 40f8 	ldmia.w	sp!, {r3, r4, r5, r6, r7, lr}
				vListInsert( pxOverflowDelayedTaskList, &( pxCurrentTCB->xStateListItem ) );
 8007624:	3104      	adds	r1, #4
 8007626:	f7fe bde1 	b.w	80061ec <vListInsert>
const TickType_t xConstTickCount = xTickCount;
 800762a:	681b      	ldr	r3, [r3, #0]
		pxCurrentTCB->ucDelayAborted = pdFALSE;
 800762c:	682b      	ldr	r3, [r5, #0]
	if( uxListRemove( &( pxCurrentTCB->xStateListItem ) ) == ( UBaseType_t ) 0 )
 800762e:	6828      	ldr	r0, [r5, #0]
		pxCurrentTCB->ucDelayAborted = pdFALSE;
 8007630:	2200      	movs	r2, #0
 8007632:	f883 206a 	strb.w	r2, [r3, #106]	; 0x6a
	if( uxListRemove( &( pxCurrentTCB->xStateListItem ) ) == ( UBaseType_t ) 0 )
 8007636:	3004      	adds	r0, #4
 8007638:	f7fe fdf0 	bl	800621c <uxListRemove>
			vListInsertEnd( &xSuspendedTaskList, &( pxCurrentTCB->xStateListItem ) );
 800763c:	6829      	ldr	r1, [r5, #0]
 800763e:	4810      	ldr	r0, [pc, #64]	; (8007680 <vTaskPlaceOnEventListRestricted+0x94>)
	}
 8007640:	e8bd 40f8 	ldmia.w	sp!, {r3, r4, r5, r6, r7, lr}
			vListInsertEnd( &xSuspendedTaskList, &( pxCurrentTCB->xStateListItem ) );
 8007644:	3104      	adds	r1, #4
 8007646:	f7fe bdc1 	b.w	80061cc <vListInsertEnd>
 800764a:	f04f 0350 	mov.w	r3, #80	; 0x50
 800764e:	f383 8811 	msr	BASEPRI, r3
 8007652:	f3bf 8f6f 	isb	sy
 8007656:	f3bf 8f4f 	dsb	sy
		configASSERT( pxEventList );
 800765a:	e7fe      	b.n	800765a <vTaskPlaceOnEventListRestricted+0x6e>
				vListInsert( pxDelayedTaskList, &( pxCurrentTCB->xStateListItem ) );
 800765c:	4b09      	ldr	r3, [pc, #36]	; (8007684 <vTaskPlaceOnEventListRestricted+0x98>)
 800765e:	6818      	ldr	r0, [r3, #0]
 8007660:	6829      	ldr	r1, [r5, #0]
 8007662:	3104      	adds	r1, #4
 8007664:	f7fe fdc2 	bl	80061ec <vListInsert>
				if( xTimeToWake < xNextTaskUnblockTime )
 8007668:	4b07      	ldr	r3, [pc, #28]	; (8007688 <vTaskPlaceOnEventListRestricted+0x9c>)
 800766a:	681a      	ldr	r2, [r3, #0]
 800766c:	4294      	cmp	r4, r2
					xNextTaskUnblockTime = xTimeToWake;
 800766e:	bf38      	it	cc
 8007670:	601c      	strcc	r4, [r3, #0]
	}
 8007672:	bdf8      	pop	{r3, r4, r5, r6, r7, pc}
 8007674:	20001230 	.word	0x20001230
 8007678:	20001728 	.word	0x20001728
 800767c:	20001238 	.word	0x20001238
 8007680:	20001700 	.word	0x20001700
 8007684:	20001234 	.word	0x20001234
 8007688:	200016dc 	.word	0x200016dc

0800768c <xTaskRemoveFromEventList>:
{
 800768c:	b510      	push	{r4, lr}
	pxUnblockedTCB = listGET_OWNER_OF_HEAD_ENTRY( pxEventList ); /*lint !e9079 void * is used as this macro is used with timers and co-routines too.  Alignment is known to be fine as the type of the pointer stored and retrieved is the same. */
 800768e:	68c3      	ldr	r3, [r0, #12]
 8007690:	68dc      	ldr	r4, [r3, #12]
{
 8007692:	b082      	sub	sp, #8
	configASSERT( pxUnblockedTCB );
 8007694:	2c00      	cmp	r4, #0
 8007696:	d02c      	beq.n	80076f2 <xTaskRemoveFromEventList+0x66>
	( void ) uxListRemove( &( pxUnblockedTCB->xEventListItem ) );
 8007698:	f104 0118 	add.w	r1, r4, #24
 800769c:	4608      	mov	r0, r1
 800769e:	9101      	str	r1, [sp, #4]
 80076a0:	f7fe fdbc 	bl	800621c <uxListRemove>
	if( uxSchedulerSuspended == ( UBaseType_t ) pdFALSE )
 80076a4:	4b17      	ldr	r3, [pc, #92]	; (8007704 <xTaskRemoveFromEventList+0x78>)
 80076a6:	9901      	ldr	r1, [sp, #4]
 80076a8:	681b      	ldr	r3, [r3, #0]
 80076aa:	b173      	cbz	r3, 80076ca <xTaskRemoveFromEventList+0x3e>
		vListInsertEnd( &( xPendingReadyList ), &( pxUnblockedTCB->xEventListItem ) );
 80076ac:	4816      	ldr	r0, [pc, #88]	; (8007708 <xTaskRemoveFromEventList+0x7c>)
 80076ae:	f7fe fd8d 	bl	80061cc <vListInsertEnd>
	if( pxUnblockedTCB->uxPriority > pxCurrentTCB->uxPriority )
 80076b2:	4b16      	ldr	r3, [pc, #88]	; (800770c <xTaskRemoveFromEventList+0x80>)
 80076b4:	6ae2      	ldr	r2, [r4, #44]	; 0x2c
 80076b6:	681b      	ldr	r3, [r3, #0]
 80076b8:	6adb      	ldr	r3, [r3, #44]	; 0x2c
 80076ba:	429a      	cmp	r2, r3
		xYieldPending = pdTRUE;
 80076bc:	bf85      	ittet	hi
 80076be:	4b14      	ldrhi	r3, [pc, #80]	; (8007710 <xTaskRemoveFromEventList+0x84>)
 80076c0:	2001      	movhi	r0, #1
		xReturn = pdFALSE;
 80076c2:	2000      	movls	r0, #0
		xYieldPending = pdTRUE;
 80076c4:	6018      	strhi	r0, [r3, #0]
}
 80076c6:	b002      	add	sp, #8
 80076c8:	bd10      	pop	{r4, pc}
		( void ) uxListRemove( &( pxUnblockedTCB->xStateListItem ) );
 80076ca:	1d21      	adds	r1, r4, #4
 80076cc:	4608      	mov	r0, r1
 80076ce:	9101      	str	r1, [sp, #4]
 80076d0:	f7fe fda4 	bl	800621c <uxListRemove>
		prvAddTaskToReadyList( pxUnblockedTCB );
 80076d4:	4a0f      	ldr	r2, [pc, #60]	; (8007714 <xTaskRemoveFromEventList+0x88>)
 80076d6:	6ae3      	ldr	r3, [r4, #44]	; 0x2c
 80076d8:	6810      	ldr	r0, [r2, #0]
 80076da:	9901      	ldr	r1, [sp, #4]
 80076dc:	4283      	cmp	r3, r0
 80076de:	480e      	ldr	r0, [pc, #56]	; (8007718 <xTaskRemoveFromEventList+0x8c>)
 80076e0:	bf88      	it	hi
 80076e2:	6013      	strhi	r3, [r2, #0]
 80076e4:	eb03 0383 	add.w	r3, r3, r3, lsl #2
 80076e8:	eb00 0083 	add.w	r0, r0, r3, lsl #2
 80076ec:	f7fe fd6e 	bl	80061cc <vListInsertEnd>
 80076f0:	e7df      	b.n	80076b2 <xTaskRemoveFromEventList+0x26>
 80076f2:	f04f 0350 	mov.w	r3, #80	; 0x50
 80076f6:	f383 8811 	msr	BASEPRI, r3
 80076fa:	f3bf 8f6f 	isb	sy
 80076fe:	f3bf 8f4f 	dsb	sy
	configASSERT( pxUnblockedTCB );
 8007702:	e7fe      	b.n	8007702 <xTaskRemoveFromEventList+0x76>
 8007704:	200016a8 	.word	0x200016a8
 8007708:	200016e8 	.word	0x200016e8
 800770c:	20001230 	.word	0x20001230
 8007710:	2000172c 	.word	0x2000172c
 8007714:	200016b0 	.word	0x200016b0
 8007718:	2000123c 	.word	0x2000123c

0800771c <vTaskInternalSetTimeOutState>:
	pxTimeOut->xOverflowCount = xNumOfOverflows;
 800771c:	4a03      	ldr	r2, [pc, #12]	; (800772c <vTaskInternalSetTimeOutState+0x10>)
	pxTimeOut->xTimeOnEntering = xTickCount;
 800771e:	4b04      	ldr	r3, [pc, #16]	; (8007730 <vTaskInternalSetTimeOutState+0x14>)
	pxTimeOut->xOverflowCount = xNumOfOverflows;
 8007720:	6812      	ldr	r2, [r2, #0]
	pxTimeOut->xTimeOnEntering = xTickCount;
 8007722:	681b      	ldr	r3, [r3, #0]
 8007724:	e9c0 2300 	strd	r2, r3, [r0]
}
 8007728:	4770      	bx	lr
 800772a:	bf00      	nop
 800772c:	200016e0 	.word	0x200016e0
 8007730:	20001728 	.word	0x20001728

08007734 <xTaskCheckForTimeOut>:
{
 8007734:	b5f8      	push	{r3, r4, r5, r6, r7, lr}
	configASSERT( pxTimeOut );
 8007736:	b318      	cbz	r0, 8007780 <xTaskCheckForTimeOut+0x4c>
	configASSERT( pxTicksToWait );
 8007738:	460e      	mov	r6, r1
 800773a:	b1c1      	cbz	r1, 800776e <xTaskCheckForTimeOut+0x3a>
	taskENTER_CRITICAL();
 800773c:	4605      	mov	r5, r0
 800773e:	f000 fc19 	bl	8007f74 <vPortEnterCritical>
		const TickType_t xConstTickCount = xTickCount;
 8007742:	f8df c08c 	ldr.w	ip, [pc, #140]	; 80077d0 <xTaskCheckForTimeOut+0x9c>
			if( pxCurrentTCB->ucDelayAborted != ( uint8_t ) pdFALSE )
 8007746:	4b20      	ldr	r3, [pc, #128]	; (80077c8 <xTaskCheckForTimeOut+0x94>)
		const TickType_t xConstTickCount = xTickCount;
 8007748:	f8dc 1000 	ldr.w	r1, [ip]
			if( pxCurrentTCB->ucDelayAborted != ( uint8_t ) pdFALSE )
 800774c:	681a      	ldr	r2, [r3, #0]
 800774e:	f892 406a 	ldrb.w	r4, [r2, #106]	; 0x6a
 8007752:	b9f4      	cbnz	r4, 8007792 <xTaskCheckForTimeOut+0x5e>
			if( *pxTicksToWait == portMAX_DELAY )
 8007754:	6833      	ldr	r3, [r6, #0]
 8007756:	1c5a      	adds	r2, r3, #1
 8007758:	d020      	beq.n	800779c <xTaskCheckForTimeOut+0x68>
		if( ( xNumOfOverflows != pxTimeOut->xOverflowCount ) && ( xConstTickCount >= pxTimeOut->xTimeOnEntering ) ) /*lint !e525 Indentation preferred as is to make code within pre-processor directives clearer. */
 800775a:	4c1c      	ldr	r4, [pc, #112]	; (80077cc <xTaskCheckForTimeOut+0x98>)
 800775c:	e9d5 0200 	ldrd	r0, r2, [r5]
 8007760:	6827      	ldr	r7, [r4, #0]
 8007762:	42b8      	cmp	r0, r7
 8007764:	d01e      	beq.n	80077a4 <xTaskCheckForTimeOut+0x70>
 8007766:	428a      	cmp	r2, r1
 8007768:	d81c      	bhi.n	80077a4 <xTaskCheckForTimeOut+0x70>
			xReturn = pdTRUE;
 800776a:	2401      	movs	r4, #1
 800776c:	e016      	b.n	800779c <xTaskCheckForTimeOut+0x68>
 800776e:	f04f 0350 	mov.w	r3, #80	; 0x50
 8007772:	f383 8811 	msr	BASEPRI, r3
 8007776:	f3bf 8f6f 	isb	sy
 800777a:	f3bf 8f4f 	dsb	sy
	configASSERT( pxTicksToWait );
 800777e:	e7fe      	b.n	800777e <xTaskCheckForTimeOut+0x4a>
 8007780:	f04f 0350 	mov.w	r3, #80	; 0x50
 8007784:	f383 8811 	msr	BASEPRI, r3
 8007788:	f3bf 8f6f 	isb	sy
 800778c:	f3bf 8f4f 	dsb	sy
	configASSERT( pxTimeOut );
 8007790:	e7fe      	b.n	8007790 <xTaskCheckForTimeOut+0x5c>
				pxCurrentTCB->ucDelayAborted = pdFALSE;
 8007792:	681b      	ldr	r3, [r3, #0]
 8007794:	2200      	movs	r2, #0
 8007796:	f883 206a 	strb.w	r2, [r3, #106]	; 0x6a
				xReturn = pdTRUE;
 800779a:	2401      	movs	r4, #1
	taskEXIT_CRITICAL();
 800779c:	f000 fc0c 	bl	8007fb8 <vPortExitCritical>
}
 80077a0:	4620      	mov	r0, r4
 80077a2:	bdf8      	pop	{r3, r4, r5, r6, r7, pc}
		const TickType_t xElapsedTime = xConstTickCount - pxTimeOut->xTimeOnEntering;
 80077a4:	1a8f      	subs	r7, r1, r2
		else if( xElapsedTime < *pxTicksToWait ) /*lint !e961 Explicit casting is only redundant with some compilers, whereas others require it to prevent integer conversion errors. */
 80077a6:	42bb      	cmp	r3, r7
 80077a8:	d909      	bls.n	80077be <xTaskCheckForTimeOut+0x8a>
			*pxTicksToWait -= xElapsedTime;
 80077aa:	1a5b      	subs	r3, r3, r1
 80077ac:	4413      	add	r3, r2
	pxTimeOut->xOverflowCount = xNumOfOverflows;
 80077ae:	6821      	ldr	r1, [r4, #0]
	pxTimeOut->xTimeOnEntering = xTickCount;
 80077b0:	f8dc 2000 	ldr.w	r2, [ip]
			*pxTicksToWait -= xElapsedTime;
 80077b4:	6033      	str	r3, [r6, #0]
			xReturn = pdFALSE;
 80077b6:	2400      	movs	r4, #0
	pxTimeOut->xTimeOnEntering = xTickCount;
 80077b8:	e9c5 1200 	strd	r1, r2, [r5]
			xReturn = pdFALSE;
 80077bc:	e7ee      	b.n	800779c <xTaskCheckForTimeOut+0x68>
			*pxTicksToWait = 0;
 80077be:	2300      	movs	r3, #0
 80077c0:	6033      	str	r3, [r6, #0]
			xReturn = pdTRUE;
 80077c2:	2401      	movs	r4, #1
 80077c4:	e7ea      	b.n	800779c <xTaskCheckForTimeOut+0x68>
 80077c6:	bf00      	nop
 80077c8:	20001230 	.word	0x20001230
 80077cc:	200016e0 	.word	0x200016e0
 80077d0:	20001728 	.word	0x20001728

080077d4 <vTaskMissedYield>:
	xYieldPending = pdTRUE;
 80077d4:	4b01      	ldr	r3, [pc, #4]	; (80077dc <vTaskMissedYield+0x8>)
 80077d6:	2201      	movs	r2, #1
 80077d8:	601a      	str	r2, [r3, #0]
}
 80077da:	4770      	bx	lr
 80077dc:	2000172c 	.word	0x2000172c

080077e0 <uxTaskGetStackHighWaterMark>:
		pxTCB = prvGetTCBFromHandle( xTask );
 80077e0:	b168      	cbz	r0, 80077fe <uxTaskGetStackHighWaterMark+0x1e>
			pucEndOfStack = ( uint8_t * ) pxTCB->pxStack;
 80077e2:	6b03      	ldr	r3, [r0, #48]	; 0x30
		while( *pucStackByte == ( uint8_t ) tskSTACK_FILL_BYTE )
 80077e4:	781a      	ldrb	r2, [r3, #0]
 80077e6:	2aa5      	cmp	r2, #165	; 0xa5
 80077e8:	d10f      	bne.n	800780a <uxTaskGetStackHighWaterMark+0x2a>
 80077ea:	f1c3 0101 	rsb	r1, r3, #1
			ulCount++;
 80077ee:	18c8      	adds	r0, r1, r3
		while( *pucStackByte == ( uint8_t ) tskSTACK_FILL_BYTE )
 80077f0:	f813 2f01 	ldrb.w	r2, [r3, #1]!
 80077f4:	2aa5      	cmp	r2, #165	; 0xa5
 80077f6:	d0fa      	beq.n	80077ee <uxTaskGetStackHighWaterMark+0xe>
 80077f8:	f3c0 008f 	ubfx	r0, r0, #2, #16
 80077fc:	4770      	bx	lr
		pxTCB = prvGetTCBFromHandle( xTask );
 80077fe:	4b04      	ldr	r3, [pc, #16]	; (8007810 <uxTaskGetStackHighWaterMark+0x30>)
 8007800:	6818      	ldr	r0, [r3, #0]
			pucEndOfStack = ( uint8_t * ) pxTCB->pxStack;
 8007802:	6b03      	ldr	r3, [r0, #48]	; 0x30
		while( *pucStackByte == ( uint8_t ) tskSTACK_FILL_BYTE )
 8007804:	781a      	ldrb	r2, [r3, #0]
 8007806:	2aa5      	cmp	r2, #165	; 0xa5
 8007808:	d0ef      	beq.n	80077ea <uxTaskGetStackHighWaterMark+0xa>
 800780a:	2000      	movs	r0, #0
	}
 800780c:	4770      	bx	lr
 800780e:	bf00      	nop
 8007810:	20001230 	.word	0x20001230

08007814 <xTaskGetSchedulerState>:
		if( xSchedulerRunning == pdFALSE )
 8007814:	4b05      	ldr	r3, [pc, #20]	; (800782c <xTaskGetSchedulerState+0x18>)
 8007816:	681b      	ldr	r3, [r3, #0]
 8007818:	b133      	cbz	r3, 8007828 <xTaskGetSchedulerState+0x14>
			if( uxSchedulerSuspended == ( UBaseType_t ) pdFALSE )
 800781a:	4b05      	ldr	r3, [pc, #20]	; (8007830 <xTaskGetSchedulerState+0x1c>)
 800781c:	681b      	ldr	r3, [r3, #0]
 800781e:	2b00      	cmp	r3, #0
				xReturn = taskSCHEDULER_SUSPENDED;
 8007820:	bf0c      	ite	eq
 8007822:	2002      	moveq	r0, #2
 8007824:	2000      	movne	r0, #0
 8007826:	4770      	bx	lr
			xReturn = taskSCHEDULER_NOT_STARTED;
 8007828:	2001      	movs	r0, #1
	}
 800782a:	4770      	bx	lr
 800782c:	200016fc 	.word	0x200016fc
 8007830:	200016a8 	.word	0x200016a8

08007834 <xTaskPriorityDisinherit>:
		if( pxMutexHolder != NULL )
 8007834:	b1d0      	cbz	r0, 800786c <xTaskPriorityDisinherit+0x38>
	{
 8007836:	b530      	push	{r4, r5, lr}
			configASSERT( pxTCB == pxCurrentTCB );
 8007838:	4b1e      	ldr	r3, [pc, #120]	; (80078b4 <xTaskPriorityDisinherit+0x80>)
 800783a:	681c      	ldr	r4, [r3, #0]
 800783c:	4284      	cmp	r4, r0
	{
 800783e:	b083      	sub	sp, #12
			configASSERT( pxTCB == pxCurrentTCB );
 8007840:	d008      	beq.n	8007854 <xTaskPriorityDisinherit+0x20>
 8007842:	f04f 0350 	mov.w	r3, #80	; 0x50
 8007846:	f383 8811 	msr	BASEPRI, r3
 800784a:	f3bf 8f6f 	isb	sy
 800784e:	f3bf 8f4f 	dsb	sy
 8007852:	e7fe      	b.n	8007852 <xTaskPriorityDisinherit+0x1e>
			configASSERT( pxTCB->uxMutexesHeld );
 8007854:	6da3      	ldr	r3, [r4, #88]	; 0x58
 8007856:	b15b      	cbz	r3, 8007870 <xTaskPriorityDisinherit+0x3c>
			if( pxTCB->uxPriority != pxTCB->uxBasePriority )
 8007858:	6ae1      	ldr	r1, [r4, #44]	; 0x2c
 800785a:	6d62      	ldr	r2, [r4, #84]	; 0x54
			( pxTCB->uxMutexesHeld )--;
 800785c:	3b01      	subs	r3, #1
			if( pxTCB->uxPriority != pxTCB->uxBasePriority )
 800785e:	4291      	cmp	r1, r2
			( pxTCB->uxMutexesHeld )--;
 8007860:	65a3      	str	r3, [r4, #88]	; 0x58
			if( pxTCB->uxPriority != pxTCB->uxBasePriority )
 8007862:	d000      	beq.n	8007866 <xTaskPriorityDisinherit+0x32>
				if( pxTCB->uxMutexesHeld == ( UBaseType_t ) 0 )
 8007864:	b16b      	cbz	r3, 8007882 <xTaskPriorityDisinherit+0x4e>
	BaseType_t xReturn = pdFALSE;
 8007866:	2000      	movs	r0, #0
	}
 8007868:	b003      	add	sp, #12
 800786a:	bd30      	pop	{r4, r5, pc}
	BaseType_t xReturn = pdFALSE;
 800786c:	2000      	movs	r0, #0
	}
 800786e:	4770      	bx	lr
 8007870:	f04f 0350 	mov.w	r3, #80	; 0x50
 8007874:	f383 8811 	msr	BASEPRI, r3
 8007878:	f3bf 8f6f 	isb	sy
 800787c:	f3bf 8f4f 	dsb	sy
			configASSERT( pxTCB->uxMutexesHeld );
 8007880:	e7fe      	b.n	8007880 <xTaskPriorityDisinherit+0x4c>
					if( uxListRemove( &( pxTCB->xStateListItem ) ) == ( UBaseType_t ) 0 )
 8007882:	1d21      	adds	r1, r4, #4
 8007884:	4608      	mov	r0, r1
 8007886:	9101      	str	r1, [sp, #4]
 8007888:	f7fe fcc8 	bl	800621c <uxListRemove>
					prvAddTaskToReadyList( pxTCB );
 800788c:	4a0a      	ldr	r2, [pc, #40]	; (80078b8 <xTaskPriorityDisinherit+0x84>)
					pxTCB->uxPriority = pxTCB->uxBasePriority;
 800788e:	6d63      	ldr	r3, [r4, #84]	; 0x54
					prvAddTaskToReadyList( pxTCB );
 8007890:	6810      	ldr	r0, [r2, #0]
					pxTCB->uxPriority = pxTCB->uxBasePriority;
 8007892:	62e3      	str	r3, [r4, #44]	; 0x2c
					prvAddTaskToReadyList( pxTCB );
 8007894:	4283      	cmp	r3, r0
 8007896:	4809      	ldr	r0, [pc, #36]	; (80078bc <xTaskPriorityDisinherit+0x88>)
 8007898:	bf88      	it	hi
 800789a:	6013      	strhi	r3, [r2, #0]
					listSET_LIST_ITEM_VALUE( &( pxTCB->xEventListItem ), ( TickType_t ) configMAX_PRIORITIES - ( TickType_t ) pxTCB->uxPriority ); /*lint !e961 MISRA exception as the casts are only redundant for some ports. */
 800789c:	f1c3 0538 	rsb	r5, r3, #56	; 0x38
					prvAddTaskToReadyList( pxTCB );
 80078a0:	eb03 0383 	add.w	r3, r3, r3, lsl #2
 80078a4:	eb00 0083 	add.w	r0, r0, r3, lsl #2
 80078a8:	9901      	ldr	r1, [sp, #4]
					listSET_LIST_ITEM_VALUE( &( pxTCB->xEventListItem ), ( TickType_t ) configMAX_PRIORITIES - ( TickType_t ) pxTCB->uxPriority ); /*lint !e961 MISRA exception as the casts are only redundant for some ports. */
 80078aa:	61a5      	str	r5, [r4, #24]
					prvAddTaskToReadyList( pxTCB );
 80078ac:	f7fe fc8e 	bl	80061cc <vListInsertEnd>
					xReturn = pdTRUE;
 80078b0:	2001      	movs	r0, #1
		return xReturn;
 80078b2:	e7d9      	b.n	8007868 <xTaskPriorityDisinherit+0x34>
 80078b4:	20001230 	.word	0x20001230
 80078b8:	200016b0 	.word	0x200016b0
 80078bc:	2000123c 	.word	0x2000123c

080078c0 <ulTaskNotifyTake>:
	{
 80078c0:	b5f8      	push	{r3, r4, r5, r6, r7, lr}
			if( pxCurrentTCB->ulNotifiedValue == 0UL )
 80078c2:	4c29      	ldr	r4, [pc, #164]	; (8007968 <ulTaskNotifyTake+0xa8>)
	{
 80078c4:	4606      	mov	r6, r0
 80078c6:	460d      	mov	r5, r1
		taskENTER_CRITICAL();
 80078c8:	f000 fb54 	bl	8007f74 <vPortEnterCritical>
			if( pxCurrentTCB->ulNotifiedValue == 0UL )
 80078cc:	6823      	ldr	r3, [r4, #0]
 80078ce:	6e5b      	ldr	r3, [r3, #100]	; 0x64
 80078d0:	b923      	cbnz	r3, 80078dc <ulTaskNotifyTake+0x1c>
				pxCurrentTCB->ucNotifyState = taskWAITING_NOTIFICATION;
 80078d2:	6822      	ldr	r2, [r4, #0]
 80078d4:	2101      	movs	r1, #1
 80078d6:	f882 1068 	strb.w	r1, [r2, #104]	; 0x68
				if( xTicksToWait > ( TickType_t ) 0 )
 80078da:	b9ad      	cbnz	r5, 8007908 <ulTaskNotifyTake+0x48>
		taskEXIT_CRITICAL();
 80078dc:	f000 fb6c 	bl	8007fb8 <vPortExitCritical>
		taskENTER_CRITICAL();
 80078e0:	f000 fb48 	bl	8007f74 <vPortEnterCritical>
			ulReturn = pxCurrentTCB->ulNotifiedValue;
 80078e4:	6823      	ldr	r3, [r4, #0]
 80078e6:	6e5d      	ldr	r5, [r3, #100]	; 0x64
			if( ulReturn != 0UL )
 80078e8:	b11d      	cbz	r5, 80078f2 <ulTaskNotifyTake+0x32>
					pxCurrentTCB->ulNotifiedValue = 0UL;
 80078ea:	6823      	ldr	r3, [r4, #0]
				if( xClearCountOnExit != pdFALSE )
 80078ec:	b14e      	cbz	r6, 8007902 <ulTaskNotifyTake+0x42>
					pxCurrentTCB->ulNotifiedValue = 0UL;
 80078ee:	2200      	movs	r2, #0
 80078f0:	665a      	str	r2, [r3, #100]	; 0x64
			pxCurrentTCB->ucNotifyState = taskNOT_WAITING_NOTIFICATION;
 80078f2:	6823      	ldr	r3, [r4, #0]
 80078f4:	2200      	movs	r2, #0
 80078f6:	f883 2068 	strb.w	r2, [r3, #104]	; 0x68
		taskEXIT_CRITICAL();
 80078fa:	f000 fb5d 	bl	8007fb8 <vPortExitCritical>
	}
 80078fe:	4628      	mov	r0, r5
 8007900:	bdf8      	pop	{r3, r4, r5, r6, r7, pc}
					pxCurrentTCB->ulNotifiedValue = ulReturn - ( uint32_t ) 1;
 8007902:	1e6a      	subs	r2, r5, #1
 8007904:	665a      	str	r2, [r3, #100]	; 0x64
 8007906:	e7f4      	b.n	80078f2 <ulTaskNotifyTake+0x32>
const TickType_t xConstTickCount = xTickCount;
 8007908:	4a18      	ldr	r2, [pc, #96]	; (800796c <ulTaskNotifyTake+0xac>)
 800790a:	6817      	ldr	r7, [r2, #0]
		pxCurrentTCB->ucDelayAborted = pdFALSE;
 800790c:	6822      	ldr	r2, [r4, #0]
	if( uxListRemove( &( pxCurrentTCB->xStateListItem ) ) == ( UBaseType_t ) 0 )
 800790e:	6820      	ldr	r0, [r4, #0]
		pxCurrentTCB->ucDelayAborted = pdFALSE;
 8007910:	f882 306a 	strb.w	r3, [r2, #106]	; 0x6a
	if( uxListRemove( &( pxCurrentTCB->xStateListItem ) ) == ( UBaseType_t ) 0 )
 8007914:	3004      	adds	r0, #4
 8007916:	f7fe fc81 	bl	800621c <uxListRemove>
		if( ( xTicksToWait == portMAX_DELAY ) && ( xCanBlockIndefinitely != pdFALSE ) )
 800791a:	1c6b      	adds	r3, r5, #1
 800791c:	d012      	beq.n	8007944 <ulTaskNotifyTake+0x84>
			listSET_LIST_ITEM_VALUE( &( pxCurrentTCB->xStateListItem ), xTimeToWake );
 800791e:	6823      	ldr	r3, [r4, #0]
 8007920:	19ed      	adds	r5, r5, r7
 8007922:	605d      	str	r5, [r3, #4]
			if( xTimeToWake < xConstTickCount )
 8007924:	d314      	bcc.n	8007950 <ulTaskNotifyTake+0x90>
				vListInsert( pxOverflowDelayedTaskList, &( pxCurrentTCB->xStateListItem ) );
 8007926:	4b12      	ldr	r3, [pc, #72]	; (8007970 <ulTaskNotifyTake+0xb0>)
 8007928:	6818      	ldr	r0, [r3, #0]
 800792a:	6821      	ldr	r1, [r4, #0]
 800792c:	3104      	adds	r1, #4
 800792e:	f7fe fc5d 	bl	80061ec <vListInsert>
					portYIELD_WITHIN_API();
 8007932:	4b10      	ldr	r3, [pc, #64]	; (8007974 <ulTaskNotifyTake+0xb4>)
 8007934:	f04f 5280 	mov.w	r2, #268435456	; 0x10000000
 8007938:	601a      	str	r2, [r3, #0]
 800793a:	f3bf 8f4f 	dsb	sy
 800793e:	f3bf 8f6f 	isb	sy
 8007942:	e7cb      	b.n	80078dc <ulTaskNotifyTake+0x1c>
			vListInsertEnd( &xSuspendedTaskList, &( pxCurrentTCB->xStateListItem ) );
 8007944:	6821      	ldr	r1, [r4, #0]
 8007946:	480c      	ldr	r0, [pc, #48]	; (8007978 <ulTaskNotifyTake+0xb8>)
 8007948:	3104      	adds	r1, #4
 800794a:	f7fe fc3f 	bl	80061cc <vListInsertEnd>

		/* Avoid compiler warning when INCLUDE_vTaskSuspend is not 1. */
		( void ) xCanBlockIndefinitely;
	}
	#endif /* INCLUDE_vTaskSuspend */
}
 800794e:	e7f0      	b.n	8007932 <ulTaskNotifyTake+0x72>
				vListInsert( pxDelayedTaskList, &( pxCurrentTCB->xStateListItem ) );
 8007950:	4b0a      	ldr	r3, [pc, #40]	; (800797c <ulTaskNotifyTake+0xbc>)
 8007952:	6818      	ldr	r0, [r3, #0]
 8007954:	6821      	ldr	r1, [r4, #0]
 8007956:	3104      	adds	r1, #4
 8007958:	f7fe fc48 	bl	80061ec <vListInsert>
				if( xTimeToWake < xNextTaskUnblockTime )
 800795c:	4b08      	ldr	r3, [pc, #32]	; (8007980 <ulTaskNotifyTake+0xc0>)
 800795e:	681a      	ldr	r2, [r3, #0]
 8007960:	4295      	cmp	r5, r2
					xNextTaskUnblockTime = xTimeToWake;
 8007962:	bf38      	it	cc
 8007964:	601d      	strcc	r5, [r3, #0]
 8007966:	e7e4      	b.n	8007932 <ulTaskNotifyTake+0x72>
 8007968:	20001230 	.word	0x20001230
 800796c:	20001728 	.word	0x20001728
 8007970:	20001238 	.word	0x20001238
 8007974:	e000ed04 	.word	0xe000ed04
 8007978:	20001700 	.word	0x20001700
 800797c:	20001234 	.word	0x20001234
 8007980:	200016dc 	.word	0x200016dc

08007984 <xTaskGenericNotifyFromISR>:
	{
 8007984:	e92d 43f0 	stmdb	sp!, {r4, r5, r6, r7, r8, r9, lr}
 8007988:	b083      	sub	sp, #12
 800798a:	9f0a      	ldr	r7, [sp, #40]	; 0x28
		configASSERT( xTaskToNotify );
 800798c:	b318      	cbz	r0, 80079d6 <xTaskGenericNotifyFromISR+0x52>
		portASSERT_IF_INTERRUPT_PRIORITY_INVALID();
 800798e:	460d      	mov	r5, r1
 8007990:	4690      	mov	r8, r2
 8007992:	4699      	mov	r9, r3
 8007994:	4604      	mov	r4, r0
 8007996:	f000 fc25 	bl	80081e4 <vPortValidateInterruptPriority>

portFORCE_INLINE static uint32_t ulPortRaiseBASEPRI( void )
{
uint32_t ulOriginalBASEPRI, ulNewBASEPRI;

	__asm volatile
 800799a:	f3ef 8611 	mrs	r6, BASEPRI
 800799e:	f04f 0350 	mov.w	r3, #80	; 0x50
 80079a2:	f383 8811 	msr	BASEPRI, r3
 80079a6:	f3bf 8f6f 	isb	sy
 80079aa:	f3bf 8f4f 	dsb	sy
			if( pulPreviousNotificationValue != NULL )
 80079ae:	f1b9 0f00 	cmp.w	r9, #0
 80079b2:	d002      	beq.n	80079ba <xTaskGenericNotifyFromISR+0x36>
				*pulPreviousNotificationValue = pxTCB->ulNotifiedValue;
 80079b4:	6e63      	ldr	r3, [r4, #100]	; 0x64
 80079b6:	f8c9 3000 	str.w	r3, [r9]
			ucOriginalNotifyState = pxTCB->ucNotifyState;
 80079ba:	f894 3068 	ldrb.w	r3, [r4, #104]	; 0x68
			pxTCB->ucNotifyState = taskNOTIFICATION_RECEIVED;
 80079be:	2202      	movs	r2, #2
			ucOriginalNotifyState = pxTCB->ucNotifyState;
 80079c0:	b2db      	uxtb	r3, r3
			pxTCB->ucNotifyState = taskNOTIFICATION_RECEIVED;
 80079c2:	f884 2068 	strb.w	r2, [r4, #104]	; 0x68
			switch( eAction )
 80079c6:	f1b8 0f04 	cmp.w	r8, #4
 80079ca:	d856      	bhi.n	8007a7a <xTaskGenericNotifyFromISR+0xf6>
 80079cc:	e8df f008 	tbb	[pc, r8]
 80079d0:	28220c0f 	.word	0x28220c0f
 80079d4:	26          	.byte	0x26
 80079d5:	00          	.byte	0x00
	__asm volatile
 80079d6:	f04f 0350 	mov.w	r3, #80	; 0x50
 80079da:	f383 8811 	msr	BASEPRI, r3
 80079de:	f3bf 8f6f 	isb	sy
 80079e2:	f3bf 8f4f 	dsb	sy
		configASSERT( xTaskToNotify );
 80079e6:	e7fe      	b.n	80079e6 <xTaskGenericNotifyFromISR+0x62>
					pxTCB->ulNotifiedValue |= ulValue;
 80079e8:	6e62      	ldr	r2, [r4, #100]	; 0x64
 80079ea:	4315      	orrs	r5, r2
 80079ec:	6665      	str	r5, [r4, #100]	; 0x64
			if( ucOriginalNotifyState == taskWAITING_NOTIFICATION )
 80079ee:	2b01      	cmp	r3, #1
 80079f0:	d005      	beq.n	80079fe <xTaskGenericNotifyFromISR+0x7a>
 80079f2:	2001      	movs	r0, #1
}
/*-----------------------------------------------------------*/

portFORCE_INLINE static void vPortSetBASEPRI( uint32_t ulNewMaskValue )
{
	__asm volatile
 80079f4:	f386 8811 	msr	BASEPRI, r6
	}
 80079f8:	b003      	add	sp, #12
 80079fa:	e8bd 83f0 	ldmia.w	sp!, {r4, r5, r6, r7, r8, r9, pc}
				configASSERT( listLIST_ITEM_CONTAINER( &( pxTCB->xEventListItem ) ) == NULL );
 80079fe:	6aa3      	ldr	r3, [r4, #40]	; 0x28
 8007a00:	b183      	cbz	r3, 8007a24 <xTaskGenericNotifyFromISR+0xa0>
	__asm volatile
 8007a02:	f04f 0350 	mov.w	r3, #80	; 0x50
 8007a06:	f383 8811 	msr	BASEPRI, r3
 8007a0a:	f3bf 8f6f 	isb	sy
 8007a0e:	f3bf 8f4f 	dsb	sy
 8007a12:	e7fe      	b.n	8007a12 <xTaskGenericNotifyFromISR+0x8e>
					( pxTCB->ulNotifiedValue )++;
 8007a14:	6e62      	ldr	r2, [r4, #100]	; 0x64
 8007a16:	3201      	adds	r2, #1
 8007a18:	6662      	str	r2, [r4, #100]	; 0x64
					break;
 8007a1a:	e7e8      	b.n	80079ee <xTaskGenericNotifyFromISR+0x6a>
					if( ucOriginalNotifyState != taskNOTIFICATION_RECEIVED )
 8007a1c:	2b02      	cmp	r3, #2
 8007a1e:	d02a      	beq.n	8007a76 <xTaskGenericNotifyFromISR+0xf2>
						pxTCB->ulNotifiedValue = ulValue;
 8007a20:	6665      	str	r5, [r4, #100]	; 0x64
 8007a22:	e7e4      	b.n	80079ee <xTaskGenericNotifyFromISR+0x6a>
				if( uxSchedulerSuspended == ( UBaseType_t ) pdFALSE )
 8007a24:	4b1b      	ldr	r3, [pc, #108]	; (8007a94 <xTaskGenericNotifyFromISR+0x110>)
 8007a26:	681b      	ldr	r3, [r3, #0]
 8007a28:	b9fb      	cbnz	r3, 8007a6a <xTaskGenericNotifyFromISR+0xe6>
					( void ) uxListRemove( &( pxTCB->xStateListItem ) );
 8007a2a:	1d21      	adds	r1, r4, #4
 8007a2c:	4608      	mov	r0, r1
 8007a2e:	9101      	str	r1, [sp, #4]
 8007a30:	f7fe fbf4 	bl	800621c <uxListRemove>
					prvAddTaskToReadyList( pxTCB );
 8007a34:	4a18      	ldr	r2, [pc, #96]	; (8007a98 <xTaskGenericNotifyFromISR+0x114>)
 8007a36:	6ae3      	ldr	r3, [r4, #44]	; 0x2c
 8007a38:	6810      	ldr	r0, [r2, #0]
 8007a3a:	9901      	ldr	r1, [sp, #4]
 8007a3c:	4283      	cmp	r3, r0
 8007a3e:	4817      	ldr	r0, [pc, #92]	; (8007a9c <xTaskGenericNotifyFromISR+0x118>)
 8007a40:	bf88      	it	hi
 8007a42:	6013      	strhi	r3, [r2, #0]
 8007a44:	eb03 0383 	add.w	r3, r3, r3, lsl #2
 8007a48:	eb00 0083 	add.w	r0, r0, r3, lsl #2
 8007a4c:	f7fe fbbe 	bl	80061cc <vListInsertEnd>
				if( pxTCB->uxPriority > pxCurrentTCB->uxPriority )
 8007a50:	4b13      	ldr	r3, [pc, #76]	; (8007aa0 <xTaskGenericNotifyFromISR+0x11c>)
 8007a52:	6ae2      	ldr	r2, [r4, #44]	; 0x2c
 8007a54:	681b      	ldr	r3, [r3, #0]
 8007a56:	6adb      	ldr	r3, [r3, #44]	; 0x2c
 8007a58:	429a      	cmp	r2, r3
 8007a5a:	d9ca      	bls.n	80079f2 <xTaskGenericNotifyFromISR+0x6e>
					if( pxHigherPriorityTaskWoken != NULL )
 8007a5c:	b10f      	cbz	r7, 8007a62 <xTaskGenericNotifyFromISR+0xde>
						*pxHigherPriorityTaskWoken = pdTRUE;
 8007a5e:	2301      	movs	r3, #1
 8007a60:	603b      	str	r3, [r7, #0]
					xYieldPending = pdTRUE;
 8007a62:	4b10      	ldr	r3, [pc, #64]	; (8007aa4 <xTaskGenericNotifyFromISR+0x120>)
 8007a64:	2001      	movs	r0, #1
 8007a66:	6018      	str	r0, [r3, #0]
 8007a68:	e7c4      	b.n	80079f4 <xTaskGenericNotifyFromISR+0x70>
					vListInsertEnd( &( xPendingReadyList ), &( pxTCB->xEventListItem ) );
 8007a6a:	480f      	ldr	r0, [pc, #60]	; (8007aa8 <xTaskGenericNotifyFromISR+0x124>)
 8007a6c:	f104 0118 	add.w	r1, r4, #24
 8007a70:	f7fe fbac 	bl	80061cc <vListInsertEnd>
 8007a74:	e7ec      	b.n	8007a50 <xTaskGenericNotifyFromISR+0xcc>
						xReturn = pdFAIL;
 8007a76:	2000      	movs	r0, #0
 8007a78:	e7bc      	b.n	80079f4 <xTaskGenericNotifyFromISR+0x70>
					configASSERT( pxTCB->ulNotifiedValue == ~0UL );
 8007a7a:	6e62      	ldr	r2, [r4, #100]	; 0x64
 8007a7c:	3201      	adds	r2, #1
 8007a7e:	d0b6      	beq.n	80079ee <xTaskGenericNotifyFromISR+0x6a>
 8007a80:	f04f 0350 	mov.w	r3, #80	; 0x50
 8007a84:	f383 8811 	msr	BASEPRI, r3
 8007a88:	f3bf 8f6f 	isb	sy
 8007a8c:	f3bf 8f4f 	dsb	sy
 8007a90:	e7fe      	b.n	8007a90 <xTaskGenericNotifyFromISR+0x10c>
 8007a92:	bf00      	nop
 8007a94:	200016a8 	.word	0x200016a8
 8007a98:	200016b0 	.word	0x200016b0
 8007a9c:	2000123c 	.word	0x2000123c
 8007aa0:	20001230 	.word	0x20001230
 8007aa4:	2000172c 	.word	0x2000172c
 8007aa8:	200016e8 	.word	0x200016e8

08007aac <prvSwitchTimerLists>:
	}
}
/*-----------------------------------------------------------*/

static void prvSwitchTimerLists( void )
{
 8007aac:	e92d 43f0 	stmdb	sp!, {r4, r5, r6, r7, r8, r9, lr}
 8007ab0:	4e22      	ldr	r6, [pc, #136]	; (8007b3c <prvSwitchTimerLists+0x90>)
	if( xTimerQueue != NULL )
 8007ab2:	f8df 9090 	ldr.w	r9, [pc, #144]	; 8007b44 <prvSwitchTimerLists+0x98>
{
 8007ab6:	b085      	sub	sp, #20
		xMessage.xMessageID = xCommandID;
 8007ab8:	f04f 0800 	mov.w	r8, #0

	/* The tick count has overflowed.  The timer lists must be switched.
	If there are any timers still referenced from the current timer list
	then they must have expired and should be processed before the lists
	are switched. */
	while( listLIST_IS_EMPTY( pxCurrentTimerList ) == pdFALSE )
 8007abc:	e00d      	b.n	8007ada <prvSwitchTimerLists+0x2e>
	{
		xNextExpireTime = listGET_ITEM_VALUE_OF_HEAD_ENTRY( pxCurrentTimerList );
 8007abe:	68db      	ldr	r3, [r3, #12]

		/* Remove the timer from the list. */
		pxTimer = ( Timer_t * ) listGET_OWNER_OF_HEAD_ENTRY( pxCurrentTimerList ); /*lint !e9087 !e9079 void * is used as this macro is used with tasks and co-routines too.  Alignment is known to be fine as the type of the pointer stored and retrieved is the same. */
 8007ac0:	68dc      	ldr	r4, [r3, #12]
		xNextExpireTime = listGET_ITEM_VALUE_OF_HEAD_ENTRY( pxCurrentTimerList );
 8007ac2:	681f      	ldr	r7, [r3, #0]
		( void ) uxListRemove( &( pxTimer->xTimerListItem ) );
 8007ac4:	1d25      	adds	r5, r4, #4
 8007ac6:	4628      	mov	r0, r5
 8007ac8:	f7fe fba8 	bl	800621c <uxListRemove>
		traceTIMER_EXPIRED( pxTimer );

		/* Execute its callback, then send a command to restart the timer if
		it is an auto-reload timer.  It cannot be restarted here as the lists
		have not yet been switched. */
		pxTimer->pxCallbackFunction( ( TimerHandle_t ) pxTimer );
 8007acc:	6a23      	ldr	r3, [r4, #32]
 8007ace:	4620      	mov	r0, r4
 8007ad0:	4798      	blx	r3

		if( ( pxTimer->ucStatus & tmrSTATUS_IS_AUTORELOAD ) != 0 )
 8007ad2:	f894 3028 	ldrb.w	r3, [r4, #40]	; 0x28
 8007ad6:	075b      	lsls	r3, r3, #29
 8007ad8:	d40a      	bmi.n	8007af0 <prvSwitchTimerLists+0x44>
	while( listLIST_IS_EMPTY( pxCurrentTimerList ) == pdFALSE )
 8007ada:	6833      	ldr	r3, [r6, #0]
 8007adc:	681a      	ldr	r2, [r3, #0]
 8007ade:	2a00      	cmp	r2, #0
 8007ae0:	d1ed      	bne.n	8007abe <prvSwitchTimerLists+0x12>
			mtCOVERAGE_TEST_MARKER();
		}
	}

	pxTemp = pxCurrentTimerList;
	pxCurrentTimerList = pxOverflowTimerList;
 8007ae2:	4a17      	ldr	r2, [pc, #92]	; (8007b40 <prvSwitchTimerLists+0x94>)
 8007ae4:	6811      	ldr	r1, [r2, #0]
 8007ae6:	6031      	str	r1, [r6, #0]
	pxOverflowTimerList = pxTemp;
 8007ae8:	6013      	str	r3, [r2, #0]
}
 8007aea:	b005      	add	sp, #20
 8007aec:	e8bd 83f0 	ldmia.w	sp!, {r4, r5, r6, r7, r8, r9, pc}
			xReloadTime = ( xNextExpireTime + pxTimer->xTimerPeriodInTicks );
 8007af0:	69a3      	ldr	r3, [r4, #24]
 8007af2:	443b      	add	r3, r7
			if( xReloadTime > xNextExpireTime )
 8007af4:	429f      	cmp	r7, r3
				vListInsert( pxCurrentTimerList, &( pxTimer->xTimerListItem ) );
 8007af6:	4629      	mov	r1, r5
			if( xReloadTime > xNextExpireTime )
 8007af8:	d205      	bcs.n	8007b06 <prvSwitchTimerLists+0x5a>
				vListInsert( pxCurrentTimerList, &( pxTimer->xTimerListItem ) );
 8007afa:	6830      	ldr	r0, [r6, #0]
				listSET_LIST_ITEM_VALUE( &( pxTimer->xTimerListItem ), xReloadTime );
 8007afc:	6063      	str	r3, [r4, #4]
				listSET_LIST_ITEM_OWNER( &( pxTimer->xTimerListItem ), pxTimer );
 8007afe:	6124      	str	r4, [r4, #16]
				vListInsert( pxCurrentTimerList, &( pxTimer->xTimerListItem ) );
 8007b00:	f7fe fb74 	bl	80061ec <vListInsert>
 8007b04:	e7e9      	b.n	8007ada <prvSwitchTimerLists+0x2e>
	if( xTimerQueue != NULL )
 8007b06:	f8d9 3000 	ldr.w	r3, [r9]
 8007b0a:	b16b      	cbz	r3, 8007b28 <prvSwitchTimerLists+0x7c>
		xMessage.u.xTimerParameters.xMessageValue = xOptionalValue;
 8007b0c:	e9cd 8700 	strd	r8, r7, [sp]
		xMessage.u.xTimerParameters.pxTimer = xTimer;
 8007b10:	9402      	str	r4, [sp, #8]
			if( xTaskGetSchedulerState() == taskSCHEDULER_RUNNING )
 8007b12:	f7ff fe7f 	bl	8007814 <xTaskGetSchedulerState>
				xReturn = xQueueSendToBack( xTimerQueue, &xMessage, xTicksToWait );
 8007b16:	2300      	movs	r3, #0
 8007b18:	f8d9 0000 	ldr.w	r0, [r9]
 8007b1c:	461a      	mov	r2, r3
 8007b1e:	4669      	mov	r1, sp
 8007b20:	f7fe fc40 	bl	80063a4 <xQueueGenericSend>
				configASSERT( xResult );
 8007b24:	2800      	cmp	r0, #0
 8007b26:	d1d8      	bne.n	8007ada <prvSwitchTimerLists+0x2e>
 8007b28:	f04f 0350 	mov.w	r3, #80	; 0x50
 8007b2c:	f383 8811 	msr	BASEPRI, r3
 8007b30:	f3bf 8f6f 	isb	sy
 8007b34:	f3bf 8f4f 	dsb	sy
 8007b38:	e7fe      	b.n	8007b38 <prvSwitchTimerLists+0x8c>
 8007b3a:	bf00      	nop
 8007b3c:	20001730 	.word	0x20001730
 8007b40:	20001734 	.word	0x20001734
 8007b44:	20001854 	.word	0x20001854

08007b48 <prvTimerTask>:
{
 8007b48:	e92d 4ff0 	stmdb	sp!, {r4, r5, r6, r7, r8, r9, sl, fp, lr}
 8007b4c:	4e9e      	ldr	r6, [pc, #632]	; (8007dc8 <prvTimerTask+0x280>)
 8007b4e:	4d9f      	ldr	r5, [pc, #636]	; (8007dcc <prvTimerTask+0x284>)
 8007b50:	4c9f      	ldr	r4, [pc, #636]	; (8007dd0 <prvTimerTask+0x288>)
 8007b52:	b08b      	sub	sp, #44	; 0x2c
 8007b54:	f04f 0800 	mov.w	r8, #0
	*pxListWasEmpty = listLIST_IS_EMPTY( pxCurrentTimerList );
 8007b58:	6833      	ldr	r3, [r6, #0]
 8007b5a:	f8d3 a000 	ldr.w	sl, [r3]
 8007b5e:	f1ba 0f00 	cmp.w	sl, #0
 8007b62:	f000 80ad 	beq.w	8007cc0 <prvTimerTask+0x178>
		xNextExpireTime = listGET_ITEM_VALUE_OF_HEAD_ENTRY( pxCurrentTimerList );
 8007b66:	68db      	ldr	r3, [r3, #12]
 8007b68:	f8d3 a000 	ldr.w	sl, [r3]
	vTaskSuspendAll();
 8007b6c:	f7ff fc0c 	bl	8007388 <vTaskSuspendAll>
	xTimeNow = xTaskGetTickCount();
 8007b70:	f7ff fc22 	bl	80073b8 <xTaskGetTickCount>
	if( xTimeNow < xLastTime )
 8007b74:	682a      	ldr	r2, [r5, #0]
 8007b76:	4290      	cmp	r0, r2
	xTimeNow = xTaskGetTickCount();
 8007b78:	4681      	mov	r9, r0
	if( xTimeNow < xLastTime )
 8007b7a:	f0c0 80b2 	bcc.w	8007ce2 <prvTimerTask+0x19a>
			if( ( xListWasEmpty == pdFALSE ) && ( xNextExpireTime <= xTimeNow ) )
 8007b7e:	4550      	cmp	r0, sl
	xLastTime = xTimeNow;
 8007b80:	6028      	str	r0, [r5, #0]
			if( ( xListWasEmpty == pdFALSE ) && ( xNextExpireTime <= xTimeNow ) )
 8007b82:	f080 80b8 	bcs.w	8007cf6 <prvTimerTask+0x1ae>
 8007b86:	2200      	movs	r2, #0
				vQueueWaitForMessageRestricted( xTimerQueue, ( xNextExpireTime - xTimeNow ), xListWasEmpty );
 8007b88:	6820      	ldr	r0, [r4, #0]
 8007b8a:	ebaa 0109 	sub.w	r1, sl, r9
 8007b8e:	f7fe ff4d 	bl	8006a2c <vQueueWaitForMessageRestricted>
				if( xTaskResumeAll() == pdFALSE )
 8007b92:	f7ff fc01 	bl	8007398 <xTaskResumeAll>
 8007b96:	b938      	cbnz	r0, 8007ba8 <prvTimerTask+0x60>
					portYIELD_WITHIN_API();
 8007b98:	4b8e      	ldr	r3, [pc, #568]	; (8007dd4 <prvTimerTask+0x28c>)
 8007b9a:	f04f 5280 	mov.w	r2, #268435456	; 0x10000000
 8007b9e:	601a      	str	r2, [r3, #0]
 8007ba0:	f3bf 8f4f 	dsb	sy
 8007ba4:	f3bf 8f6f 	isb	sy
	while( xQueueReceive( xTimerQueue, &xMessage, tmrNO_DELAY ) != pdFAIL ) /*lint !e603 xMessage does not have to be initialised as it is passed out, not in, and it is not used unless xQueueReceive() returns pdTRUE. */
 8007ba8:	6820      	ldr	r0, [r4, #0]
 8007baa:	2200      	movs	r2, #0
 8007bac:	a902      	add	r1, sp, #8
 8007bae:	f7fe fd7f 	bl	80066b0 <xQueueReceive>
 8007bb2:	2800      	cmp	r0, #0
 8007bb4:	d0d0      	beq.n	8007b58 <prvTimerTask+0x10>
			if( xMessage.xMessageID < ( BaseType_t ) 0 )
 8007bb6:	9b02      	ldr	r3, [sp, #8]
 8007bb8:	2b00      	cmp	r3, #0
 8007bba:	db78      	blt.n	8007cae <prvTimerTask+0x166>
			pxTimer = xMessage.u.xTimerParameters.pxTimer;
 8007bbc:	9f04      	ldr	r7, [sp, #16]
			if( listIS_CONTAINED_WITHIN( NULL, &( pxTimer->xTimerListItem ) ) == pdFALSE ) /*lint !e961. The cast is only redundant when NULL is passed into the macro. */
 8007bbe:	697b      	ldr	r3, [r7, #20]
 8007bc0:	b113      	cbz	r3, 8007bc8 <prvTimerTask+0x80>
				( void ) uxListRemove( &( pxTimer->xTimerListItem ) );
 8007bc2:	1d38      	adds	r0, r7, #4
 8007bc4:	f7fe fb2a 	bl	800621c <uxListRemove>
	xTimeNow = xTaskGetTickCount();
 8007bc8:	f7ff fbf6 	bl	80073b8 <xTaskGetTickCount>
	if( xTimeNow < xLastTime )
 8007bcc:	682b      	ldr	r3, [r5, #0]
 8007bce:	4298      	cmp	r0, r3
	xTimeNow = xTaskGetTickCount();
 8007bd0:	4681      	mov	r9, r0
	if( xTimeNow < xLastTime )
 8007bd2:	f0c0 808d 	bcc.w	8007cf0 <prvTimerTask+0x1a8>
	xLastTime = xTimeNow;
 8007bd6:	9b02      	ldr	r3, [sp, #8]
 8007bd8:	f8c5 9000 	str.w	r9, [r5]
			switch( xMessage.xMessageID )
 8007bdc:	2b09      	cmp	r3, #9
 8007bde:	d8e3      	bhi.n	8007ba8 <prvTimerTask+0x60>
 8007be0:	e8df f003 	tbb	[pc, r3]
 8007be4:	55050505 	.word	0x55050505
 8007be8:	05055c3e 	.word	0x05055c3e
 8007bec:	3e55      	.short	0x3e55
					pxTimer->ucStatus |= tmrSTATUS_IS_ACTIVE;
 8007bee:	f897 1028 	ldrb.w	r1, [r7, #40]	; 0x28
					if( prvInsertTimerInActiveList( pxTimer,  xMessage.u.xTimerParameters.xMessageValue + pxTimer->xTimerPeriodInTicks, xTimeNow, xMessage.u.xTimerParameters.xMessageValue ) != pdFALSE )
 8007bf2:	9b03      	ldr	r3, [sp, #12]
 8007bf4:	69ba      	ldr	r2, [r7, #24]
	listSET_LIST_ITEM_OWNER( &( pxTimer->xTimerListItem ), pxTimer );
 8007bf6:	613f      	str	r7, [r7, #16]
 8007bf8:	1898      	adds	r0, r3, r2
					pxTimer->ucStatus |= tmrSTATUS_IS_ACTIVE;
 8007bfa:	f041 0101 	orr.w	r1, r1, #1
 8007bfe:	f887 1028 	strb.w	r1, [r7, #40]	; 0x28
					if( prvInsertTimerInActiveList( pxTimer,  xMessage.u.xTimerParameters.xMessageValue + pxTimer->xTimerPeriodInTicks, xTimeNow, xMessage.u.xTimerParameters.xMessageValue ) != pdFALSE )
 8007c02:	bf2c      	ite	cs
 8007c04:	2101      	movcs	r1, #1
 8007c06:	2100      	movcc	r1, #0
	if( xNextExpiryTime <= xTimeNow )
 8007c08:	4548      	cmp	r0, r9
	listSET_LIST_ITEM_VALUE( &( pxTimer->xTimerListItem ), xNextExpiryTime );
 8007c0a:	6078      	str	r0, [r7, #4]
	if( xNextExpiryTime <= xTimeNow )
 8007c0c:	f200 808e 	bhi.w	8007d2c <prvTimerTask+0x1e4>
		if( ( ( TickType_t ) ( xTimeNow - xCommandTime ) ) >= pxTimer->xTimerPeriodInTicks ) /*lint !e961 MISRA exception as the casts are only redundant for some ports. */
 8007c10:	eba9 0303 	sub.w	r3, r9, r3
 8007c14:	429a      	cmp	r2, r3
 8007c16:	f200 8097 	bhi.w	8007d48 <prvTimerTask+0x200>
						pxTimer->pxCallbackFunction( ( TimerHandle_t ) pxTimer );
 8007c1a:	6a3b      	ldr	r3, [r7, #32]
 8007c1c:	4638      	mov	r0, r7
 8007c1e:	4798      	blx	r3
						if( ( pxTimer->ucStatus & tmrSTATUS_IS_AUTORELOAD ) != 0 )
 8007c20:	f897 3028 	ldrb.w	r3, [r7, #40]	; 0x28
 8007c24:	075b      	lsls	r3, r3, #29
 8007c26:	d5bf      	bpl.n	8007ba8 <prvTimerTask+0x60>
	if( xTimerQueue != NULL )
 8007c28:	6823      	ldr	r3, [r4, #0]
 8007c2a:	b183      	cbz	r3, 8007c4e <prvTimerTask+0x106>
							xResult = xTimerGenericCommand( pxTimer, tmrCOMMAND_START_DONT_TRACE, xMessage.u.xTimerParameters.xMessageValue + pxTimer->xTimerPeriodInTicks, NULL, tmrNO_DELAY );
 8007c2c:	69ba      	ldr	r2, [r7, #24]
 8007c2e:	9b03      	ldr	r3, [sp, #12]
		xMessage.xMessageID = xCommandID;
 8007c30:	f8cd 8018 	str.w	r8, [sp, #24]
							xResult = xTimerGenericCommand( pxTimer, tmrCOMMAND_START_DONT_TRACE, xMessage.u.xTimerParameters.xMessageValue + pxTimer->xTimerPeriodInTicks, NULL, tmrNO_DELAY );
 8007c34:	4413      	add	r3, r2
		xMessage.u.xTimerParameters.pxTimer = xTimer;
 8007c36:	e9cd 3707 	strd	r3, r7, [sp, #28]
			if( xTaskGetSchedulerState() == taskSCHEDULER_RUNNING )
 8007c3a:	f7ff fdeb 	bl	8007814 <xTaskGetSchedulerState>
				xReturn = xQueueSendToBack( xTimerQueue, &xMessage, xTicksToWait );
 8007c3e:	2300      	movs	r3, #0
 8007c40:	6820      	ldr	r0, [r4, #0]
 8007c42:	461a      	mov	r2, r3
 8007c44:	a906      	add	r1, sp, #24
 8007c46:	f7fe fbad 	bl	80063a4 <xQueueGenericSend>
							configASSERT( xResult );
 8007c4a:	2800      	cmp	r0, #0
 8007c4c:	d1ac      	bne.n	8007ba8 <prvTimerTask+0x60>
 8007c4e:	f04f 0350 	mov.w	r3, #80	; 0x50
 8007c52:	f383 8811 	msr	BASEPRI, r3
 8007c56:	f3bf 8f6f 	isb	sy
 8007c5a:	f3bf 8f4f 	dsb	sy
 8007c5e:	e7fe      	b.n	8007c5e <prvTimerTask+0x116>
					pxTimer->ucStatus |= tmrSTATUS_IS_ACTIVE;
 8007c60:	f897 2028 	ldrb.w	r2, [r7, #40]	; 0x28
					pxTimer->xTimerPeriodInTicks = xMessage.u.xTimerParameters.xMessageValue;
 8007c64:	9b03      	ldr	r3, [sp, #12]
 8007c66:	61bb      	str	r3, [r7, #24]
					pxTimer->ucStatus |= tmrSTATUS_IS_ACTIVE;
 8007c68:	f042 0201 	orr.w	r2, r2, #1
 8007c6c:	f887 2028 	strb.w	r2, [r7, #40]	; 0x28
					configASSERT( ( pxTimer->xTimerPeriodInTicks > 0 ) );
 8007c70:	2b00      	cmp	r3, #0
 8007c72:	f000 809a 	beq.w	8007daa <prvTimerTask+0x262>
					( void ) prvInsertTimerInActiveList( pxTimer, ( xTimeNow + pxTimer->xTimerPeriodInTicks ), xTimeNow, xTimeNow );
 8007c76:	444b      	add	r3, r9
	if( xNextExpiryTime <= xTimeNow )
 8007c78:	454b      	cmp	r3, r9
	listSET_LIST_ITEM_VALUE( &( pxTimer->xTimerListItem ), xNextExpiryTime );
 8007c7a:	607b      	str	r3, [r7, #4]
			vListInsert( pxOverflowTimerList, &( pxTimer->xTimerListItem ) );
 8007c7c:	bf96      	itet	ls
 8007c7e:	4b56      	ldrls	r3, [pc, #344]	; (8007dd8 <prvTimerTask+0x290>)
			vListInsert( pxCurrentTimerList, &( pxTimer->xTimerListItem ) );
 8007c80:	6830      	ldrhi	r0, [r6, #0]
			vListInsert( pxOverflowTimerList, &( pxTimer->xTimerListItem ) );
 8007c82:	6818      	ldrls	r0, [r3, #0]
	listSET_LIST_ITEM_OWNER( &( pxTimer->xTimerListItem ), pxTimer );
 8007c84:	613f      	str	r7, [r7, #16]
			vListInsert( pxOverflowTimerList, &( pxTimer->xTimerListItem ) );
 8007c86:	1d39      	adds	r1, r7, #4
			vListInsert( pxCurrentTimerList, &( pxTimer->xTimerListItem ) );
 8007c88:	f7fe fab0 	bl	80061ec <vListInsert>
 8007c8c:	e78c      	b.n	8007ba8 <prvTimerTask+0x60>
					pxTimer->ucStatus &= ~tmrSTATUS_IS_ACTIVE;
 8007c8e:	f897 3028 	ldrb.w	r3, [r7, #40]	; 0x28
 8007c92:	f023 0301 	bic.w	r3, r3, #1
 8007c96:	f887 3028 	strb.w	r3, [r7, #40]	; 0x28
					break;
 8007c9a:	e785      	b.n	8007ba8 <prvTimerTask+0x60>
						if( ( pxTimer->ucStatus & tmrSTATUS_IS_STATICALLY_ALLOCATED ) == ( uint8_t ) 0 )
 8007c9c:	f897 3028 	ldrb.w	r3, [r7, #40]	; 0x28
 8007ca0:	079a      	lsls	r2, r3, #30
 8007ca2:	d54d      	bpl.n	8007d40 <prvTimerTask+0x1f8>
							pxTimer->ucStatus &= ~tmrSTATUS_IS_ACTIVE;
 8007ca4:	f023 0301 	bic.w	r3, r3, #1
 8007ca8:	f887 3028 	strb.w	r3, [r7, #40]	; 0x28
 8007cac:	e77c      	b.n	8007ba8 <prvTimerTask+0x60>
				pxCallback->pxCallbackFunction( pxCallback->pvParameter1, pxCallback->ulParameter2 );
 8007cae:	9b03      	ldr	r3, [sp, #12]
 8007cb0:	e9dd 0104 	ldrd	r0, r1, [sp, #16]
 8007cb4:	4798      	blx	r3
		if( xMessage.xMessageID >= ( BaseType_t ) 0 )
 8007cb6:	9b02      	ldr	r3, [sp, #8]
 8007cb8:	2b00      	cmp	r3, #0
 8007cba:	f6ff af75 	blt.w	8007ba8 <prvTimerTask+0x60>
 8007cbe:	e77d      	b.n	8007bbc <prvTimerTask+0x74>
	vTaskSuspendAll();
 8007cc0:	f7ff fb62 	bl	8007388 <vTaskSuspendAll>
	xTimeNow = xTaskGetTickCount();
 8007cc4:	f7ff fb78 	bl	80073b8 <xTaskGetTickCount>
	if( xTimeNow < xLastTime )
 8007cc8:	682a      	ldr	r2, [r5, #0]
 8007cca:	4282      	cmp	r2, r0
	xTimeNow = xTaskGetTickCount();
 8007ccc:	4681      	mov	r9, r0
	if( xTimeNow < xLastTime )
 8007cce:	d808      	bhi.n	8007ce2 <prvTimerTask+0x19a>
					xListWasEmpty = listLIST_IS_EMPTY( pxOverflowTimerList );
 8007cd0:	4b41      	ldr	r3, [pc, #260]	; (8007dd8 <prvTimerTask+0x290>)
	xLastTime = xTimeNow;
 8007cd2:	f8c5 9000 	str.w	r9, [r5]
					xListWasEmpty = listLIST_IS_EMPTY( pxOverflowTimerList );
 8007cd6:	681a      	ldr	r2, [r3, #0]
 8007cd8:	6812      	ldr	r2, [r2, #0]
 8007cda:	fab2 f282 	clz	r2, r2
 8007cde:	0952      	lsrs	r2, r2, #5
 8007ce0:	e752      	b.n	8007b88 <prvTimerTask+0x40>
		prvSwitchTimerLists();
 8007ce2:	f7ff fee3 	bl	8007aac <prvSwitchTimerLists>
	xLastTime = xTimeNow;
 8007ce6:	f8c5 9000 	str.w	r9, [r5]
			( void ) xTaskResumeAll();
 8007cea:	f7ff fb55 	bl	8007398 <xTaskResumeAll>
 8007cee:	e75b      	b.n	8007ba8 <prvTimerTask+0x60>
		prvSwitchTimerLists();
 8007cf0:	f7ff fedc 	bl	8007aac <prvSwitchTimerLists>
		*pxTimerListsWereSwitched = pdTRUE;
 8007cf4:	e76f      	b.n	8007bd6 <prvTimerTask+0x8e>
				( void ) xTaskResumeAll();
 8007cf6:	f7ff fb4f 	bl	8007398 <xTaskResumeAll>
Timer_t * const pxTimer = ( Timer_t * ) listGET_OWNER_OF_HEAD_ENTRY( pxCurrentTimerList ); /*lint !e9087 !e9079 void * is used as this macro is used with tasks and co-routines too.  Alignment is known to be fine as the type of the pointer stored and retrieved is the same. */
 8007cfa:	6832      	ldr	r2, [r6, #0]
 8007cfc:	68d2      	ldr	r2, [r2, #12]
 8007cfe:	f8d2 b00c 	ldr.w	fp, [r2, #12]
	( void ) uxListRemove( &( pxTimer->xTimerListItem ) );
 8007d02:	f10b 0104 	add.w	r1, fp, #4
 8007d06:	4608      	mov	r0, r1
 8007d08:	9101      	str	r1, [sp, #4]
 8007d0a:	f7fe fa87 	bl	800621c <uxListRemove>
	if( ( pxTimer->ucStatus & tmrSTATUS_IS_AUTORELOAD ) != 0 )
 8007d0e:	f89b 0028 	ldrb.w	r0, [fp, #40]	; 0x28
 8007d12:	9901      	ldr	r1, [sp, #4]
 8007d14:	f010 0f04 	tst.w	r0, #4
 8007d18:	d11c      	bne.n	8007d54 <prvTimerTask+0x20c>
		pxTimer->ucStatus &= ~tmrSTATUS_IS_ACTIVE;
 8007d1a:	f020 0001 	bic.w	r0, r0, #1
 8007d1e:	f88b 0028 	strb.w	r0, [fp, #40]	; 0x28
	pxTimer->pxCallbackFunction( ( TimerHandle_t ) pxTimer );
 8007d22:	f8db 3020 	ldr.w	r3, [fp, #32]
 8007d26:	4658      	mov	r0, fp
 8007d28:	4798      	blx	r3
}
 8007d2a:	e73d      	b.n	8007ba8 <prvTimerTask+0x60>
		if( ( xTimeNow < xCommandTime ) && ( xNextExpiryTime >= xCommandTime ) )
 8007d2c:	454b      	cmp	r3, r9
 8007d2e:	d902      	bls.n	8007d36 <prvTimerTask+0x1ee>
 8007d30:	2900      	cmp	r1, #0
 8007d32:	f43f af72 	beq.w	8007c1a <prvTimerTask+0xd2>
			vListInsert( pxCurrentTimerList, &( pxTimer->xTimerListItem ) );
 8007d36:	6830      	ldr	r0, [r6, #0]
 8007d38:	1d39      	adds	r1, r7, #4
 8007d3a:	f7fe fa57 	bl	80061ec <vListInsert>
	return xProcessTimerNow;
 8007d3e:	e733      	b.n	8007ba8 <prvTimerTask+0x60>
							vPortFree( pxTimer );
 8007d40:	4638      	mov	r0, r7
 8007d42:	f000 fb39 	bl	80083b8 <vPortFree>
 8007d46:	e72f      	b.n	8007ba8 <prvTimerTask+0x60>
			vListInsert( pxOverflowTimerList, &( pxTimer->xTimerListItem ) );
 8007d48:	4b23      	ldr	r3, [pc, #140]	; (8007dd8 <prvTimerTask+0x290>)
 8007d4a:	1d39      	adds	r1, r7, #4
 8007d4c:	6818      	ldr	r0, [r3, #0]
 8007d4e:	f7fe fa4d 	bl	80061ec <vListInsert>
	return xProcessTimerNow;
 8007d52:	e729      	b.n	8007ba8 <prvTimerTask+0x60>
		if( prvInsertTimerInActiveList( pxTimer, ( xNextExpireTime + pxTimer->xTimerPeriodInTicks ), xTimeNow, xNextExpireTime ) != pdFALSE )
 8007d54:	f8db 0018 	ldr.w	r0, [fp, #24]
	listSET_LIST_ITEM_OWNER( &( pxTimer->xTimerListItem ), pxTimer );
 8007d58:	f8cb b010 	str.w	fp, [fp, #16]
		if( prvInsertTimerInActiveList( pxTimer, ( xNextExpireTime + pxTimer->xTimerPeriodInTicks ), xTimeNow, xNextExpireTime ) != pdFALSE )
 8007d5c:	eb0a 0300 	add.w	r3, sl, r0
	if( xNextExpiryTime <= xTimeNow )
 8007d60:	4599      	cmp	r9, r3
	listSET_LIST_ITEM_VALUE( &( pxTimer->xTimerListItem ), xNextExpiryTime );
 8007d62:	f8cb 3004 	str.w	r3, [fp, #4]
	if( xNextExpiryTime <= xTimeNow )
 8007d66:	d203      	bcs.n	8007d70 <prvTimerTask+0x228>
			vListInsert( pxCurrentTimerList, &( pxTimer->xTimerListItem ) );
 8007d68:	6830      	ldr	r0, [r6, #0]
 8007d6a:	f7fe fa3f 	bl	80061ec <vListInsert>
	return xProcessTimerNow;
 8007d6e:	e7d8      	b.n	8007d22 <prvTimerTask+0x1da>
		if( ( ( TickType_t ) ( xTimeNow - xCommandTime ) ) >= pxTimer->xTimerPeriodInTicks ) /*lint !e961 MISRA exception as the casts are only redundant for some ports. */
 8007d70:	eba9 030a 	sub.w	r3, r9, sl
 8007d74:	4298      	cmp	r0, r3
 8007d76:	d821      	bhi.n	8007dbc <prvTimerTask+0x274>
	if( xTimerQueue != NULL )
 8007d78:	6823      	ldr	r3, [r4, #0]
 8007d7a:	b16b      	cbz	r3, 8007d98 <prvTimerTask+0x250>
		xMessage.u.xTimerParameters.xMessageValue = xOptionalValue;
 8007d7c:	e9cd 8a06 	strd	r8, sl, [sp, #24]
		xMessage.u.xTimerParameters.pxTimer = xTimer;
 8007d80:	f8cd b020 	str.w	fp, [sp, #32]
			if( xTaskGetSchedulerState() == taskSCHEDULER_RUNNING )
 8007d84:	f7ff fd46 	bl	8007814 <xTaskGetSchedulerState>
				xReturn = xQueueSendToBack( xTimerQueue, &xMessage, xTicksToWait );
 8007d88:	2300      	movs	r3, #0
 8007d8a:	6820      	ldr	r0, [r4, #0]
 8007d8c:	461a      	mov	r2, r3
 8007d8e:	a906      	add	r1, sp, #24
 8007d90:	f7fe fb08 	bl	80063a4 <xQueueGenericSend>
			configASSERT( xResult );
 8007d94:	2800      	cmp	r0, #0
 8007d96:	d1c4      	bne.n	8007d22 <prvTimerTask+0x1da>
 8007d98:	f04f 0350 	mov.w	r3, #80	; 0x50
 8007d9c:	f383 8811 	msr	BASEPRI, r3
 8007da0:	f3bf 8f6f 	isb	sy
 8007da4:	f3bf 8f4f 	dsb	sy
 8007da8:	e7fe      	b.n	8007da8 <prvTimerTask+0x260>
 8007daa:	f04f 0350 	mov.w	r3, #80	; 0x50
 8007dae:	f383 8811 	msr	BASEPRI, r3
 8007db2:	f3bf 8f6f 	isb	sy
 8007db6:	f3bf 8f4f 	dsb	sy
					configASSERT( ( pxTimer->xTimerPeriodInTicks > 0 ) );
 8007dba:	e7fe      	b.n	8007dba <prvTimerTask+0x272>
			vListInsert( pxOverflowTimerList, &( pxTimer->xTimerListItem ) );
 8007dbc:	4b06      	ldr	r3, [pc, #24]	; (8007dd8 <prvTimerTask+0x290>)
 8007dbe:	6818      	ldr	r0, [r3, #0]
 8007dc0:	f7fe fa14 	bl	80061ec <vListInsert>
	return xProcessTimerNow;
 8007dc4:	e7ad      	b.n	8007d22 <prvTimerTask+0x1da>
 8007dc6:	bf00      	nop
 8007dc8:	20001730 	.word	0x20001730
 8007dcc:	20001800 	.word	0x20001800
 8007dd0:	20001854 	.word	0x20001854
 8007dd4:	e000ed04 	.word	0xe000ed04
 8007dd8:	20001734 	.word	0x20001734

08007ddc <xTimerCreateTimerTask>:
{
 8007ddc:	b5f0      	push	{r4, r5, r6, r7, lr}
	/* Check that the list from which active timers are referenced, and the
	queue used to communicate with the timer service, have been
	initialised. */
	taskENTER_CRITICAL();
	{
		if( xTimerQueue == NULL )
 8007dde:	4c23      	ldr	r4, [pc, #140]	; (8007e6c <xTimerCreateTimerTask+0x90>)
{
 8007de0:	b089      	sub	sp, #36	; 0x24
	taskENTER_CRITICAL();
 8007de2:	f000 f8c7 	bl	8007f74 <vPortEnterCritical>
		if( xTimerQueue == NULL )
 8007de6:	6827      	ldr	r7, [r4, #0]
 8007de8:	b337      	cbz	r7, 8007e38 <xTimerCreateTimerTask+0x5c>
		else
		{
			mtCOVERAGE_TEST_MARKER();
		}
	}
	taskEXIT_CRITICAL();
 8007dea:	f000 f8e5 	bl	8007fb8 <vPortExitCritical>
	if( xTimerQueue != NULL )
 8007dee:	6823      	ldr	r3, [r4, #0]
 8007df0:	b1cb      	cbz	r3, 8007e26 <xTimerCreateTimerTask+0x4a>
			StaticTask_t *pxTimerTaskTCBBuffer = NULL;
 8007df2:	2400      	movs	r4, #0
			vApplicationGetTimerTaskMemory( &pxTimerTaskTCBBuffer, &pxTimerTaskStackBuffer, &ulTimerTaskStackSize );
 8007df4:	aa07      	add	r2, sp, #28
 8007df6:	a906      	add	r1, sp, #24
 8007df8:	a805      	add	r0, sp, #20
			StackType_t *pxTimerTaskStackBuffer = NULL;
 8007dfa:	e9cd 4405 	strd	r4, r4, [sp, #20]
			vApplicationGetTimerTaskMemory( &pxTimerTaskTCBBuffer, &pxTimerTaskStackBuffer, &ulTimerTaskStackSize );
 8007dfe:	f7fe f9c5 	bl	800618c <vApplicationGetTimerTaskMemory>
			xTimerTaskHandle = xTaskCreateStatic(	prvTimerTask,
 8007e02:	e9dd 3105 	ldrd	r3, r1, [sp, #20]
 8007e06:	2202      	movs	r2, #2
 8007e08:	e9cd 2100 	strd	r2, r1, [sp]
 8007e0c:	9302      	str	r3, [sp, #8]
 8007e0e:	9a07      	ldr	r2, [sp, #28]
 8007e10:	4917      	ldr	r1, [pc, #92]	; (8007e70 <xTimerCreateTimerTask+0x94>)
 8007e12:	4818      	ldr	r0, [pc, #96]	; (8007e74 <xTimerCreateTimerTask+0x98>)
 8007e14:	4623      	mov	r3, r4
 8007e16:	f7ff f8dd 	bl	8006fd4 <xTaskCreateStatic>
 8007e1a:	4b17      	ldr	r3, [pc, #92]	; (8007e78 <xTimerCreateTimerTask+0x9c>)
 8007e1c:	6018      	str	r0, [r3, #0]
			if( xTimerTaskHandle != NULL )
 8007e1e:	b110      	cbz	r0, 8007e26 <xTimerCreateTimerTask+0x4a>
}
 8007e20:	2001      	movs	r0, #1
 8007e22:	b009      	add	sp, #36	; 0x24
 8007e24:	bdf0      	pop	{r4, r5, r6, r7, pc}
 8007e26:	f04f 0350 	mov.w	r3, #80	; 0x50
 8007e2a:	f383 8811 	msr	BASEPRI, r3
 8007e2e:	f3bf 8f6f 	isb	sy
 8007e32:	f3bf 8f4f 	dsb	sy
	configASSERT( xReturn );
 8007e36:	e7fe      	b.n	8007e36 <xTimerCreateTimerTask+0x5a>
			vListInitialise( &xActiveTimerList1 );
 8007e38:	4e10      	ldr	r6, [pc, #64]	; (8007e7c <xTimerCreateTimerTask+0xa0>)
			vListInitialise( &xActiveTimerList2 );
 8007e3a:	4d11      	ldr	r5, [pc, #68]	; (8007e80 <xTimerCreateTimerTask+0xa4>)
			vListInitialise( &xActiveTimerList1 );
 8007e3c:	4630      	mov	r0, r6
 8007e3e:	f7fe f9b5 	bl	80061ac <vListInitialise>
			vListInitialise( &xActiveTimerList2 );
 8007e42:	4628      	mov	r0, r5
 8007e44:	f7fe f9b2 	bl	80061ac <vListInitialise>
			pxCurrentTimerList = &xActiveTimerList1;
 8007e48:	4a0e      	ldr	r2, [pc, #56]	; (8007e84 <xTimerCreateTimerTask+0xa8>)
			pxOverflowTimerList = &xActiveTimerList2;
 8007e4a:	490f      	ldr	r1, [pc, #60]	; (8007e88 <xTimerCreateTimerTask+0xac>)
				xTimerQueue = xQueueCreateStatic( ( UBaseType_t ) configTIMER_QUEUE_LENGTH, ( UBaseType_t ) sizeof( DaemonTaskMessage_t ), &( ucStaticTimerQueueStorage[ 0 ] ), &xStaticTimerQueue );
 8007e4c:	9700      	str	r7, [sp, #0]
 8007e4e:	4b0f      	ldr	r3, [pc, #60]	; (8007e8c <xTimerCreateTimerTask+0xb0>)
			pxCurrentTimerList = &xActiveTimerList1;
 8007e50:	6016      	str	r6, [r2, #0]
			pxOverflowTimerList = &xActiveTimerList2;
 8007e52:	600d      	str	r5, [r1, #0]
				xTimerQueue = xQueueCreateStatic( ( UBaseType_t ) configTIMER_QUEUE_LENGTH, ( UBaseType_t ) sizeof( DaemonTaskMessage_t ), &( ucStaticTimerQueueStorage[ 0 ] ), &xStaticTimerQueue );
 8007e54:	4a0e      	ldr	r2, [pc, #56]	; (8007e90 <xTimerCreateTimerTask+0xb4>)
 8007e56:	2110      	movs	r1, #16
 8007e58:	200a      	movs	r0, #10
 8007e5a:	f7fe fa31 	bl	80062c0 <xQueueGenericCreateStatic>
 8007e5e:	6020      	str	r0, [r4, #0]
				if( xTimerQueue != NULL )
 8007e60:	2800      	cmp	r0, #0
 8007e62:	d0c2      	beq.n	8007dea <xTimerCreateTimerTask+0xe>
					vQueueAddToRegistry( xTimerQueue, "TmrQ" );
 8007e64:	490b      	ldr	r1, [pc, #44]	; (8007e94 <xTimerCreateTimerTask+0xb8>)
 8007e66:	f7fe fda7 	bl	80069b8 <vQueueAddToRegistry>
 8007e6a:	e7be      	b.n	8007dea <xTimerCreateTimerTask+0xe>
 8007e6c:	20001854 	.word	0x20001854
 8007e70:	080099b4 	.word	0x080099b4
 8007e74:	08007b49 	.word	0x08007b49
 8007e78:	20001858 	.word	0x20001858
 8007e7c:	200017d8 	.word	0x200017d8
 8007e80:	200017ec 	.word	0x200017ec
 8007e84:	20001730 	.word	0x20001730
 8007e88:	20001734 	.word	0x20001734
 8007e8c:	20001804 	.word	0x20001804
 8007e90:	20001738 	.word	0x20001738
 8007e94:	080099ac 	.word	0x080099ac

08007e98 <prvPortStartFirstTask>:
{
	/* Start the first task.  This also clears the bit that indicates the FPU is
	in use in case the FPU was used before the scheduler was started - which
	would otherwise result in the unnecessary leaving of space in the SVC stack
	for lazy saving of FPU registers. */
	__asm volatile(
 8007e98:	4808      	ldr	r0, [pc, #32]	; (8007ebc <prvPortStartFirstTask+0x24>)
 8007e9a:	6800      	ldr	r0, [r0, #0]
 8007e9c:	6800      	ldr	r0, [r0, #0]
 8007e9e:	f380 8808 	msr	MSP, r0
 8007ea2:	f04f 0000 	mov.w	r0, #0
 8007ea6:	f380 8814 	msr	CONTROL, r0
 8007eaa:	b662      	cpsie	i
 8007eac:	b661      	cpsie	f
 8007eae:	f3bf 8f4f 	dsb	sy
 8007eb2:	f3bf 8f6f 	isb	sy
 8007eb6:	df00      	svc	0
 8007eb8:	bf00      	nop
					" dsb					\n"
					" isb					\n"
					" svc 0					\n" /* System call to start first task. */
					" nop					\n"
				);
}
 8007eba:	0000      	.short	0x0000
 8007ebc:	e000ed08 	.word	0xe000ed08

08007ec0 <vPortEnableVFP>:
/*-----------------------------------------------------------*/

/* This is a naked function. */
static void vPortEnableVFP( void )
{
	__asm volatile
 8007ec0:	f8df 000c 	ldr.w	r0, [pc, #12]	; 8007ed0 <vPortEnableVFP+0x10>
 8007ec4:	6801      	ldr	r1, [r0, #0]
 8007ec6:	f441 0170 	orr.w	r1, r1, #15728640	; 0xf00000
 8007eca:	6001      	str	r1, [r0, #0]
 8007ecc:	4770      	bx	lr
		"								\n"
		"	orr r1, r1, #( 0xf << 20 )	\n" /* Enable CP10 and CP11 coprocessors, then save back. */
		"	str r1, [r0]				\n"
		"	bx r14						"
	);
}
 8007ece:	0000      	.short	0x0000
 8007ed0:	e000ed88 	.word	0xe000ed88

08007ed4 <prvTaskExitError>:
	configASSERT( uxCriticalNesting == ~0UL );
 8007ed4:	4b0e      	ldr	r3, [pc, #56]	; (8007f10 <prvTaskExitError+0x3c>)
 8007ed6:	681b      	ldr	r3, [r3, #0]
{
 8007ed8:	b082      	sub	sp, #8
volatile uint32_t ulDummy = 0;
 8007eda:	2200      	movs	r2, #0
	configASSERT( uxCriticalNesting == ~0UL );
 8007edc:	3301      	adds	r3, #1
volatile uint32_t ulDummy = 0;
 8007ede:	9201      	str	r2, [sp, #4]
	configASSERT( uxCriticalNesting == ~0UL );
 8007ee0:	d008      	beq.n	8007ef4 <prvTaskExitError+0x20>
 8007ee2:	f04f 0350 	mov.w	r3, #80	; 0x50
 8007ee6:	f383 8811 	msr	BASEPRI, r3
 8007eea:	f3bf 8f6f 	isb	sy
 8007eee:	f3bf 8f4f 	dsb	sy
 8007ef2:	e7fe      	b.n	8007ef2 <prvTaskExitError+0x1e>
 8007ef4:	f04f 0350 	mov.w	r3, #80	; 0x50
 8007ef8:	f383 8811 	msr	BASEPRI, r3
 8007efc:	f3bf 8f6f 	isb	sy
 8007f00:	f3bf 8f4f 	dsb	sy
	while( ulDummy == 0 )
 8007f04:	9b01      	ldr	r3, [sp, #4]
 8007f06:	2b00      	cmp	r3, #0
 8007f08:	d0fc      	beq.n	8007f04 <prvTaskExitError+0x30>
}
 8007f0a:	b002      	add	sp, #8
 8007f0c:	4770      	bx	lr
 8007f0e:	bf00      	nop
 8007f10:	20000008 	.word	0x20000008

08007f14 <pxPortInitialiseStack>:
{
 8007f14:	b430      	push	{r4, r5}
	*pxTopOfStack = ( ( StackType_t ) pxCode ) & portSTART_ADDRESS_MASK;	/* PC */
 8007f16:	f021 0101 	bic.w	r1, r1, #1
	*pxTopOfStack = ( StackType_t ) portTASK_RETURN_ADDRESS;	/* LR */
 8007f1a:	4c09      	ldr	r4, [pc, #36]	; (8007f40 <pxPortInitialiseStack+0x2c>)
 8007f1c:	f840 4c0c 	str.w	r4, [r0, #-12]
	*pxTopOfStack = portINITIAL_XPSR;	/* xPSR */
 8007f20:	f04f 7580 	mov.w	r5, #16777216	; 0x1000000
	*pxTopOfStack = portINITIAL_EXC_RETURN;
 8007f24:	f06f 0302 	mvn.w	r3, #2
	*pxTopOfStack = portINITIAL_XPSR;	/* xPSR */
 8007f28:	f840 5c04 	str.w	r5, [r0, #-4]
	*pxTopOfStack = ( ( StackType_t ) pxCode ) & portSTART_ADDRESS_MASK;	/* PC */
 8007f2c:	f840 1c08 	str.w	r1, [r0, #-8]
	*pxTopOfStack = ( StackType_t ) pvParameters;	/* R0 */
 8007f30:	f840 2c20 	str.w	r2, [r0, #-32]
	*pxTopOfStack = portINITIAL_EXC_RETURN;
 8007f34:	f840 3c24 	str.w	r3, [r0, #-36]
}
 8007f38:	bc30      	pop	{r4, r5}
 8007f3a:	3844      	subs	r0, #68	; 0x44
 8007f3c:	4770      	bx	lr
 8007f3e:	bf00      	nop
 8007f40:	08007ed5 	.word	0x08007ed5
	...

08007f50 <SVC_Handler>:
	__asm volatile (
 8007f50:	4b07      	ldr	r3, [pc, #28]	; (8007f70 <pxCurrentTCBConst2>)
 8007f52:	6819      	ldr	r1, [r3, #0]
 8007f54:	6808      	ldr	r0, [r1, #0]
 8007f56:	e8b0 4ff0 	ldmia.w	r0!, {r4, r5, r6, r7, r8, r9, sl, fp, lr}
 8007f5a:	f380 8809 	msr	PSP, r0
 8007f5e:	f3bf 8f6f 	isb	sy
 8007f62:	f04f 0000 	mov.w	r0, #0
 8007f66:	f380 8811 	msr	BASEPRI, r0
 8007f6a:	4770      	bx	lr
 8007f6c:	f3af 8000 	nop.w

08007f70 <pxCurrentTCBConst2>:
 8007f70:	20001230 	.word	0x20001230

08007f74 <vPortEnterCritical>:
 8007f74:	f04f 0350 	mov.w	r3, #80	; 0x50
 8007f78:	f383 8811 	msr	BASEPRI, r3
 8007f7c:	f3bf 8f6f 	isb	sy
 8007f80:	f3bf 8f4f 	dsb	sy
	uxCriticalNesting++;
 8007f84:	4a0a      	ldr	r2, [pc, #40]	; (8007fb0 <vPortEnterCritical+0x3c>)
 8007f86:	6813      	ldr	r3, [r2, #0]
 8007f88:	3301      	adds	r3, #1
	if( uxCriticalNesting == 1 )
 8007f8a:	2b01      	cmp	r3, #1
	uxCriticalNesting++;
 8007f8c:	6013      	str	r3, [r2, #0]
	if( uxCriticalNesting == 1 )
 8007f8e:	d000      	beq.n	8007f92 <vPortEnterCritical+0x1e>
}
 8007f90:	4770      	bx	lr
		configASSERT( ( portNVIC_INT_CTRL_REG & portVECTACTIVE_MASK ) == 0 );
 8007f92:	4b08      	ldr	r3, [pc, #32]	; (8007fb4 <vPortEnterCritical+0x40>)
 8007f94:	681b      	ldr	r3, [r3, #0]
 8007f96:	f013 0fff 	tst.w	r3, #255	; 0xff
 8007f9a:	d0f9      	beq.n	8007f90 <vPortEnterCritical+0x1c>
 8007f9c:	f04f 0350 	mov.w	r3, #80	; 0x50
 8007fa0:	f383 8811 	msr	BASEPRI, r3
 8007fa4:	f3bf 8f6f 	isb	sy
 8007fa8:	f3bf 8f4f 	dsb	sy
 8007fac:	e7fe      	b.n	8007fac <vPortEnterCritical+0x38>
 8007fae:	bf00      	nop
 8007fb0:	20000008 	.word	0x20000008
 8007fb4:	e000ed04 	.word	0xe000ed04

08007fb8 <vPortExitCritical>:
	configASSERT( uxCriticalNesting );
 8007fb8:	4a08      	ldr	r2, [pc, #32]	; (8007fdc <vPortExitCritical+0x24>)
 8007fba:	6813      	ldr	r3, [r2, #0]
 8007fbc:	b943      	cbnz	r3, 8007fd0 <vPortExitCritical+0x18>
 8007fbe:	f04f 0350 	mov.w	r3, #80	; 0x50
 8007fc2:	f383 8811 	msr	BASEPRI, r3
 8007fc6:	f3bf 8f6f 	isb	sy
 8007fca:	f3bf 8f4f 	dsb	sy
 8007fce:	e7fe      	b.n	8007fce <vPortExitCritical+0x16>
	uxCriticalNesting--;
 8007fd0:	3b01      	subs	r3, #1
 8007fd2:	6013      	str	r3, [r2, #0]
	if( uxCriticalNesting == 0 )
 8007fd4:	b90b      	cbnz	r3, 8007fda <vPortExitCritical+0x22>
	__asm volatile
 8007fd6:	f383 8811 	msr	BASEPRI, r3
}
 8007fda:	4770      	bx	lr
 8007fdc:	20000008 	.word	0x20000008

08007fe0 <PendSV_Handler>:
	__asm volatile
 8007fe0:	f3ef 8009 	mrs	r0, PSP
 8007fe4:	f3bf 8f6f 	isb	sy
 8007fe8:	4b15      	ldr	r3, [pc, #84]	; (8008040 <pxCurrentTCBConst>)
 8007fea:	681a      	ldr	r2, [r3, #0]
 8007fec:	f01e 0f10 	tst.w	lr, #16
 8007ff0:	bf08      	it	eq
 8007ff2:	ed20 8a10 	vstmdbeq	r0!, {s16-s31}
 8007ff6:	e920 4ff0 	stmdb	r0!, {r4, r5, r6, r7, r8, r9, sl, fp, lr}
 8007ffa:	6010      	str	r0, [r2, #0]
 8007ffc:	e92d 0009 	stmdb	sp!, {r0, r3}
 8008000:	f04f 0050 	mov.w	r0, #80	; 0x50
 8008004:	f380 8811 	msr	BASEPRI, r0
 8008008:	f3bf 8f4f 	dsb	sy
 800800c:	f3bf 8f6f 	isb	sy
 8008010:	f7ff f9e8 	bl	80073e4 <vTaskSwitchContext>
 8008014:	f04f 0000 	mov.w	r0, #0
 8008018:	f380 8811 	msr	BASEPRI, r0
 800801c:	bc09      	pop	{r0, r3}
 800801e:	6819      	ldr	r1, [r3, #0]
 8008020:	6808      	ldr	r0, [r1, #0]
 8008022:	e8b0 4ff0 	ldmia.w	r0!, {r4, r5, r6, r7, r8, r9, sl, fp, lr}
 8008026:	f01e 0f10 	tst.w	lr, #16
 800802a:	bf08      	it	eq
 800802c:	ecb0 8a10 	vldmiaeq	r0!, {s16-s31}
 8008030:	f380 8809 	msr	PSP, r0
 8008034:	f3bf 8f6f 	isb	sy
 8008038:	4770      	bx	lr
 800803a:	bf00      	nop
 800803c:	f3af 8000 	nop.w

08008040 <pxCurrentTCBConst>:
 8008040:	20001230 	.word	0x20001230

08008044 <xPortSysTickHandler>:
{
 8008044:	b508      	push	{r3, lr}
	__asm volatile
 8008046:	f04f 0350 	mov.w	r3, #80	; 0x50
 800804a:	f383 8811 	msr	BASEPRI, r3
 800804e:	f3bf 8f6f 	isb	sy
 8008052:	f3bf 8f4f 	dsb	sy
		if( xTaskIncrementTick() != pdFALSE )
 8008056:	f7ff f9b5 	bl	80073c4 <xTaskIncrementTick>
 800805a:	b118      	cbz	r0, 8008064 <xPortSysTickHandler+0x20>
			portNVIC_INT_CTRL_REG = portNVIC_PENDSVSET_BIT;
 800805c:	4b03      	ldr	r3, [pc, #12]	; (800806c <xPortSysTickHandler+0x28>)
 800805e:	f04f 5280 	mov.w	r2, #268435456	; 0x10000000
 8008062:	601a      	str	r2, [r3, #0]
	__asm volatile
 8008064:	2300      	movs	r3, #0
 8008066:	f383 8811 	msr	BASEPRI, r3
}
 800806a:	bd08      	pop	{r3, pc}
 800806c:	e000ed04 	.word	0xe000ed04

08008070 <vPortSetupTimerInterrupt>:
{
 8008070:	b430      	push	{r4, r5}
	portNVIC_SYSTICK_CTRL_REG = 0UL;
 8008072:	4a09      	ldr	r2, [pc, #36]	; (8008098 <vPortSetupTimerInterrupt+0x28>)
	portNVIC_SYSTICK_CURRENT_VALUE_REG = 0UL;
 8008074:	4d09      	ldr	r5, [pc, #36]	; (800809c <vPortSetupTimerInterrupt+0x2c>)
	portNVIC_SYSTICK_LOAD_REG = ( configSYSTICK_CLOCK_HZ / configTICK_RATE_HZ ) - 1UL;
 8008076:	4b0a      	ldr	r3, [pc, #40]	; (80080a0 <vPortSetupTimerInterrupt+0x30>)
 8008078:	4c0a      	ldr	r4, [pc, #40]	; (80080a4 <vPortSetupTimerInterrupt+0x34>)
 800807a:	480b      	ldr	r0, [pc, #44]	; (80080a8 <vPortSetupTimerInterrupt+0x38>)
	portNVIC_SYSTICK_CTRL_REG = 0UL;
 800807c:	2100      	movs	r1, #0
 800807e:	6011      	str	r1, [r2, #0]
	portNVIC_SYSTICK_CURRENT_VALUE_REG = 0UL;
 8008080:	6029      	str	r1, [r5, #0]
	portNVIC_SYSTICK_LOAD_REG = ( configSYSTICK_CLOCK_HZ / configTICK_RATE_HZ ) - 1UL;
 8008082:	681b      	ldr	r3, [r3, #0]
 8008084:	fba4 1303 	umull	r1, r3, r4, r3
 8008088:	099b      	lsrs	r3, r3, #6
 800808a:	3b01      	subs	r3, #1
	portNVIC_SYSTICK_CTRL_REG = ( portNVIC_SYSTICK_CLK_BIT | portNVIC_SYSTICK_INT_BIT | portNVIC_SYSTICK_ENABLE_BIT );
 800808c:	2107      	movs	r1, #7
	portNVIC_SYSTICK_LOAD_REG = ( configSYSTICK_CLOCK_HZ / configTICK_RATE_HZ ) - 1UL;
 800808e:	6003      	str	r3, [r0, #0]
}
 8008090:	bc30      	pop	{r4, r5}
	portNVIC_SYSTICK_CTRL_REG = ( portNVIC_SYSTICK_CLK_BIT | portNVIC_SYSTICK_INT_BIT | portNVIC_SYSTICK_ENABLE_BIT );
 8008092:	6011      	str	r1, [r2, #0]
}
 8008094:	4770      	bx	lr
 8008096:	bf00      	nop
 8008098:	e000e010 	.word	0xe000e010
 800809c:	e000e018 	.word	0xe000e018
 80080a0:	20000000 	.word	0x20000000
 80080a4:	10624dd3 	.word	0x10624dd3
 80080a8:	e000e014 	.word	0xe000e014

080080ac <xPortStartScheduler>:
	configASSERT( portCPUID != portCORTEX_M7_r0p1_ID );
 80080ac:	4b44      	ldr	r3, [pc, #272]	; (80081c0 <xPortStartScheduler+0x114>)
 80080ae:	4a45      	ldr	r2, [pc, #276]	; (80081c4 <xPortStartScheduler+0x118>)
 80080b0:	6819      	ldr	r1, [r3, #0]
 80080b2:	4291      	cmp	r1, r2
 80080b4:	d040      	beq.n	8008138 <xPortStartScheduler+0x8c>
	configASSERT( portCPUID != portCORTEX_M7_r0p0_ID );
 80080b6:	681a      	ldr	r2, [r3, #0]
 80080b8:	4b43      	ldr	r3, [pc, #268]	; (80081c8 <xPortStartScheduler+0x11c>)
 80080ba:	429a      	cmp	r2, r3
 80080bc:	d033      	beq.n	8008126 <xPortStartScheduler+0x7a>
{
 80080be:	b530      	push	{r4, r5, lr}
		ulOriginalPriority = *pucFirstUserPriorityRegister;
 80080c0:	4b42      	ldr	r3, [pc, #264]	; (80081cc <xPortStartScheduler+0x120>)
		ucMaxSysCallPriority = configMAX_SYSCALL_INTERRUPT_PRIORITY & ucMaxPriorityValue;
 80080c2:	4c43      	ldr	r4, [pc, #268]	; (80081d0 <xPortStartScheduler+0x124>)
		ulOriginalPriority = *pucFirstUserPriorityRegister;
 80080c4:	781a      	ldrb	r2, [r3, #0]
		ulMaxPRIGROUPValue = portMAX_PRIGROUP_BITS;
 80080c6:	4943      	ldr	r1, [pc, #268]	; (80081d4 <xPortStartScheduler+0x128>)
{
 80080c8:	b085      	sub	sp, #20
		ulOriginalPriority = *pucFirstUserPriorityRegister;
 80080ca:	b2d2      	uxtb	r2, r2
		*pucFirstUserPriorityRegister = portMAX_8_BIT_VALUE;
 80080cc:	20ff      	movs	r0, #255	; 0xff
		ulOriginalPriority = *pucFirstUserPriorityRegister;
 80080ce:	9202      	str	r2, [sp, #8]
		*pucFirstUserPriorityRegister = portMAX_8_BIT_VALUE;
 80080d0:	7018      	strb	r0, [r3, #0]
		ucMaxPriorityValue = *pucFirstUserPriorityRegister;
 80080d2:	781b      	ldrb	r3, [r3, #0]
 80080d4:	b2db      	uxtb	r3, r3
 80080d6:	f88d 3007 	strb.w	r3, [sp, #7]
		ucMaxSysCallPriority = configMAX_SYSCALL_INTERRUPT_PRIORITY & ucMaxPriorityValue;
 80080da:	f89d 3007 	ldrb.w	r3, [sp, #7]
		while( ( ucMaxPriorityValue & portTOP_BIT_OF_BYTE ) == portTOP_BIT_OF_BYTE )
 80080de:	f89d 2007 	ldrb.w	r2, [sp, #7]
		ucMaxSysCallPriority = configMAX_SYSCALL_INTERRUPT_PRIORITY & ucMaxPriorityValue;
 80080e2:	f003 0350 	and.w	r3, r3, #80	; 0x50
		ulMaxPRIGROUPValue = portMAX_PRIGROUP_BITS;
 80080e6:	2007      	movs	r0, #7
		ucMaxSysCallPriority = configMAX_SYSCALL_INTERRUPT_PRIORITY & ucMaxPriorityValue;
 80080e8:	7023      	strb	r3, [r4, #0]
		while( ( ucMaxPriorityValue & portTOP_BIT_OF_BYTE ) == portTOP_BIT_OF_BYTE )
 80080ea:	0614      	lsls	r4, r2, #24
		ulMaxPRIGROUPValue = portMAX_PRIGROUP_BITS;
 80080ec:	6008      	str	r0, [r1, #0]
		while( ( ucMaxPriorityValue & portTOP_BIT_OF_BYTE ) == portTOP_BIT_OF_BYTE )
 80080ee:	bf48      	it	mi
 80080f0:	2206      	movmi	r2, #6
 80080f2:	d50f      	bpl.n	8008114 <xPortStartScheduler+0x68>
			ucMaxPriorityValue <<= ( uint8_t ) 0x01;
 80080f4:	f89d 3007 	ldrb.w	r3, [sp, #7]
 80080f8:	005b      	lsls	r3, r3, #1
 80080fa:	b2db      	uxtb	r3, r3
 80080fc:	f88d 3007 	strb.w	r3, [sp, #7]
		while( ( ucMaxPriorityValue & portTOP_BIT_OF_BYTE ) == portTOP_BIT_OF_BYTE )
 8008100:	f89d 0007 	ldrb.w	r0, [sp, #7]
 8008104:	0600      	lsls	r0, r0, #24
 8008106:	4613      	mov	r3, r2
 8008108:	f102 32ff 	add.w	r2, r2, #4294967295
 800810c:	d4f2      	bmi.n	80080f4 <xPortStartScheduler+0x48>
			configASSERT( ( portMAX_PRIGROUP_BITS - ulMaxPRIGROUPValue ) == configPRIO_BITS );
 800810e:	2b03      	cmp	r3, #3
 8008110:	d01b      	beq.n	800814a <xPortStartScheduler+0x9e>
 8008112:	600b      	str	r3, [r1, #0]
	__asm volatile
 8008114:	f04f 0350 	mov.w	r3, #80	; 0x50
 8008118:	f383 8811 	msr	BASEPRI, r3
 800811c:	f3bf 8f6f 	isb	sy
 8008120:	f3bf 8f4f 	dsb	sy
 8008124:	e7fe      	b.n	8008124 <xPortStartScheduler+0x78>
 8008126:	f04f 0350 	mov.w	r3, #80	; 0x50
 800812a:	f383 8811 	msr	BASEPRI, r3
 800812e:	f3bf 8f6f 	isb	sy
 8008132:	f3bf 8f4f 	dsb	sy
	configASSERT( portCPUID != portCORTEX_M7_r0p0_ID );
 8008136:	e7fe      	b.n	8008136 <xPortStartScheduler+0x8a>
 8008138:	f04f 0350 	mov.w	r3, #80	; 0x50
 800813c:	f383 8811 	msr	BASEPRI, r3
 8008140:	f3bf 8f6f 	isb	sy
 8008144:	f3bf 8f4f 	dsb	sy
	configASSERT( portCPUID != portCORTEX_M7_r0p1_ID );
 8008148:	e7fe      	b.n	8008148 <xPortStartScheduler+0x9c>
		*pucFirstUserPriorityRegister = ulOriginalPriority;
 800814a:	9a02      	ldr	r2, [sp, #8]
 800814c:	481f      	ldr	r0, [pc, #124]	; (80081cc <xPortStartScheduler+0x120>)
	portNVIC_SYSPRI2_REG |= portNVIC_PENDSV_PRI;
 800814e:	4b22      	ldr	r3, [pc, #136]	; (80081d8 <xPortStartScheduler+0x12c>)
	uxCriticalNesting = 0;
 8008150:	4c22      	ldr	r4, [pc, #136]	; (80081dc <xPortStartScheduler+0x130>)
		*pucFirstUserPriorityRegister = ulOriginalPriority;
 8008152:	b2d2      	uxtb	r2, r2
		ulMaxPRIGROUPValue &= portPRIORITY_GROUP_MASK;
 8008154:	f44f 7540 	mov.w	r5, #768	; 0x300
 8008158:	600d      	str	r5, [r1, #0]
		*pucFirstUserPriorityRegister = ulOriginalPriority;
 800815a:	7002      	strb	r2, [r0, #0]
	portNVIC_SYSPRI2_REG |= portNVIC_PENDSV_PRI;
 800815c:	681a      	ldr	r2, [r3, #0]
 800815e:	f442 0270 	orr.w	r2, r2, #15728640	; 0xf00000
 8008162:	601a      	str	r2, [r3, #0]
	portNVIC_SYSPRI2_REG |= portNVIC_SYSTICK_PRI;
 8008164:	681a      	ldr	r2, [r3, #0]
 8008166:	f042 4270 	orr.w	r2, r2, #4026531840	; 0xf0000000
 800816a:	601a      	str	r2, [r3, #0]
	uxCriticalNesting = 0;
 800816c:	2500      	movs	r5, #0
	vPortSetupTimerInterrupt();
 800816e:	f7ff ff7f 	bl	8008070 <vPortSetupTimerInterrupt>
	uxCriticalNesting = 0;
 8008172:	6025      	str	r5, [r4, #0]
	vPortEnableVFP();
 8008174:	f7ff fea4 	bl	8007ec0 <vPortEnableVFP>
	*( portFPCCR ) |= portASPEN_AND_LSPEN_BITS;
 8008178:	4a19      	ldr	r2, [pc, #100]	; (80081e0 <xPortStartScheduler+0x134>)
 800817a:	6813      	ldr	r3, [r2, #0]
 800817c:	f043 4340 	orr.w	r3, r3, #3221225472	; 0xc0000000
 8008180:	6013      	str	r3, [r2, #0]
	prvPortStartFirstTask();
 8008182:	f7ff fe89 	bl	8007e98 <prvPortStartFirstTask>
	vTaskSwitchContext();
 8008186:	f7ff f92d 	bl	80073e4 <vTaskSwitchContext>
	configASSERT( uxCriticalNesting == ~0UL );
 800818a:	6823      	ldr	r3, [r4, #0]
volatile uint32_t ulDummy = 0;
 800818c:	9503      	str	r5, [sp, #12]
	configASSERT( uxCriticalNesting == ~0UL );
 800818e:	3301      	adds	r3, #1
 8008190:	d008      	beq.n	80081a4 <xPortStartScheduler+0xf8>
 8008192:	f04f 0350 	mov.w	r3, #80	; 0x50
 8008196:	f383 8811 	msr	BASEPRI, r3
 800819a:	f3bf 8f6f 	isb	sy
 800819e:	f3bf 8f4f 	dsb	sy
 80081a2:	e7fe      	b.n	80081a2 <xPortStartScheduler+0xf6>
 80081a4:	f04f 0350 	mov.w	r3, #80	; 0x50
 80081a8:	f383 8811 	msr	BASEPRI, r3
 80081ac:	f3bf 8f6f 	isb	sy
 80081b0:	f3bf 8f4f 	dsb	sy
	while( ulDummy == 0 )
 80081b4:	9b03      	ldr	r3, [sp, #12]
 80081b6:	2b00      	cmp	r3, #0
 80081b8:	d0fc      	beq.n	80081b4 <xPortStartScheduler+0x108>
}
 80081ba:	2000      	movs	r0, #0
 80081bc:	b005      	add	sp, #20
 80081be:	bd30      	pop	{r4, r5, pc}
 80081c0:	e000ed00 	.word	0xe000ed00
 80081c4:	410fc271 	.word	0x410fc271
 80081c8:	410fc270 	.word	0x410fc270
 80081cc:	e000e400 	.word	0xe000e400
 80081d0:	2000185c 	.word	0x2000185c
 80081d4:	20001860 	.word	0x20001860
 80081d8:	e000ed20 	.word	0xe000ed20
 80081dc:	20000008 	.word	0x20000008
 80081e0:	e000ef34 	.word	0xe000ef34

080081e4 <vPortValidateInterruptPriority>:
	{
	uint32_t ulCurrentInterrupt;
	uint8_t ucCurrentPriority;

		/* Obtain the number of the currently executing interrupt. */
		__asm volatile( "mrs %0, ipsr" : "=r"( ulCurrentInterrupt ) :: "memory" );
 80081e4:	f3ef 8305 	mrs	r3, IPSR

		/* Is the interrupt number a user defined interrupt? */
		if( ulCurrentInterrupt >= portFIRST_USER_INTERRUPT_NUMBER )
 80081e8:	2b0f      	cmp	r3, #15
 80081ea:	d90e      	bls.n	800820a <vPortValidateInterruptPriority+0x26>
		{
			/* Look up the interrupt's priority. */
			ucCurrentPriority = pcInterruptPriorityRegisters[ ulCurrentInterrupt ];
 80081ec:	4910      	ldr	r1, [pc, #64]	; (8008230 <vPortValidateInterruptPriority+0x4c>)
			interrupt entry is as fast and simple as possible.

			The following links provide detailed information:
			http://www.freertos.org/RTOS-Cortex-M3-M4.html
			http://www.freertos.org/FAQHelp.html */
			configASSERT( ucCurrentPriority >= ucMaxSysCallPriority );
 80081ee:	4a11      	ldr	r2, [pc, #68]	; (8008234 <vPortValidateInterruptPriority+0x50>)
			ucCurrentPriority = pcInterruptPriorityRegisters[ ulCurrentInterrupt ];
 80081f0:	5c5b      	ldrb	r3, [r3, r1]
			configASSERT( ucCurrentPriority >= ucMaxSysCallPriority );
 80081f2:	7812      	ldrb	r2, [r2, #0]
 80081f4:	429a      	cmp	r2, r3
 80081f6:	d908      	bls.n	800820a <vPortValidateInterruptPriority+0x26>
 80081f8:	f04f 0350 	mov.w	r3, #80	; 0x50
 80081fc:	f383 8811 	msr	BASEPRI, r3
 8008200:	f3bf 8f6f 	isb	sy
 8008204:	f3bf 8f4f 	dsb	sy
 8008208:	e7fe      	b.n	8008208 <vPortValidateInterruptPriority+0x24>
		configuration then the correct setting can be achieved on all Cortex-M
		devices by calling NVIC_SetPriorityGrouping( 0 ); before starting the
		scheduler.  Note however that some vendor specific peripheral libraries
		assume a non-zero priority group setting, in which cases using a value
		of zero will result in unpredictable behaviour. */
		configASSERT( ( portAIRCR_REG & portPRIORITY_GROUP_MASK ) <= ulMaxPRIGROUPValue );
 800820a:	4b0b      	ldr	r3, [pc, #44]	; (8008238 <vPortValidateInterruptPriority+0x54>)
 800820c:	4a0b      	ldr	r2, [pc, #44]	; (800823c <vPortValidateInterruptPriority+0x58>)
 800820e:	681b      	ldr	r3, [r3, #0]
 8008210:	6812      	ldr	r2, [r2, #0]
 8008212:	f403 63e0 	and.w	r3, r3, #1792	; 0x700
 8008216:	4293      	cmp	r3, r2
 8008218:	d908      	bls.n	800822c <vPortValidateInterruptPriority+0x48>
 800821a:	f04f 0350 	mov.w	r3, #80	; 0x50
 800821e:	f383 8811 	msr	BASEPRI, r3
 8008222:	f3bf 8f6f 	isb	sy
 8008226:	f3bf 8f4f 	dsb	sy
 800822a:	e7fe      	b.n	800822a <vPortValidateInterruptPriority+0x46>
	}
 800822c:	4770      	bx	lr
 800822e:	bf00      	nop
 8008230:	e000e3f0 	.word	0xe000e3f0
 8008234:	2000185c 	.word	0x2000185c
 8008238:	e000ed0c 	.word	0xe000ed0c
 800823c:	20001860 	.word	0x20001860

08008240 <pvPortMalloc>:
static size_t xBlockAllocatedBit = 0;

/*-----------------------------------------------------------*/

void *pvPortMalloc( size_t xWantedSize )
{
 8008240:	e92d 41f0 	stmdb	sp!, {r4, r5, r6, r7, r8, lr}
 8008244:	4606      	mov	r6, r0
BlockLink_t *pxBlock, *pxPreviousBlock, *pxNewBlockLink;
void *pvReturn = NULL;

	vTaskSuspendAll();
 8008246:	f7ff f89f 	bl	8007388 <vTaskSuspendAll>
	{
		/* If this is the first call to malloc then the heap will require
		initialisation to setup the list of free blocks. */
		if( pxEnd == NULL )
 800824a:	4854      	ldr	r0, [pc, #336]	; (800839c <pvPortMalloc+0x15c>)
 800824c:	6803      	ldr	r3, [r0, #0]
 800824e:	2b00      	cmp	r3, #0
 8008250:	d03c      	beq.n	80082cc <pvPortMalloc+0x8c>
 8008252:	4a53      	ldr	r2, [pc, #332]	; (80083a0 <pvPortMalloc+0x160>)
 8008254:	6815      	ldr	r5, [r2, #0]

		/* Check the requested block size is not so large that the top bit is
		set.  The top bit of the block size member of the BlockLink_t structure
		is used to determine who owns the block - the application or the
		kernel, so it must be free. */
		if( ( xWantedSize & xBlockAllocatedBit ) == 0 )
 8008256:	422e      	tst	r6, r5
 8008258:	d130      	bne.n	80082bc <pvPortMalloc+0x7c>
		{
			/* The wanted size is increased so it can contain a BlockLink_t
			structure in addition to the requested amount of bytes. */
			if( xWantedSize > 0 )
 800825a:	b37e      	cbz	r6, 80082bc <pvPortMalloc+0x7c>
			{
				xWantedSize += xHeapStructSize;
 800825c:	f106 0408 	add.w	r4, r6, #8

				/* Ensure that blocks are always aligned to the required number
				of bytes. */
				if( ( xWantedSize & portBYTE_ALIGNMENT_MASK ) != 0x00 )
 8008260:	0776      	lsls	r6, r6, #29
				{
					/* Byte alignment required. */
					xWantedSize += ( portBYTE_ALIGNMENT - ( xWantedSize & portBYTE_ALIGNMENT_MASK ) );
 8008262:	bf1c      	itt	ne
 8008264:	f024 0407 	bicne.w	r4, r4, #7
 8008268:	3408      	addne	r4, #8
			else
			{
				mtCOVERAGE_TEST_MARKER();
			}

			if( ( xWantedSize > 0 ) && ( xWantedSize <= xFreeBytesRemaining ) )
 800826a:	b33c      	cbz	r4, 80082bc <pvPortMalloc+0x7c>
 800826c:	f8df c13c 	ldr.w	ip, [pc, #316]	; 80083ac <pvPortMalloc+0x16c>
 8008270:	f8dc 7000 	ldr.w	r7, [ip]
 8008274:	42a7      	cmp	r7, r4
 8008276:	d321      	bcc.n	80082bc <pvPortMalloc+0x7c>
			{
				/* Traverse the list from the start	(lowest address) block until
				one	of adequate size is found. */
				pxPreviousBlock = &xStart;
				pxBlock = xStart.pxNextFreeBlock;
 8008278:	4a4a      	ldr	r2, [pc, #296]	; (80083a4 <pvPortMalloc+0x164>)
 800827a:	6811      	ldr	r1, [r2, #0]
				while( ( pxBlock->xBlockSize < xWantedSize ) && ( pxBlock->pxNextFreeBlock != NULL ) )
 800827c:	e003      	b.n	8008286 <pvPortMalloc+0x46>
 800827e:	680e      	ldr	r6, [r1, #0]
 8008280:	b126      	cbz	r6, 800828c <pvPortMalloc+0x4c>
 8008282:	460a      	mov	r2, r1
 8008284:	4631      	mov	r1, r6
 8008286:	6848      	ldr	r0, [r1, #4]
 8008288:	42a0      	cmp	r0, r4
 800828a:	d3f8      	bcc.n	800827e <pvPortMalloc+0x3e>
					pxBlock = pxBlock->pxNextFreeBlock;
				}

				/* If the end marker was reached then a block of adequate size
				was	not found. */
				if( pxBlock != pxEnd )
 800828c:	4299      	cmp	r1, r3
 800828e:	d015      	beq.n	80082bc <pvPortMalloc+0x7c>
				{
					/* Return the memory space pointed to - jumping over the
					BlockLink_t structure at its start. */
					pvReturn = ( void * ) ( ( ( uint8_t * ) pxPreviousBlock->pxNextFreeBlock ) + xHeapStructSize );
 8008290:	460e      	mov	r6, r1
					of the list of free blocks. */
					pxPreviousBlock->pxNextFreeBlock = pxBlock->pxNextFreeBlock;

					/* If the block is larger than required it can be split into
					two. */
					if( ( pxBlock->xBlockSize - xWantedSize ) > heapMINIMUM_BLOCK_SIZE )
 8008292:	eba0 0e04 	sub.w	lr, r0, r4
					pxPreviousBlock->pxNextFreeBlock = pxBlock->pxNextFreeBlock;
 8008296:	f856 8b08 	ldr.w	r8, [r6], #8
 800829a:	f8c2 8000 	str.w	r8, [r2]
					if( ( pxBlock->xBlockSize - xWantedSize ) > heapMINIMUM_BLOCK_SIZE )
 800829e:	f1be 0f10 	cmp.w	lr, #16
 80082a2:	d950      	bls.n	8008346 <pvPortMalloc+0x106>
					{
						/* This block is to be split into two.  Create a new
						block following the number of bytes requested. The void
						cast is used to prevent byte alignment warnings from the
						compiler. */
						pxNewBlockLink = ( void * ) ( ( ( uint8_t * ) pxBlock ) + xWantedSize );
 80082a4:	190a      	adds	r2, r1, r4
						configASSERT( ( ( ( size_t ) pxNewBlockLink ) & portBYTE_ALIGNMENT_MASK ) == 0 );
 80082a6:	0750      	lsls	r0, r2, #29
 80082a8:	d034      	beq.n	8008314 <pvPortMalloc+0xd4>
 80082aa:	f04f 0350 	mov.w	r3, #80	; 0x50
 80082ae:	f383 8811 	msr	BASEPRI, r3
 80082b2:	f3bf 8f6f 	isb	sy
 80082b6:	f3bf 8f4f 	dsb	sy
 80082ba:	e7fe      	b.n	80082ba <pvPortMalloc+0x7a>
			mtCOVERAGE_TEST_MARKER();
		}

		traceMALLOC( pvReturn, xWantedSize );
	}
	( void ) xTaskResumeAll();
 80082bc:	f7ff f86c 	bl	8007398 <xTaskResumeAll>
	#if( configUSE_MALLOC_FAILED_HOOK == 1 )
	{
		if( pvReturn == NULL )
		{
			extern void vApplicationMallocFailedHook( void );
			vApplicationMallocFailedHook();
 80082c0:	2600      	movs	r6, #0
 80082c2:	f7f9 f859 	bl	8001378 <vApplicationMallocFailedHook>
	}
	#endif

	configASSERT( ( ( ( size_t ) pvReturn ) & ( size_t ) portBYTE_ALIGNMENT_MASK ) == 0 );
	return pvReturn;
}
 80082c6:	4630      	mov	r0, r6
 80082c8:	e8bd 81f0 	ldmia.w	sp!, {r4, r5, r6, r7, r8, pc}
uint8_t *pucAlignedHeap;
size_t uxAddress;
size_t xTotalHeapSize = configTOTAL_HEAP_SIZE;

	/* Ensure the heap starts on a correctly aligned boundary. */
	uxAddress = ( size_t ) ucHeap;
 80082cc:	4b36      	ldr	r3, [pc, #216]	; (80083a8 <pvPortMalloc+0x168>)

	pucAlignedHeap = ( uint8_t * ) uxAddress;

	/* xStart is used to hold a pointer to the first item in the list of free
	blocks.  The void cast is used to prevent compiler warnings. */
	xStart.pxNextFreeBlock = ( void * ) pucAlignedHeap;
 80082ce:	4c35      	ldr	r4, [pc, #212]	; (80083a4 <pvPortMalloc+0x164>)
	pxFirstFreeBlock->xBlockSize = uxAddress - ( size_t ) pxFirstFreeBlock;
	pxFirstFreeBlock->pxNextFreeBlock = pxEnd;

	/* Only one block exists - and it covers the entire usable heap space. */
	xMinimumEverFreeBytesRemaining = pxFirstFreeBlock->xBlockSize;
	xFreeBytesRemaining = pxFirstFreeBlock->xBlockSize;
 80082d0:	4d36      	ldr	r5, [pc, #216]	; (80083ac <pvPortMalloc+0x16c>)
	xMinimumEverFreeBytesRemaining = pxFirstFreeBlock->xBlockSize;
 80082d2:	f8df c0dc 	ldr.w	ip, [pc, #220]	; 80083b0 <pvPortMalloc+0x170>
	if( ( uxAddress & portBYTE_ALIGNMENT_MASK ) != 0 )
 80082d6:	075f      	lsls	r7, r3, #29
		uxAddress += ( portBYTE_ALIGNMENT - 1 );
 80082d8:	bf14      	ite	ne
 80082da:	1dda      	addne	r2, r3, #7
	if( ( uxAddress & portBYTE_ALIGNMENT_MASK ) != 0 )
 80082dc:	461a      	moveq	r2, r3
		uxAddress &= ~( ( size_t ) portBYTE_ALIGNMENT_MASK );
 80082de:	f503 4300 	add.w	r3, r3, #32768	; 0x8000
	uxAddress -= xHeapStructSize;
 80082e2:	f1a3 0308 	sub.w	r3, r3, #8
	uxAddress &= ~( ( size_t ) portBYTE_ALIGNMENT_MASK );
 80082e6:	f023 0307 	bic.w	r3, r3, #7
		uxAddress &= ~( ( size_t ) portBYTE_ALIGNMENT_MASK );
 80082ea:	bf18      	it	ne
 80082ec:	f022 0207 	bicne.w	r2, r2, #7
	xStart.pxNextFreeBlock = ( void * ) pucAlignedHeap;
 80082f0:	6022      	str	r2, [r4, #0]
 80082f2:	4611      	mov	r1, r2

	/* Work out the position of the top bit in a size_t variable. */
	xBlockAllocatedBit = ( ( size_t ) 1 ) << ( ( sizeof( size_t ) * heapBITS_PER_BYTE ) - 1 );
 80082f4:	4f2a      	ldr	r7, [pc, #168]	; (80083a0 <pvPortMalloc+0x160>)
	pxEnd = ( void * ) uxAddress;
 80082f6:	6003      	str	r3, [r0, #0]
	pxFirstFreeBlock->xBlockSize = uxAddress - ( size_t ) pxFirstFreeBlock;
 80082f8:	1a9a      	subs	r2, r3, r2
	xStart.xBlockSize = ( size_t ) 0;
 80082fa:	2000      	movs	r0, #0
	xFreeBytesRemaining = pxFirstFreeBlock->xBlockSize;
 80082fc:	602a      	str	r2, [r5, #0]
	xBlockAllocatedBit = ( ( size_t ) 1 ) << ( ( sizeof( size_t ) * heapBITS_PER_BYTE ) - 1 );
 80082fe:	f04f 4500 	mov.w	r5, #2147483648	; 0x80000000
	xStart.xBlockSize = ( size_t ) 0;
 8008302:	6060      	str	r0, [r4, #4]
	xMinimumEverFreeBytesRemaining = pxFirstFreeBlock->xBlockSize;
 8008304:	f8cc 2000 	str.w	r2, [ip]
	pxEnd->pxNextFreeBlock = NULL;
 8008308:	e9c3 0000 	strd	r0, r0, [r3]
	xBlockAllocatedBit = ( ( size_t ) 1 ) << ( ( sizeof( size_t ) * heapBITS_PER_BYTE ) - 1 );
 800830c:	603d      	str	r5, [r7, #0]
	pxFirstFreeBlock->pxNextFreeBlock = pxEnd;
 800830e:	e9c1 3200 	strd	r3, r2, [r1]
}
 8008312:	e7a0      	b.n	8008256 <pvPortMalloc+0x16>
BlockLink_t *pxIterator;
uint8_t *puc;

	/* Iterate through the list until a block is found that has a higher address
	than the block being inserted. */
	for( pxIterator = &xStart; pxIterator->pxNextFreeBlock < pxBlockToInsert; pxIterator = pxIterator->pxNextFreeBlock )
 8008314:	4823      	ldr	r0, [pc, #140]	; (80083a4 <pvPortMalloc+0x164>)
						pxNewBlockLink->xBlockSize = pxBlock->xBlockSize - xWantedSize;
 8008316:	f8c2 e004 	str.w	lr, [r2, #4]
						pxBlock->xBlockSize = xWantedSize;
 800831a:	604c      	str	r4, [r1, #4]
	for( pxIterator = &xStart; pxIterator->pxNextFreeBlock < pxBlockToInsert; pxIterator = pxIterator->pxNextFreeBlock )
 800831c:	4686      	mov	lr, r0
 800831e:	6800      	ldr	r0, [r0, #0]
 8008320:	4282      	cmp	r2, r0
 8008322:	d8fb      	bhi.n	800831c <pvPortMalloc+0xdc>
	}

	/* Do the block being inserted, and the block it is being inserted after
	make a contiguous block of memory? */
	puc = ( uint8_t * ) pxIterator;
	if( ( puc + pxIterator->xBlockSize ) == ( uint8_t * ) pxBlockToInsert )
 8008324:	f8de 4004 	ldr.w	r4, [lr, #4]
 8008328:	eb0e 0804 	add.w	r8, lr, r4
 800832c:	4542      	cmp	r2, r8
 800832e:	d027      	beq.n	8008380 <pvPortMalloc+0x140>
 8008330:	6854      	ldr	r4, [r2, #4]
	}

	/* Do the block being inserted, and the block it is being inserted before
	make a contiguous block of memory? */
	puc = ( uint8_t * ) pxBlockToInsert;
	if( ( puc + pxBlockToInsert->xBlockSize ) == ( uint8_t * ) pxIterator->pxNextFreeBlock )
 8008332:	eb02 0804 	add.w	r8, r2, r4
 8008336:	4540      	cmp	r0, r8
 8008338:	d028      	beq.n	800838c <pvPortMalloc+0x14c>
			pxBlockToInsert->pxNextFreeBlock = pxEnd;
		}
	}
	else
	{
		pxBlockToInsert->pxNextFreeBlock = pxIterator->pxNextFreeBlock;
 800833a:	6010      	str	r0, [r2, #0]

	/* If the block being inserted plugged a gab, so was merged with the block
	before and the block after, then it's pxNextFreeBlock pointer will have
	already been set, and should not be set here as that would make it point
	to itself. */
	if( pxIterator != pxBlockToInsert )
 800833c:	4596      	cmp	lr, r2
	{
		pxIterator->pxNextFreeBlock = pxBlockToInsert;
 800833e:	6848      	ldr	r0, [r1, #4]
 8008340:	bf18      	it	ne
 8008342:	f8ce 2000 	strne.w	r2, [lr]
					if( xFreeBytesRemaining < xMinimumEverFreeBytesRemaining )
 8008346:	4c1a      	ldr	r4, [pc, #104]	; (80083b0 <pvPortMalloc+0x170>)
 8008348:	6822      	ldr	r2, [r4, #0]
					xFreeBytesRemaining -= pxBlock->xBlockSize;
 800834a:	1a3f      	subs	r7, r7, r0
					if( xFreeBytesRemaining < xMinimumEverFreeBytesRemaining )
 800834c:	4297      	cmp	r7, r2
					xNumberOfSuccessfulAllocations++;
 800834e:	4a19      	ldr	r2, [pc, #100]	; (80083b4 <pvPortMalloc+0x174>)
						xMinimumEverFreeBytesRemaining = xFreeBytesRemaining;
 8008350:	bf38      	it	cc
 8008352:	6027      	strcc	r7, [r4, #0]
					xNumberOfSuccessfulAllocations++;
 8008354:	6813      	ldr	r3, [r2, #0]
					xFreeBytesRemaining -= pxBlock->xBlockSize;
 8008356:	f8cc 7000 	str.w	r7, [ip]
					pxBlock->xBlockSize |= xBlockAllocatedBit;
 800835a:	4328      	orrs	r0, r5
					pxBlock->pxNextFreeBlock = NULL;
 800835c:	2400      	movs	r4, #0
					xNumberOfSuccessfulAllocations++;
 800835e:	3301      	adds	r3, #1
					pxBlock->xBlockSize |= xBlockAllocatedBit;
 8008360:	6048      	str	r0, [r1, #4]
					pxBlock->pxNextFreeBlock = NULL;
 8008362:	600c      	str	r4, [r1, #0]
					xNumberOfSuccessfulAllocations++;
 8008364:	6013      	str	r3, [r2, #0]
	( void ) xTaskResumeAll();
 8008366:	f7ff f817 	bl	8007398 <xTaskResumeAll>
	configASSERT( ( ( ( size_t ) pvReturn ) & ( size_t ) portBYTE_ALIGNMENT_MASK ) == 0 );
 800836a:	0773      	lsls	r3, r6, #29
 800836c:	d0ab      	beq.n	80082c6 <pvPortMalloc+0x86>
 800836e:	f04f 0350 	mov.w	r3, #80	; 0x50
 8008372:	f383 8811 	msr	BASEPRI, r3
 8008376:	f3bf 8f6f 	isb	sy
 800837a:	f3bf 8f4f 	dsb	sy
 800837e:	e7fe      	b.n	800837e <pvPortMalloc+0x13e>
		pxIterator->xBlockSize += pxBlockToInsert->xBlockSize;
 8008380:	6852      	ldr	r2, [r2, #4]
 8008382:	4414      	add	r4, r2
 8008384:	f8ce 4004 	str.w	r4, [lr, #4]
		pxBlockToInsert = pxIterator;
 8008388:	4672      	mov	r2, lr
 800838a:	e7d2      	b.n	8008332 <pvPortMalloc+0xf2>
		if( pxIterator->pxNextFreeBlock != pxEnd )
 800838c:	4298      	cmp	r0, r3
 800838e:	d0d4      	beq.n	800833a <pvPortMalloc+0xfa>
			pxBlockToInsert->pxNextFreeBlock = pxIterator->pxNextFreeBlock->pxNextFreeBlock;
 8008390:	e9d0 0300 	ldrd	r0, r3, [r0]
			pxBlockToInsert->xBlockSize += pxIterator->pxNextFreeBlock->xBlockSize;
 8008394:	441c      	add	r4, r3
			pxBlockToInsert->pxNextFreeBlock = pxIterator->pxNextFreeBlock->pxNextFreeBlock;
 8008396:	6010      	str	r0, [r2, #0]
			pxBlockToInsert->xBlockSize += pxIterator->pxNextFreeBlock->xBlockSize;
 8008398:	6054      	str	r4, [r2, #4]
			pxBlockToInsert->pxNextFreeBlock = pxIterator->pxNextFreeBlock->pxNextFreeBlock;
 800839a:	e7cf      	b.n	800833c <pvPortMalloc+0xfc>
 800839c:	20001864 	.word	0x20001864
 80083a0:	20009868 	.word	0x20009868
 80083a4:	2000987c 	.word	0x2000987c
 80083a8:	20001868 	.word	0x20001868
 80083ac:	2000986c 	.word	0x2000986c
 80083b0:	20009870 	.word	0x20009870
 80083b4:	20009874 	.word	0x20009874

080083b8 <vPortFree>:
	if( pv != NULL )
 80083b8:	b1e0      	cbz	r0, 80083f4 <vPortFree+0x3c>
		configASSERT( ( pxLink->xBlockSize & xBlockAllocatedBit ) != 0 );
 80083ba:	4a29      	ldr	r2, [pc, #164]	; (8008460 <vPortFree+0xa8>)
{
 80083bc:	b538      	push	{r3, r4, r5, lr}
		configASSERT( ( pxLink->xBlockSize & xBlockAllocatedBit ) != 0 );
 80083be:	6812      	ldr	r2, [r2, #0]
 80083c0:	f850 3c04 	ldr.w	r3, [r0, #-4]
 80083c4:	4213      	tst	r3, r2
 80083c6:	4604      	mov	r4, r0
 80083c8:	d00b      	beq.n	80083e2 <vPortFree+0x2a>
		configASSERT( pxLink->pxNextFreeBlock == NULL );
 80083ca:	f850 1c08 	ldr.w	r1, [r0, #-8]
 80083ce:	b191      	cbz	r1, 80083f6 <vPortFree+0x3e>
 80083d0:	f04f 0350 	mov.w	r3, #80	; 0x50
 80083d4:	f383 8811 	msr	BASEPRI, r3
 80083d8:	f3bf 8f6f 	isb	sy
 80083dc:	f3bf 8f4f 	dsb	sy
 80083e0:	e7fe      	b.n	80083e0 <vPortFree+0x28>
 80083e2:	f04f 0350 	mov.w	r3, #80	; 0x50
 80083e6:	f383 8811 	msr	BASEPRI, r3
 80083ea:	f3bf 8f6f 	isb	sy
 80083ee:	f3bf 8f4f 	dsb	sy
		configASSERT( ( pxLink->xBlockSize & xBlockAllocatedBit ) != 0 );
 80083f2:	e7fe      	b.n	80083f2 <vPortFree+0x3a>
 80083f4:	4770      	bx	lr
				pxLink->xBlockSize &= ~xBlockAllocatedBit;
 80083f6:	ea23 0302 	bic.w	r3, r3, r2
 80083fa:	f840 3c04 	str.w	r3, [r0, #-4]
				vTaskSuspendAll();
 80083fe:	f7fe ffc3 	bl	8007388 <vTaskSuspendAll>
					xFreeBytesRemaining += pxLink->xBlockSize;
 8008402:	4918      	ldr	r1, [pc, #96]	; (8008464 <vPortFree+0xac>)
 8008404:	f854 0c04 	ldr.w	r0, [r4, #-4]
 8008408:	680b      	ldr	r3, [r1, #0]
	for( pxIterator = &xStart; pxIterator->pxNextFreeBlock < pxBlockToInsert; pxIterator = pxIterator->pxNextFreeBlock )
 800840a:	4a17      	ldr	r2, [pc, #92]	; (8008468 <vPortFree+0xb0>)
					xFreeBytesRemaining += pxLink->xBlockSize;
 800840c:	4403      	add	r3, r0
 800840e:	600b      	str	r3, [r1, #0]
		puc -= xHeapStructSize;
 8008410:	f1a4 0308 	sub.w	r3, r4, #8
	for( pxIterator = &xStart; pxIterator->pxNextFreeBlock < pxBlockToInsert; pxIterator = pxIterator->pxNextFreeBlock )
 8008414:	4611      	mov	r1, r2
 8008416:	6812      	ldr	r2, [r2, #0]
 8008418:	4293      	cmp	r3, r2
 800841a:	d8fb      	bhi.n	8008414 <vPortFree+0x5c>
	if( ( puc + pxIterator->xBlockSize ) == ( uint8_t * ) pxBlockToInsert )
 800841c:	684c      	ldr	r4, [r1, #4]
 800841e:	190d      	adds	r5, r1, r4
 8008420:	42ab      	cmp	r3, r5
 8008422:	d00e      	beq.n	8008442 <vPortFree+0x8a>
	if( ( puc + pxBlockToInsert->xBlockSize ) == ( uint8_t * ) pxIterator->pxNextFreeBlock )
 8008424:	181c      	adds	r4, r3, r0
 8008426:	42a2      	cmp	r2, r4
 8008428:	d00f      	beq.n	800844a <vPortFree+0x92>
		pxBlockToInsert->pxNextFreeBlock = pxIterator->pxNextFreeBlock;
 800842a:	601a      	str	r2, [r3, #0]
					xNumberOfSuccessfulFrees++;
 800842c:	4a0f      	ldr	r2, [pc, #60]	; (800846c <vPortFree+0xb4>)
	if( pxIterator != pxBlockToInsert )
 800842e:	4299      	cmp	r1, r3
		pxIterator->pxNextFreeBlock = pxBlockToInsert;
 8008430:	bf18      	it	ne
 8008432:	600b      	strne	r3, [r1, #0]
					xNumberOfSuccessfulFrees++;
 8008434:	6813      	ldr	r3, [r2, #0]
 8008436:	3301      	adds	r3, #1
 8008438:	6013      	str	r3, [r2, #0]
}
 800843a:	e8bd 4038 	ldmia.w	sp!, {r3, r4, r5, lr}
				( void ) xTaskResumeAll();
 800843e:	f7fe bfab 	b.w	8007398 <xTaskResumeAll>
		pxIterator->xBlockSize += pxBlockToInsert->xBlockSize;
 8008442:	4420      	add	r0, r4
 8008444:	6048      	str	r0, [r1, #4]
		pxBlockToInsert = pxIterator;
 8008446:	460b      	mov	r3, r1
 8008448:	e7ec      	b.n	8008424 <vPortFree+0x6c>
		if( pxIterator->pxNextFreeBlock != pxEnd )
 800844a:	4c09      	ldr	r4, [pc, #36]	; (8008470 <vPortFree+0xb8>)
 800844c:	6824      	ldr	r4, [r4, #0]
 800844e:	42a2      	cmp	r2, r4
 8008450:	d0eb      	beq.n	800842a <vPortFree+0x72>
			pxBlockToInsert->pxNextFreeBlock = pxIterator->pxNextFreeBlock->pxNextFreeBlock;
 8008452:	e9d2 2400 	ldrd	r2, r4, [r2]
			pxBlockToInsert->xBlockSize += pxIterator->pxNextFreeBlock->xBlockSize;
 8008456:	4420      	add	r0, r4
			pxBlockToInsert->pxNextFreeBlock = pxIterator->pxNextFreeBlock->pxNextFreeBlock;
 8008458:	601a      	str	r2, [r3, #0]
			pxBlockToInsert->xBlockSize += pxIterator->pxNextFreeBlock->xBlockSize;
 800845a:	6058      	str	r0, [r3, #4]
			pxBlockToInsert->pxNextFreeBlock = pxIterator->pxNextFreeBlock->pxNextFreeBlock;
 800845c:	e7e6      	b.n	800842c <vPortFree+0x74>
 800845e:	bf00      	nop
 8008460:	20009868 	.word	0x20009868
 8008464:	2000986c 	.word	0x2000986c
 8008468:	2000987c 	.word	0x2000987c
 800846c:	20009878 	.word	0x20009878
 8008470:	20001864 	.word	0x20001864

08008474 <__errno>:
 8008474:	4b01      	ldr	r3, [pc, #4]	; (800847c <__errno+0x8>)
 8008476:	6818      	ldr	r0, [r3, #0]
 8008478:	4770      	bx	lr
 800847a:	bf00      	nop
 800847c:	2000000c 	.word	0x2000000c

08008480 <__libc_init_array>:
 8008480:	b570      	push	{r4, r5, r6, lr}
 8008482:	4d0d      	ldr	r5, [pc, #52]	; (80084b8 <__libc_init_array+0x38>)
 8008484:	4c0d      	ldr	r4, [pc, #52]	; (80084bc <__libc_init_array+0x3c>)
 8008486:	1b64      	subs	r4, r4, r5
 8008488:	10a4      	asrs	r4, r4, #2
 800848a:	2600      	movs	r6, #0
 800848c:	42a6      	cmp	r6, r4
 800848e:	d109      	bne.n	80084a4 <__libc_init_array+0x24>
 8008490:	4d0b      	ldr	r5, [pc, #44]	; (80084c0 <__libc_init_array+0x40>)
 8008492:	4c0c      	ldr	r4, [pc, #48]	; (80084c4 <__libc_init_array+0x44>)
 8008494:	f000 ff84 	bl	80093a0 <_init>
 8008498:	1b64      	subs	r4, r4, r5
 800849a:	10a4      	asrs	r4, r4, #2
 800849c:	2600      	movs	r6, #0
 800849e:	42a6      	cmp	r6, r4
 80084a0:	d105      	bne.n	80084ae <__libc_init_array+0x2e>
 80084a2:	bd70      	pop	{r4, r5, r6, pc}
 80084a4:	f855 3b04 	ldr.w	r3, [r5], #4
 80084a8:	4798      	blx	r3
 80084aa:	3601      	adds	r6, #1
 80084ac:	e7ee      	b.n	800848c <__libc_init_array+0xc>
 80084ae:	f855 3b04 	ldr.w	r3, [r5], #4
 80084b2:	4798      	blx	r3
 80084b4:	3601      	adds	r6, #1
 80084b6:	e7f2      	b.n	800849e <__libc_init_array+0x1e>
 80084b8:	08009a5c 	.word	0x08009a5c
 80084bc:	08009a5c 	.word	0x08009a5c
 80084c0:	08009a5c 	.word	0x08009a5c
 80084c4:	08009a60 	.word	0x08009a60

080084c8 <memcpy>:
 80084c8:	440a      	add	r2, r1
 80084ca:	4291      	cmp	r1, r2
 80084cc:	f100 33ff 	add.w	r3, r0, #4294967295
 80084d0:	d100      	bne.n	80084d4 <memcpy+0xc>
 80084d2:	4770      	bx	lr
 80084d4:	b510      	push	{r4, lr}
 80084d6:	f811 4b01 	ldrb.w	r4, [r1], #1
 80084da:	f803 4f01 	strb.w	r4, [r3, #1]!
 80084de:	4291      	cmp	r1, r2
 80084e0:	d1f9      	bne.n	80084d6 <memcpy+0xe>
 80084e2:	bd10      	pop	{r4, pc}

080084e4 <memset>:
 80084e4:	4402      	add	r2, r0
 80084e6:	4603      	mov	r3, r0
 80084e8:	4293      	cmp	r3, r2
 80084ea:	d100      	bne.n	80084ee <memset+0xa>
 80084ec:	4770      	bx	lr
 80084ee:	f803 1b01 	strb.w	r1, [r3], #1
 80084f2:	e7f9      	b.n	80084e8 <memset+0x4>

080084f4 <iprintf>:
 80084f4:	b40f      	push	{r0, r1, r2, r3}
 80084f6:	4b0a      	ldr	r3, [pc, #40]	; (8008520 <iprintf+0x2c>)
 80084f8:	b513      	push	{r0, r1, r4, lr}
 80084fa:	681c      	ldr	r4, [r3, #0]
 80084fc:	b124      	cbz	r4, 8008508 <iprintf+0x14>
 80084fe:	69a3      	ldr	r3, [r4, #24]
 8008500:	b913      	cbnz	r3, 8008508 <iprintf+0x14>
 8008502:	4620      	mov	r0, r4
 8008504:	f000 f866 	bl	80085d4 <__sinit>
 8008508:	ab05      	add	r3, sp, #20
 800850a:	9a04      	ldr	r2, [sp, #16]
 800850c:	68a1      	ldr	r1, [r4, #8]
 800850e:	9301      	str	r3, [sp, #4]
 8008510:	4620      	mov	r0, r4
 8008512:	f000 f983 	bl	800881c <_vfiprintf_r>
 8008516:	b002      	add	sp, #8
 8008518:	e8bd 4010 	ldmia.w	sp!, {r4, lr}
 800851c:	b004      	add	sp, #16
 800851e:	4770      	bx	lr
 8008520:	2000000c 	.word	0x2000000c

08008524 <std>:
 8008524:	2300      	movs	r3, #0
 8008526:	b510      	push	{r4, lr}
 8008528:	4604      	mov	r4, r0
 800852a:	e9c0 3300 	strd	r3, r3, [r0]
 800852e:	e9c0 3304 	strd	r3, r3, [r0, #16]
 8008532:	6083      	str	r3, [r0, #8]
 8008534:	8181      	strh	r1, [r0, #12]
 8008536:	6643      	str	r3, [r0, #100]	; 0x64
 8008538:	81c2      	strh	r2, [r0, #14]
 800853a:	6183      	str	r3, [r0, #24]
 800853c:	4619      	mov	r1, r3
 800853e:	2208      	movs	r2, #8
 8008540:	305c      	adds	r0, #92	; 0x5c
 8008542:	f7ff ffcf 	bl	80084e4 <memset>
 8008546:	4b05      	ldr	r3, [pc, #20]	; (800855c <std+0x38>)
 8008548:	6263      	str	r3, [r4, #36]	; 0x24
 800854a:	4b05      	ldr	r3, [pc, #20]	; (8008560 <std+0x3c>)
 800854c:	62a3      	str	r3, [r4, #40]	; 0x28
 800854e:	4b05      	ldr	r3, [pc, #20]	; (8008564 <std+0x40>)
 8008550:	62e3      	str	r3, [r4, #44]	; 0x2c
 8008552:	4b05      	ldr	r3, [pc, #20]	; (8008568 <std+0x44>)
 8008554:	6224      	str	r4, [r4, #32]
 8008556:	6323      	str	r3, [r4, #48]	; 0x30
 8008558:	bd10      	pop	{r4, pc}
 800855a:	bf00      	nop
 800855c:	08008dc5 	.word	0x08008dc5
 8008560:	08008de7 	.word	0x08008de7
 8008564:	08008e1f 	.word	0x08008e1f
 8008568:	08008e43 	.word	0x08008e43

0800856c <_cleanup_r>:
 800856c:	4901      	ldr	r1, [pc, #4]	; (8008574 <_cleanup_r+0x8>)
 800856e:	f000 b8af 	b.w	80086d0 <_fwalk_reent>
 8008572:	bf00      	nop
 8008574:	0800911d 	.word	0x0800911d

08008578 <__sfmoreglue>:
 8008578:	b570      	push	{r4, r5, r6, lr}
 800857a:	1e4a      	subs	r2, r1, #1
 800857c:	2568      	movs	r5, #104	; 0x68
 800857e:	4355      	muls	r5, r2
 8008580:	460e      	mov	r6, r1
 8008582:	f105 0174 	add.w	r1, r5, #116	; 0x74
 8008586:	f000 f8c5 	bl	8008714 <_malloc_r>
 800858a:	4604      	mov	r4, r0
 800858c:	b140      	cbz	r0, 80085a0 <__sfmoreglue+0x28>
 800858e:	2100      	movs	r1, #0
 8008590:	e9c0 1600 	strd	r1, r6, [r0]
 8008594:	300c      	adds	r0, #12
 8008596:	60a0      	str	r0, [r4, #8]
 8008598:	f105 0268 	add.w	r2, r5, #104	; 0x68
 800859c:	f7ff ffa2 	bl	80084e4 <memset>
 80085a0:	4620      	mov	r0, r4
 80085a2:	bd70      	pop	{r4, r5, r6, pc}

080085a4 <__sfp_lock_acquire>:
 80085a4:	4801      	ldr	r0, [pc, #4]	; (80085ac <__sfp_lock_acquire+0x8>)
 80085a6:	f000 b8b3 	b.w	8008710 <__retarget_lock_acquire_recursive>
 80085aa:	bf00      	nop
 80085ac:	20009bb4 	.word	0x20009bb4

080085b0 <__sfp_lock_release>:
 80085b0:	4801      	ldr	r0, [pc, #4]	; (80085b8 <__sfp_lock_release+0x8>)
 80085b2:	f000 b8ae 	b.w	8008712 <__retarget_lock_release_recursive>
 80085b6:	bf00      	nop
 80085b8:	20009bb4 	.word	0x20009bb4

080085bc <__sinit_lock_acquire>:
 80085bc:	4801      	ldr	r0, [pc, #4]	; (80085c4 <__sinit_lock_acquire+0x8>)
 80085be:	f000 b8a7 	b.w	8008710 <__retarget_lock_acquire_recursive>
 80085c2:	bf00      	nop
 80085c4:	20009baf 	.word	0x20009baf

080085c8 <__sinit_lock_release>:
 80085c8:	4801      	ldr	r0, [pc, #4]	; (80085d0 <__sinit_lock_release+0x8>)
 80085ca:	f000 b8a2 	b.w	8008712 <__retarget_lock_release_recursive>
 80085ce:	bf00      	nop
 80085d0:	20009baf 	.word	0x20009baf

080085d4 <__sinit>:
 80085d4:	b510      	push	{r4, lr}
 80085d6:	4604      	mov	r4, r0
 80085d8:	f7ff fff0 	bl	80085bc <__sinit_lock_acquire>
 80085dc:	69a3      	ldr	r3, [r4, #24]
 80085de:	b11b      	cbz	r3, 80085e8 <__sinit+0x14>
 80085e0:	e8bd 4010 	ldmia.w	sp!, {r4, lr}
 80085e4:	f7ff bff0 	b.w	80085c8 <__sinit_lock_release>
 80085e8:	e9c4 3312 	strd	r3, r3, [r4, #72]	; 0x48
 80085ec:	6523      	str	r3, [r4, #80]	; 0x50
 80085ee:	4b13      	ldr	r3, [pc, #76]	; (800863c <__sinit+0x68>)
 80085f0:	4a13      	ldr	r2, [pc, #76]	; (8008640 <__sinit+0x6c>)
 80085f2:	681b      	ldr	r3, [r3, #0]
 80085f4:	62a2      	str	r2, [r4, #40]	; 0x28
 80085f6:	42a3      	cmp	r3, r4
 80085f8:	bf04      	itt	eq
 80085fa:	2301      	moveq	r3, #1
 80085fc:	61a3      	streq	r3, [r4, #24]
 80085fe:	4620      	mov	r0, r4
 8008600:	f000 f820 	bl	8008644 <__sfp>
 8008604:	6060      	str	r0, [r4, #4]
 8008606:	4620      	mov	r0, r4
 8008608:	f000 f81c 	bl	8008644 <__sfp>
 800860c:	60a0      	str	r0, [r4, #8]
 800860e:	4620      	mov	r0, r4
 8008610:	f000 f818 	bl	8008644 <__sfp>
 8008614:	2200      	movs	r2, #0
 8008616:	60e0      	str	r0, [r4, #12]
 8008618:	2104      	movs	r1, #4
 800861a:	6860      	ldr	r0, [r4, #4]
 800861c:	f7ff ff82 	bl	8008524 <std>
 8008620:	68a0      	ldr	r0, [r4, #8]
 8008622:	2201      	movs	r2, #1
 8008624:	2109      	movs	r1, #9
 8008626:	f7ff ff7d 	bl	8008524 <std>
 800862a:	68e0      	ldr	r0, [r4, #12]
 800862c:	2202      	movs	r2, #2
 800862e:	2112      	movs	r1, #18
 8008630:	f7ff ff78 	bl	8008524 <std>
 8008634:	2301      	movs	r3, #1
 8008636:	61a3      	str	r3, [r4, #24]
 8008638:	e7d2      	b.n	80085e0 <__sinit+0xc>
 800863a:	bf00      	nop
 800863c:	080099bc 	.word	0x080099bc
 8008640:	0800856d 	.word	0x0800856d

08008644 <__sfp>:
 8008644:	b5f8      	push	{r3, r4, r5, r6, r7, lr}
 8008646:	4607      	mov	r7, r0
 8008648:	f7ff ffac 	bl	80085a4 <__sfp_lock_acquire>
 800864c:	4b1e      	ldr	r3, [pc, #120]	; (80086c8 <__sfp+0x84>)
 800864e:	681e      	ldr	r6, [r3, #0]
 8008650:	69b3      	ldr	r3, [r6, #24]
 8008652:	b913      	cbnz	r3, 800865a <__sfp+0x16>
 8008654:	4630      	mov	r0, r6
 8008656:	f7ff ffbd 	bl	80085d4 <__sinit>
 800865a:	3648      	adds	r6, #72	; 0x48
 800865c:	e9d6 3401 	ldrd	r3, r4, [r6, #4]
 8008660:	3b01      	subs	r3, #1
 8008662:	d503      	bpl.n	800866c <__sfp+0x28>
 8008664:	6833      	ldr	r3, [r6, #0]
 8008666:	b30b      	cbz	r3, 80086ac <__sfp+0x68>
 8008668:	6836      	ldr	r6, [r6, #0]
 800866a:	e7f7      	b.n	800865c <__sfp+0x18>
 800866c:	f9b4 500c 	ldrsh.w	r5, [r4, #12]
 8008670:	b9d5      	cbnz	r5, 80086a8 <__sfp+0x64>
 8008672:	4b16      	ldr	r3, [pc, #88]	; (80086cc <__sfp+0x88>)
 8008674:	60e3      	str	r3, [r4, #12]
 8008676:	f104 0058 	add.w	r0, r4, #88	; 0x58
 800867a:	6665      	str	r5, [r4, #100]	; 0x64
 800867c:	f000 f847 	bl	800870e <__retarget_lock_init_recursive>
 8008680:	f7ff ff96 	bl	80085b0 <__sfp_lock_release>
 8008684:	e9c4 5501 	strd	r5, r5, [r4, #4]
 8008688:	e9c4 5504 	strd	r5, r5, [r4, #16]
 800868c:	6025      	str	r5, [r4, #0]
 800868e:	61a5      	str	r5, [r4, #24]
 8008690:	2208      	movs	r2, #8
 8008692:	4629      	mov	r1, r5
 8008694:	f104 005c 	add.w	r0, r4, #92	; 0x5c
 8008698:	f7ff ff24 	bl	80084e4 <memset>
 800869c:	e9c4 550d 	strd	r5, r5, [r4, #52]	; 0x34
 80086a0:	e9c4 5512 	strd	r5, r5, [r4, #72]	; 0x48
 80086a4:	4620      	mov	r0, r4
 80086a6:	bdf8      	pop	{r3, r4, r5, r6, r7, pc}
 80086a8:	3468      	adds	r4, #104	; 0x68
 80086aa:	e7d9      	b.n	8008660 <__sfp+0x1c>
 80086ac:	2104      	movs	r1, #4
 80086ae:	4638      	mov	r0, r7
 80086b0:	f7ff ff62 	bl	8008578 <__sfmoreglue>
 80086b4:	4604      	mov	r4, r0
 80086b6:	6030      	str	r0, [r6, #0]
 80086b8:	2800      	cmp	r0, #0
 80086ba:	d1d5      	bne.n	8008668 <__sfp+0x24>
 80086bc:	f7ff ff78 	bl	80085b0 <__sfp_lock_release>
 80086c0:	230c      	movs	r3, #12
 80086c2:	603b      	str	r3, [r7, #0]
 80086c4:	e7ee      	b.n	80086a4 <__sfp+0x60>
 80086c6:	bf00      	nop
 80086c8:	080099bc 	.word	0x080099bc
 80086cc:	ffff0001 	.word	0xffff0001

080086d0 <_fwalk_reent>:
 80086d0:	e92d 43f8 	stmdb	sp!, {r3, r4, r5, r6, r7, r8, r9, lr}
 80086d4:	4606      	mov	r6, r0
 80086d6:	4688      	mov	r8, r1
 80086d8:	f100 0448 	add.w	r4, r0, #72	; 0x48
 80086dc:	2700      	movs	r7, #0
 80086de:	e9d4 9501 	ldrd	r9, r5, [r4, #4]
 80086e2:	f1b9 0901 	subs.w	r9, r9, #1
 80086e6:	d505      	bpl.n	80086f4 <_fwalk_reent+0x24>
 80086e8:	6824      	ldr	r4, [r4, #0]
 80086ea:	2c00      	cmp	r4, #0
 80086ec:	d1f7      	bne.n	80086de <_fwalk_reent+0xe>
 80086ee:	4638      	mov	r0, r7
 80086f0:	e8bd 83f8 	ldmia.w	sp!, {r3, r4, r5, r6, r7, r8, r9, pc}
 80086f4:	89ab      	ldrh	r3, [r5, #12]
 80086f6:	2b01      	cmp	r3, #1
 80086f8:	d907      	bls.n	800870a <_fwalk_reent+0x3a>
 80086fa:	f9b5 300e 	ldrsh.w	r3, [r5, #14]
 80086fe:	3301      	adds	r3, #1
 8008700:	d003      	beq.n	800870a <_fwalk_reent+0x3a>
 8008702:	4629      	mov	r1, r5
 8008704:	4630      	mov	r0, r6
 8008706:	47c0      	blx	r8
 8008708:	4307      	orrs	r7, r0
 800870a:	3568      	adds	r5, #104	; 0x68
 800870c:	e7e9      	b.n	80086e2 <_fwalk_reent+0x12>

0800870e <__retarget_lock_init_recursive>:
 800870e:	4770      	bx	lr

08008710 <__retarget_lock_acquire_recursive>:
 8008710:	4770      	bx	lr

08008712 <__retarget_lock_release_recursive>:
 8008712:	4770      	bx	lr

08008714 <_malloc_r>:
 8008714:	b5f8      	push	{r3, r4, r5, r6, r7, lr}
 8008716:	1ccd      	adds	r5, r1, #3
 8008718:	f025 0503 	bic.w	r5, r5, #3
 800871c:	3508      	adds	r5, #8
 800871e:	2d0c      	cmp	r5, #12
 8008720:	bf38      	it	cc
 8008722:	250c      	movcc	r5, #12
 8008724:	2d00      	cmp	r5, #0
 8008726:	4606      	mov	r6, r0
 8008728:	db01      	blt.n	800872e <_malloc_r+0x1a>
 800872a:	42a9      	cmp	r1, r5
 800872c:	d903      	bls.n	8008736 <_malloc_r+0x22>
 800872e:	230c      	movs	r3, #12
 8008730:	6033      	str	r3, [r6, #0]
 8008732:	2000      	movs	r0, #0
 8008734:	bdf8      	pop	{r3, r4, r5, r6, r7, pc}
 8008736:	f000 fda3 	bl	8009280 <__malloc_lock>
 800873a:	4921      	ldr	r1, [pc, #132]	; (80087c0 <_malloc_r+0xac>)
 800873c:	680a      	ldr	r2, [r1, #0]
 800873e:	4614      	mov	r4, r2
 8008740:	b99c      	cbnz	r4, 800876a <_malloc_r+0x56>
 8008742:	4f20      	ldr	r7, [pc, #128]	; (80087c4 <_malloc_r+0xb0>)
 8008744:	683b      	ldr	r3, [r7, #0]
 8008746:	b923      	cbnz	r3, 8008752 <_malloc_r+0x3e>
 8008748:	4621      	mov	r1, r4
 800874a:	4630      	mov	r0, r6
 800874c:	f000 fb2a 	bl	8008da4 <_sbrk_r>
 8008750:	6038      	str	r0, [r7, #0]
 8008752:	4629      	mov	r1, r5
 8008754:	4630      	mov	r0, r6
 8008756:	f000 fb25 	bl	8008da4 <_sbrk_r>
 800875a:	1c43      	adds	r3, r0, #1
 800875c:	d123      	bne.n	80087a6 <_malloc_r+0x92>
 800875e:	230c      	movs	r3, #12
 8008760:	6033      	str	r3, [r6, #0]
 8008762:	4630      	mov	r0, r6
 8008764:	f000 fd92 	bl	800928c <__malloc_unlock>
 8008768:	e7e3      	b.n	8008732 <_malloc_r+0x1e>
 800876a:	6823      	ldr	r3, [r4, #0]
 800876c:	1b5b      	subs	r3, r3, r5
 800876e:	d417      	bmi.n	80087a0 <_malloc_r+0x8c>
 8008770:	2b0b      	cmp	r3, #11
 8008772:	d903      	bls.n	800877c <_malloc_r+0x68>
 8008774:	6023      	str	r3, [r4, #0]
 8008776:	441c      	add	r4, r3
 8008778:	6025      	str	r5, [r4, #0]
 800877a:	e004      	b.n	8008786 <_malloc_r+0x72>
 800877c:	6863      	ldr	r3, [r4, #4]
 800877e:	42a2      	cmp	r2, r4
 8008780:	bf0c      	ite	eq
 8008782:	600b      	streq	r3, [r1, #0]
 8008784:	6053      	strne	r3, [r2, #4]
 8008786:	4630      	mov	r0, r6
 8008788:	f000 fd80 	bl	800928c <__malloc_unlock>
 800878c:	f104 000b 	add.w	r0, r4, #11
 8008790:	1d23      	adds	r3, r4, #4
 8008792:	f020 0007 	bic.w	r0, r0, #7
 8008796:	1ac2      	subs	r2, r0, r3
 8008798:	d0cc      	beq.n	8008734 <_malloc_r+0x20>
 800879a:	1a1b      	subs	r3, r3, r0
 800879c:	50a3      	str	r3, [r4, r2]
 800879e:	e7c9      	b.n	8008734 <_malloc_r+0x20>
 80087a0:	4622      	mov	r2, r4
 80087a2:	6864      	ldr	r4, [r4, #4]
 80087a4:	e7cc      	b.n	8008740 <_malloc_r+0x2c>
 80087a6:	1cc4      	adds	r4, r0, #3
 80087a8:	f024 0403 	bic.w	r4, r4, #3
 80087ac:	42a0      	cmp	r0, r4
 80087ae:	d0e3      	beq.n	8008778 <_malloc_r+0x64>
 80087b0:	1a21      	subs	r1, r4, r0
 80087b2:	4630      	mov	r0, r6
 80087b4:	f000 faf6 	bl	8008da4 <_sbrk_r>
 80087b8:	3001      	adds	r0, #1
 80087ba:	d1dd      	bne.n	8008778 <_malloc_r+0x64>
 80087bc:	e7cf      	b.n	800875e <_malloc_r+0x4a>
 80087be:	bf00      	nop
 80087c0:	20009884 	.word	0x20009884
 80087c4:	20009888 	.word	0x20009888

080087c8 <__sfputc_r>:
 80087c8:	6893      	ldr	r3, [r2, #8]
 80087ca:	3b01      	subs	r3, #1
 80087cc:	2b00      	cmp	r3, #0
 80087ce:	b410      	push	{r4}
 80087d0:	6093      	str	r3, [r2, #8]
 80087d2:	da08      	bge.n	80087e6 <__sfputc_r+0x1e>
 80087d4:	6994      	ldr	r4, [r2, #24]
 80087d6:	42a3      	cmp	r3, r4
 80087d8:	db01      	blt.n	80087de <__sfputc_r+0x16>
 80087da:	290a      	cmp	r1, #10
 80087dc:	d103      	bne.n	80087e6 <__sfputc_r+0x1e>
 80087de:	f85d 4b04 	ldr.w	r4, [sp], #4
 80087e2:	f000 bb33 	b.w	8008e4c <__swbuf_r>
 80087e6:	6813      	ldr	r3, [r2, #0]
 80087e8:	1c58      	adds	r0, r3, #1
 80087ea:	6010      	str	r0, [r2, #0]
 80087ec:	7019      	strb	r1, [r3, #0]
 80087ee:	4608      	mov	r0, r1
 80087f0:	f85d 4b04 	ldr.w	r4, [sp], #4
 80087f4:	4770      	bx	lr

080087f6 <__sfputs_r>:
 80087f6:	b5f8      	push	{r3, r4, r5, r6, r7, lr}
 80087f8:	4606      	mov	r6, r0
 80087fa:	460f      	mov	r7, r1
 80087fc:	4614      	mov	r4, r2
 80087fe:	18d5      	adds	r5, r2, r3
 8008800:	42ac      	cmp	r4, r5
 8008802:	d101      	bne.n	8008808 <__sfputs_r+0x12>
 8008804:	2000      	movs	r0, #0
 8008806:	e007      	b.n	8008818 <__sfputs_r+0x22>
 8008808:	f814 1b01 	ldrb.w	r1, [r4], #1
 800880c:	463a      	mov	r2, r7
 800880e:	4630      	mov	r0, r6
 8008810:	f7ff ffda 	bl	80087c8 <__sfputc_r>
 8008814:	1c43      	adds	r3, r0, #1
 8008816:	d1f3      	bne.n	8008800 <__sfputs_r+0xa>
 8008818:	bdf8      	pop	{r3, r4, r5, r6, r7, pc}
	...

0800881c <_vfiprintf_r>:
 800881c:	e92d 4ff0 	stmdb	sp!, {r4, r5, r6, r7, r8, r9, sl, fp, lr}
 8008820:	460d      	mov	r5, r1
 8008822:	b09d      	sub	sp, #116	; 0x74
 8008824:	4614      	mov	r4, r2
 8008826:	4698      	mov	r8, r3
 8008828:	4606      	mov	r6, r0
 800882a:	b118      	cbz	r0, 8008834 <_vfiprintf_r+0x18>
 800882c:	6983      	ldr	r3, [r0, #24]
 800882e:	b90b      	cbnz	r3, 8008834 <_vfiprintf_r+0x18>
 8008830:	f7ff fed0 	bl	80085d4 <__sinit>
 8008834:	4b89      	ldr	r3, [pc, #548]	; (8008a5c <_vfiprintf_r+0x240>)
 8008836:	429d      	cmp	r5, r3
 8008838:	d11b      	bne.n	8008872 <_vfiprintf_r+0x56>
 800883a:	6875      	ldr	r5, [r6, #4]
 800883c:	6e6b      	ldr	r3, [r5, #100]	; 0x64
 800883e:	07d9      	lsls	r1, r3, #31
 8008840:	d405      	bmi.n	800884e <_vfiprintf_r+0x32>
 8008842:	89ab      	ldrh	r3, [r5, #12]
 8008844:	059a      	lsls	r2, r3, #22
 8008846:	d402      	bmi.n	800884e <_vfiprintf_r+0x32>
 8008848:	6da8      	ldr	r0, [r5, #88]	; 0x58
 800884a:	f7ff ff61 	bl	8008710 <__retarget_lock_acquire_recursive>
 800884e:	89ab      	ldrh	r3, [r5, #12]
 8008850:	071b      	lsls	r3, r3, #28
 8008852:	d501      	bpl.n	8008858 <_vfiprintf_r+0x3c>
 8008854:	692b      	ldr	r3, [r5, #16]
 8008856:	b9eb      	cbnz	r3, 8008894 <_vfiprintf_r+0x78>
 8008858:	4629      	mov	r1, r5
 800885a:	4630      	mov	r0, r6
 800885c:	f000 fb5a 	bl	8008f14 <__swsetup_r>
 8008860:	b1c0      	cbz	r0, 8008894 <_vfiprintf_r+0x78>
 8008862:	6e6b      	ldr	r3, [r5, #100]	; 0x64
 8008864:	07dc      	lsls	r4, r3, #31
 8008866:	d50e      	bpl.n	8008886 <_vfiprintf_r+0x6a>
 8008868:	f04f 30ff 	mov.w	r0, #4294967295
 800886c:	b01d      	add	sp, #116	; 0x74
 800886e:	e8bd 8ff0 	ldmia.w	sp!, {r4, r5, r6, r7, r8, r9, sl, fp, pc}
 8008872:	4b7b      	ldr	r3, [pc, #492]	; (8008a60 <_vfiprintf_r+0x244>)
 8008874:	429d      	cmp	r5, r3
 8008876:	d101      	bne.n	800887c <_vfiprintf_r+0x60>
 8008878:	68b5      	ldr	r5, [r6, #8]
 800887a:	e7df      	b.n	800883c <_vfiprintf_r+0x20>
 800887c:	4b79      	ldr	r3, [pc, #484]	; (8008a64 <_vfiprintf_r+0x248>)
 800887e:	429d      	cmp	r5, r3
 8008880:	bf08      	it	eq
 8008882:	68f5      	ldreq	r5, [r6, #12]
 8008884:	e7da      	b.n	800883c <_vfiprintf_r+0x20>
 8008886:	89ab      	ldrh	r3, [r5, #12]
 8008888:	0598      	lsls	r0, r3, #22
 800888a:	d4ed      	bmi.n	8008868 <_vfiprintf_r+0x4c>
 800888c:	6da8      	ldr	r0, [r5, #88]	; 0x58
 800888e:	f7ff ff40 	bl	8008712 <__retarget_lock_release_recursive>
 8008892:	e7e9      	b.n	8008868 <_vfiprintf_r+0x4c>
 8008894:	2300      	movs	r3, #0
 8008896:	9309      	str	r3, [sp, #36]	; 0x24
 8008898:	2320      	movs	r3, #32
 800889a:	f88d 3029 	strb.w	r3, [sp, #41]	; 0x29
 800889e:	f8cd 800c 	str.w	r8, [sp, #12]
 80088a2:	2330      	movs	r3, #48	; 0x30
 80088a4:	f8df 81c0 	ldr.w	r8, [pc, #448]	; 8008a68 <_vfiprintf_r+0x24c>
 80088a8:	f88d 302a 	strb.w	r3, [sp, #42]	; 0x2a
 80088ac:	f04f 0901 	mov.w	r9, #1
 80088b0:	4623      	mov	r3, r4
 80088b2:	469a      	mov	sl, r3
 80088b4:	f813 2b01 	ldrb.w	r2, [r3], #1
 80088b8:	b10a      	cbz	r2, 80088be <_vfiprintf_r+0xa2>
 80088ba:	2a25      	cmp	r2, #37	; 0x25
 80088bc:	d1f9      	bne.n	80088b2 <_vfiprintf_r+0x96>
 80088be:	ebba 0b04 	subs.w	fp, sl, r4
 80088c2:	d00b      	beq.n	80088dc <_vfiprintf_r+0xc0>
 80088c4:	465b      	mov	r3, fp
 80088c6:	4622      	mov	r2, r4
 80088c8:	4629      	mov	r1, r5
 80088ca:	4630      	mov	r0, r6
 80088cc:	f7ff ff93 	bl	80087f6 <__sfputs_r>
 80088d0:	3001      	adds	r0, #1
 80088d2:	f000 80aa 	beq.w	8008a2a <_vfiprintf_r+0x20e>
 80088d6:	9a09      	ldr	r2, [sp, #36]	; 0x24
 80088d8:	445a      	add	r2, fp
 80088da:	9209      	str	r2, [sp, #36]	; 0x24
 80088dc:	f89a 3000 	ldrb.w	r3, [sl]
 80088e0:	2b00      	cmp	r3, #0
 80088e2:	f000 80a2 	beq.w	8008a2a <_vfiprintf_r+0x20e>
 80088e6:	2300      	movs	r3, #0
 80088e8:	f04f 32ff 	mov.w	r2, #4294967295
 80088ec:	e9cd 2305 	strd	r2, r3, [sp, #20]
 80088f0:	f10a 0a01 	add.w	sl, sl, #1
 80088f4:	9304      	str	r3, [sp, #16]
 80088f6:	9307      	str	r3, [sp, #28]
 80088f8:	f88d 3053 	strb.w	r3, [sp, #83]	; 0x53
 80088fc:	931a      	str	r3, [sp, #104]	; 0x68
 80088fe:	4654      	mov	r4, sl
 8008900:	2205      	movs	r2, #5
 8008902:	f814 1b01 	ldrb.w	r1, [r4], #1
 8008906:	4858      	ldr	r0, [pc, #352]	; (8008a68 <_vfiprintf_r+0x24c>)
 8008908:	f7f7 fc6a 	bl	80001e0 <memchr>
 800890c:	9a04      	ldr	r2, [sp, #16]
 800890e:	b9d8      	cbnz	r0, 8008948 <_vfiprintf_r+0x12c>
 8008910:	06d1      	lsls	r1, r2, #27
 8008912:	bf44      	itt	mi
 8008914:	2320      	movmi	r3, #32
 8008916:	f88d 3053 	strbmi.w	r3, [sp, #83]	; 0x53
 800891a:	0713      	lsls	r3, r2, #28
 800891c:	bf44      	itt	mi
 800891e:	232b      	movmi	r3, #43	; 0x2b
 8008920:	f88d 3053 	strbmi.w	r3, [sp, #83]	; 0x53
 8008924:	f89a 3000 	ldrb.w	r3, [sl]
 8008928:	2b2a      	cmp	r3, #42	; 0x2a
 800892a:	d015      	beq.n	8008958 <_vfiprintf_r+0x13c>
 800892c:	9a07      	ldr	r2, [sp, #28]
 800892e:	4654      	mov	r4, sl
 8008930:	2000      	movs	r0, #0
 8008932:	f04f 0c0a 	mov.w	ip, #10
 8008936:	4621      	mov	r1, r4
 8008938:	f811 3b01 	ldrb.w	r3, [r1], #1
 800893c:	3b30      	subs	r3, #48	; 0x30
 800893e:	2b09      	cmp	r3, #9
 8008940:	d94e      	bls.n	80089e0 <_vfiprintf_r+0x1c4>
 8008942:	b1b0      	cbz	r0, 8008972 <_vfiprintf_r+0x156>
 8008944:	9207      	str	r2, [sp, #28]
 8008946:	e014      	b.n	8008972 <_vfiprintf_r+0x156>
 8008948:	eba0 0308 	sub.w	r3, r0, r8
 800894c:	fa09 f303 	lsl.w	r3, r9, r3
 8008950:	4313      	orrs	r3, r2
 8008952:	9304      	str	r3, [sp, #16]
 8008954:	46a2      	mov	sl, r4
 8008956:	e7d2      	b.n	80088fe <_vfiprintf_r+0xe2>
 8008958:	9b03      	ldr	r3, [sp, #12]
 800895a:	1d19      	adds	r1, r3, #4
 800895c:	681b      	ldr	r3, [r3, #0]
 800895e:	9103      	str	r1, [sp, #12]
 8008960:	2b00      	cmp	r3, #0
 8008962:	bfbb      	ittet	lt
 8008964:	425b      	neglt	r3, r3
 8008966:	f042 0202 	orrlt.w	r2, r2, #2
 800896a:	9307      	strge	r3, [sp, #28]
 800896c:	9307      	strlt	r3, [sp, #28]
 800896e:	bfb8      	it	lt
 8008970:	9204      	strlt	r2, [sp, #16]
 8008972:	7823      	ldrb	r3, [r4, #0]
 8008974:	2b2e      	cmp	r3, #46	; 0x2e
 8008976:	d10c      	bne.n	8008992 <_vfiprintf_r+0x176>
 8008978:	7863      	ldrb	r3, [r4, #1]
 800897a:	2b2a      	cmp	r3, #42	; 0x2a
 800897c:	d135      	bne.n	80089ea <_vfiprintf_r+0x1ce>
 800897e:	9b03      	ldr	r3, [sp, #12]
 8008980:	1d1a      	adds	r2, r3, #4
 8008982:	681b      	ldr	r3, [r3, #0]
 8008984:	9203      	str	r2, [sp, #12]
 8008986:	2b00      	cmp	r3, #0
 8008988:	bfb8      	it	lt
 800898a:	f04f 33ff 	movlt.w	r3, #4294967295
 800898e:	3402      	adds	r4, #2
 8008990:	9305      	str	r3, [sp, #20]
 8008992:	f8df a0e4 	ldr.w	sl, [pc, #228]	; 8008a78 <_vfiprintf_r+0x25c>
 8008996:	7821      	ldrb	r1, [r4, #0]
 8008998:	2203      	movs	r2, #3
 800899a:	4650      	mov	r0, sl
 800899c:	f7f7 fc20 	bl	80001e0 <memchr>
 80089a0:	b140      	cbz	r0, 80089b4 <_vfiprintf_r+0x198>
 80089a2:	2340      	movs	r3, #64	; 0x40
 80089a4:	eba0 000a 	sub.w	r0, r0, sl
 80089a8:	fa03 f000 	lsl.w	r0, r3, r0
 80089ac:	9b04      	ldr	r3, [sp, #16]
 80089ae:	4303      	orrs	r3, r0
 80089b0:	3401      	adds	r4, #1
 80089b2:	9304      	str	r3, [sp, #16]
 80089b4:	f814 1b01 	ldrb.w	r1, [r4], #1
 80089b8:	482c      	ldr	r0, [pc, #176]	; (8008a6c <_vfiprintf_r+0x250>)
 80089ba:	f88d 1028 	strb.w	r1, [sp, #40]	; 0x28
 80089be:	2206      	movs	r2, #6
 80089c0:	f7f7 fc0e 	bl	80001e0 <memchr>
 80089c4:	2800      	cmp	r0, #0
 80089c6:	d03f      	beq.n	8008a48 <_vfiprintf_r+0x22c>
 80089c8:	4b29      	ldr	r3, [pc, #164]	; (8008a70 <_vfiprintf_r+0x254>)
 80089ca:	bb1b      	cbnz	r3, 8008a14 <_vfiprintf_r+0x1f8>
 80089cc:	9b03      	ldr	r3, [sp, #12]
 80089ce:	3307      	adds	r3, #7
 80089d0:	f023 0307 	bic.w	r3, r3, #7
 80089d4:	3308      	adds	r3, #8
 80089d6:	9303      	str	r3, [sp, #12]
 80089d8:	9b09      	ldr	r3, [sp, #36]	; 0x24
 80089da:	443b      	add	r3, r7
 80089dc:	9309      	str	r3, [sp, #36]	; 0x24
 80089de:	e767      	b.n	80088b0 <_vfiprintf_r+0x94>
 80089e0:	fb0c 3202 	mla	r2, ip, r2, r3
 80089e4:	460c      	mov	r4, r1
 80089e6:	2001      	movs	r0, #1
 80089e8:	e7a5      	b.n	8008936 <_vfiprintf_r+0x11a>
 80089ea:	2300      	movs	r3, #0
 80089ec:	3401      	adds	r4, #1
 80089ee:	9305      	str	r3, [sp, #20]
 80089f0:	4619      	mov	r1, r3
 80089f2:	f04f 0c0a 	mov.w	ip, #10
 80089f6:	4620      	mov	r0, r4
 80089f8:	f810 2b01 	ldrb.w	r2, [r0], #1
 80089fc:	3a30      	subs	r2, #48	; 0x30
 80089fe:	2a09      	cmp	r2, #9
 8008a00:	d903      	bls.n	8008a0a <_vfiprintf_r+0x1ee>
 8008a02:	2b00      	cmp	r3, #0
 8008a04:	d0c5      	beq.n	8008992 <_vfiprintf_r+0x176>
 8008a06:	9105      	str	r1, [sp, #20]
 8008a08:	e7c3      	b.n	8008992 <_vfiprintf_r+0x176>
 8008a0a:	fb0c 2101 	mla	r1, ip, r1, r2
 8008a0e:	4604      	mov	r4, r0
 8008a10:	2301      	movs	r3, #1
 8008a12:	e7f0      	b.n	80089f6 <_vfiprintf_r+0x1da>
 8008a14:	ab03      	add	r3, sp, #12
 8008a16:	9300      	str	r3, [sp, #0]
 8008a18:	462a      	mov	r2, r5
 8008a1a:	4b16      	ldr	r3, [pc, #88]	; (8008a74 <_vfiprintf_r+0x258>)
 8008a1c:	a904      	add	r1, sp, #16
 8008a1e:	4630      	mov	r0, r6
 8008a20:	f3af 8000 	nop.w
 8008a24:	4607      	mov	r7, r0
 8008a26:	1c78      	adds	r0, r7, #1
 8008a28:	d1d6      	bne.n	80089d8 <_vfiprintf_r+0x1bc>
 8008a2a:	6e6b      	ldr	r3, [r5, #100]	; 0x64
 8008a2c:	07d9      	lsls	r1, r3, #31
 8008a2e:	d405      	bmi.n	8008a3c <_vfiprintf_r+0x220>
 8008a30:	89ab      	ldrh	r3, [r5, #12]
 8008a32:	059a      	lsls	r2, r3, #22
 8008a34:	d402      	bmi.n	8008a3c <_vfiprintf_r+0x220>
 8008a36:	6da8      	ldr	r0, [r5, #88]	; 0x58
 8008a38:	f7ff fe6b 	bl	8008712 <__retarget_lock_release_recursive>
 8008a3c:	89ab      	ldrh	r3, [r5, #12]
 8008a3e:	065b      	lsls	r3, r3, #25
 8008a40:	f53f af12 	bmi.w	8008868 <_vfiprintf_r+0x4c>
 8008a44:	9809      	ldr	r0, [sp, #36]	; 0x24
 8008a46:	e711      	b.n	800886c <_vfiprintf_r+0x50>
 8008a48:	ab03      	add	r3, sp, #12
 8008a4a:	9300      	str	r3, [sp, #0]
 8008a4c:	462a      	mov	r2, r5
 8008a4e:	4b09      	ldr	r3, [pc, #36]	; (8008a74 <_vfiprintf_r+0x258>)
 8008a50:	a904      	add	r1, sp, #16
 8008a52:	4630      	mov	r0, r6
 8008a54:	f000 f880 	bl	8008b58 <_printf_i>
 8008a58:	e7e4      	b.n	8008a24 <_vfiprintf_r+0x208>
 8008a5a:	bf00      	nop
 8008a5c:	080099e0 	.word	0x080099e0
 8008a60:	08009a00 	.word	0x08009a00
 8008a64:	080099c0 	.word	0x080099c0
 8008a68:	08009a20 	.word	0x08009a20
 8008a6c:	08009a2a 	.word	0x08009a2a
 8008a70:	00000000 	.word	0x00000000
 8008a74:	080087f7 	.word	0x080087f7
 8008a78:	08009a26 	.word	0x08009a26

08008a7c <_printf_common>:
 8008a7c:	e92d 47f0 	stmdb	sp!, {r4, r5, r6, r7, r8, r9, sl, lr}
 8008a80:	4616      	mov	r6, r2
 8008a82:	4699      	mov	r9, r3
 8008a84:	688a      	ldr	r2, [r1, #8]
 8008a86:	690b      	ldr	r3, [r1, #16]
 8008a88:	f8dd 8020 	ldr.w	r8, [sp, #32]
 8008a8c:	4293      	cmp	r3, r2
 8008a8e:	bfb8      	it	lt
 8008a90:	4613      	movlt	r3, r2
 8008a92:	6033      	str	r3, [r6, #0]
 8008a94:	f891 2043 	ldrb.w	r2, [r1, #67]	; 0x43
 8008a98:	4607      	mov	r7, r0
 8008a9a:	460c      	mov	r4, r1
 8008a9c:	b10a      	cbz	r2, 8008aa2 <_printf_common+0x26>
 8008a9e:	3301      	adds	r3, #1
 8008aa0:	6033      	str	r3, [r6, #0]
 8008aa2:	6823      	ldr	r3, [r4, #0]
 8008aa4:	0699      	lsls	r1, r3, #26
 8008aa6:	bf42      	ittt	mi
 8008aa8:	6833      	ldrmi	r3, [r6, #0]
 8008aaa:	3302      	addmi	r3, #2
 8008aac:	6033      	strmi	r3, [r6, #0]
 8008aae:	6825      	ldr	r5, [r4, #0]
 8008ab0:	f015 0506 	ands.w	r5, r5, #6
 8008ab4:	d106      	bne.n	8008ac4 <_printf_common+0x48>
 8008ab6:	f104 0a19 	add.w	sl, r4, #25
 8008aba:	68e3      	ldr	r3, [r4, #12]
 8008abc:	6832      	ldr	r2, [r6, #0]
 8008abe:	1a9b      	subs	r3, r3, r2
 8008ac0:	42ab      	cmp	r3, r5
 8008ac2:	dc26      	bgt.n	8008b12 <_printf_common+0x96>
 8008ac4:	f894 2043 	ldrb.w	r2, [r4, #67]	; 0x43
 8008ac8:	1e13      	subs	r3, r2, #0
 8008aca:	6822      	ldr	r2, [r4, #0]
 8008acc:	bf18      	it	ne
 8008ace:	2301      	movne	r3, #1
 8008ad0:	0692      	lsls	r2, r2, #26
 8008ad2:	d42b      	bmi.n	8008b2c <_printf_common+0xb0>
 8008ad4:	f104 0243 	add.w	r2, r4, #67	; 0x43
 8008ad8:	4649      	mov	r1, r9
 8008ada:	4638      	mov	r0, r7
 8008adc:	47c0      	blx	r8
 8008ade:	3001      	adds	r0, #1
 8008ae0:	d01e      	beq.n	8008b20 <_printf_common+0xa4>
 8008ae2:	6823      	ldr	r3, [r4, #0]
 8008ae4:	68e5      	ldr	r5, [r4, #12]
 8008ae6:	6832      	ldr	r2, [r6, #0]
 8008ae8:	f003 0306 	and.w	r3, r3, #6
 8008aec:	2b04      	cmp	r3, #4
 8008aee:	bf08      	it	eq
 8008af0:	1aad      	subeq	r5, r5, r2
 8008af2:	68a3      	ldr	r3, [r4, #8]
 8008af4:	6922      	ldr	r2, [r4, #16]
 8008af6:	bf0c      	ite	eq
 8008af8:	ea25 75e5 	biceq.w	r5, r5, r5, asr #31
 8008afc:	2500      	movne	r5, #0
 8008afe:	4293      	cmp	r3, r2
 8008b00:	bfc4      	itt	gt
 8008b02:	1a9b      	subgt	r3, r3, r2
 8008b04:	18ed      	addgt	r5, r5, r3
 8008b06:	2600      	movs	r6, #0
 8008b08:	341a      	adds	r4, #26
 8008b0a:	42b5      	cmp	r5, r6
 8008b0c:	d11a      	bne.n	8008b44 <_printf_common+0xc8>
 8008b0e:	2000      	movs	r0, #0
 8008b10:	e008      	b.n	8008b24 <_printf_common+0xa8>
 8008b12:	2301      	movs	r3, #1
 8008b14:	4652      	mov	r2, sl
 8008b16:	4649      	mov	r1, r9
 8008b18:	4638      	mov	r0, r7
 8008b1a:	47c0      	blx	r8
 8008b1c:	3001      	adds	r0, #1
 8008b1e:	d103      	bne.n	8008b28 <_printf_common+0xac>
 8008b20:	f04f 30ff 	mov.w	r0, #4294967295
 8008b24:	e8bd 87f0 	ldmia.w	sp!, {r4, r5, r6, r7, r8, r9, sl, pc}
 8008b28:	3501      	adds	r5, #1
 8008b2a:	e7c6      	b.n	8008aba <_printf_common+0x3e>
 8008b2c:	18e1      	adds	r1, r4, r3
 8008b2e:	1c5a      	adds	r2, r3, #1
 8008b30:	2030      	movs	r0, #48	; 0x30
 8008b32:	f881 0043 	strb.w	r0, [r1, #67]	; 0x43
 8008b36:	4422      	add	r2, r4
 8008b38:	f894 1045 	ldrb.w	r1, [r4, #69]	; 0x45
 8008b3c:	f882 1043 	strb.w	r1, [r2, #67]	; 0x43
 8008b40:	3302      	adds	r3, #2
 8008b42:	e7c7      	b.n	8008ad4 <_printf_common+0x58>
 8008b44:	2301      	movs	r3, #1
 8008b46:	4622      	mov	r2, r4
 8008b48:	4649      	mov	r1, r9
 8008b4a:	4638      	mov	r0, r7
 8008b4c:	47c0      	blx	r8
 8008b4e:	3001      	adds	r0, #1
 8008b50:	d0e6      	beq.n	8008b20 <_printf_common+0xa4>
 8008b52:	3601      	adds	r6, #1
 8008b54:	e7d9      	b.n	8008b0a <_printf_common+0x8e>
	...

08008b58 <_printf_i>:
 8008b58:	e92d 47ff 	stmdb	sp!, {r0, r1, r2, r3, r4, r5, r6, r7, r8, r9, sl, lr}
 8008b5c:	460c      	mov	r4, r1
 8008b5e:	4691      	mov	r9, r2
 8008b60:	7e27      	ldrb	r7, [r4, #24]
 8008b62:	990c      	ldr	r1, [sp, #48]	; 0x30
 8008b64:	2f78      	cmp	r7, #120	; 0x78
 8008b66:	4680      	mov	r8, r0
 8008b68:	469a      	mov	sl, r3
 8008b6a:	f104 0243 	add.w	r2, r4, #67	; 0x43
 8008b6e:	d807      	bhi.n	8008b80 <_printf_i+0x28>
 8008b70:	2f62      	cmp	r7, #98	; 0x62
 8008b72:	d80a      	bhi.n	8008b8a <_printf_i+0x32>
 8008b74:	2f00      	cmp	r7, #0
 8008b76:	f000 80d8 	beq.w	8008d2a <_printf_i+0x1d2>
 8008b7a:	2f58      	cmp	r7, #88	; 0x58
 8008b7c:	f000 80a3 	beq.w	8008cc6 <_printf_i+0x16e>
 8008b80:	f104 0642 	add.w	r6, r4, #66	; 0x42
 8008b84:	f884 7042 	strb.w	r7, [r4, #66]	; 0x42
 8008b88:	e03a      	b.n	8008c00 <_printf_i+0xa8>
 8008b8a:	f1a7 0363 	sub.w	r3, r7, #99	; 0x63
 8008b8e:	2b15      	cmp	r3, #21
 8008b90:	d8f6      	bhi.n	8008b80 <_printf_i+0x28>
 8008b92:	a001      	add	r0, pc, #4	; (adr r0, 8008b98 <_printf_i+0x40>)
 8008b94:	f850 f023 	ldr.w	pc, [r0, r3, lsl #2]
 8008b98:	08008bf1 	.word	0x08008bf1
 8008b9c:	08008c05 	.word	0x08008c05
 8008ba0:	08008b81 	.word	0x08008b81
 8008ba4:	08008b81 	.word	0x08008b81
 8008ba8:	08008b81 	.word	0x08008b81
 8008bac:	08008b81 	.word	0x08008b81
 8008bb0:	08008c05 	.word	0x08008c05
 8008bb4:	08008b81 	.word	0x08008b81
 8008bb8:	08008b81 	.word	0x08008b81
 8008bbc:	08008b81 	.word	0x08008b81
 8008bc0:	08008b81 	.word	0x08008b81
 8008bc4:	08008d11 	.word	0x08008d11
 8008bc8:	08008c35 	.word	0x08008c35
 8008bcc:	08008cf3 	.word	0x08008cf3
 8008bd0:	08008b81 	.word	0x08008b81
 8008bd4:	08008b81 	.word	0x08008b81
 8008bd8:	08008d33 	.word	0x08008d33
 8008bdc:	08008b81 	.word	0x08008b81
 8008be0:	08008c35 	.word	0x08008c35
 8008be4:	08008b81 	.word	0x08008b81
 8008be8:	08008b81 	.word	0x08008b81
 8008bec:	08008cfb 	.word	0x08008cfb
 8008bf0:	680b      	ldr	r3, [r1, #0]
 8008bf2:	1d1a      	adds	r2, r3, #4
 8008bf4:	681b      	ldr	r3, [r3, #0]
 8008bf6:	600a      	str	r2, [r1, #0]
 8008bf8:	f104 0642 	add.w	r6, r4, #66	; 0x42
 8008bfc:	f884 3042 	strb.w	r3, [r4, #66]	; 0x42
 8008c00:	2301      	movs	r3, #1
 8008c02:	e0a3      	b.n	8008d4c <_printf_i+0x1f4>
 8008c04:	6825      	ldr	r5, [r4, #0]
 8008c06:	6808      	ldr	r0, [r1, #0]
 8008c08:	062e      	lsls	r6, r5, #24
 8008c0a:	f100 0304 	add.w	r3, r0, #4
 8008c0e:	d50a      	bpl.n	8008c26 <_printf_i+0xce>
 8008c10:	6805      	ldr	r5, [r0, #0]
 8008c12:	600b      	str	r3, [r1, #0]
 8008c14:	2d00      	cmp	r5, #0
 8008c16:	da03      	bge.n	8008c20 <_printf_i+0xc8>
 8008c18:	232d      	movs	r3, #45	; 0x2d
 8008c1a:	426d      	negs	r5, r5
 8008c1c:	f884 3043 	strb.w	r3, [r4, #67]	; 0x43
 8008c20:	485e      	ldr	r0, [pc, #376]	; (8008d9c <_printf_i+0x244>)
 8008c22:	230a      	movs	r3, #10
 8008c24:	e019      	b.n	8008c5a <_printf_i+0x102>
 8008c26:	f015 0f40 	tst.w	r5, #64	; 0x40
 8008c2a:	6805      	ldr	r5, [r0, #0]
 8008c2c:	600b      	str	r3, [r1, #0]
 8008c2e:	bf18      	it	ne
 8008c30:	b22d      	sxthne	r5, r5
 8008c32:	e7ef      	b.n	8008c14 <_printf_i+0xbc>
 8008c34:	680b      	ldr	r3, [r1, #0]
 8008c36:	6825      	ldr	r5, [r4, #0]
 8008c38:	1d18      	adds	r0, r3, #4
 8008c3a:	6008      	str	r0, [r1, #0]
 8008c3c:	0628      	lsls	r0, r5, #24
 8008c3e:	d501      	bpl.n	8008c44 <_printf_i+0xec>
 8008c40:	681d      	ldr	r5, [r3, #0]
 8008c42:	e002      	b.n	8008c4a <_printf_i+0xf2>
 8008c44:	0669      	lsls	r1, r5, #25
 8008c46:	d5fb      	bpl.n	8008c40 <_printf_i+0xe8>
 8008c48:	881d      	ldrh	r5, [r3, #0]
 8008c4a:	4854      	ldr	r0, [pc, #336]	; (8008d9c <_printf_i+0x244>)
 8008c4c:	2f6f      	cmp	r7, #111	; 0x6f
 8008c4e:	bf0c      	ite	eq
 8008c50:	2308      	moveq	r3, #8
 8008c52:	230a      	movne	r3, #10
 8008c54:	2100      	movs	r1, #0
 8008c56:	f884 1043 	strb.w	r1, [r4, #67]	; 0x43
 8008c5a:	6866      	ldr	r6, [r4, #4]
 8008c5c:	60a6      	str	r6, [r4, #8]
 8008c5e:	2e00      	cmp	r6, #0
 8008c60:	bfa2      	ittt	ge
 8008c62:	6821      	ldrge	r1, [r4, #0]
 8008c64:	f021 0104 	bicge.w	r1, r1, #4
 8008c68:	6021      	strge	r1, [r4, #0]
 8008c6a:	b90d      	cbnz	r5, 8008c70 <_printf_i+0x118>
 8008c6c:	2e00      	cmp	r6, #0
 8008c6e:	d04d      	beq.n	8008d0c <_printf_i+0x1b4>
 8008c70:	4616      	mov	r6, r2
 8008c72:	fbb5 f1f3 	udiv	r1, r5, r3
 8008c76:	fb03 5711 	mls	r7, r3, r1, r5
 8008c7a:	5dc7      	ldrb	r7, [r0, r7]
 8008c7c:	f806 7d01 	strb.w	r7, [r6, #-1]!
 8008c80:	462f      	mov	r7, r5
 8008c82:	42bb      	cmp	r3, r7
 8008c84:	460d      	mov	r5, r1
 8008c86:	d9f4      	bls.n	8008c72 <_printf_i+0x11a>
 8008c88:	2b08      	cmp	r3, #8
 8008c8a:	d10b      	bne.n	8008ca4 <_printf_i+0x14c>
 8008c8c:	6823      	ldr	r3, [r4, #0]
 8008c8e:	07df      	lsls	r7, r3, #31
 8008c90:	d508      	bpl.n	8008ca4 <_printf_i+0x14c>
 8008c92:	6923      	ldr	r3, [r4, #16]
 8008c94:	6861      	ldr	r1, [r4, #4]
 8008c96:	4299      	cmp	r1, r3
 8008c98:	bfde      	ittt	le
 8008c9a:	2330      	movle	r3, #48	; 0x30
 8008c9c:	f806 3c01 	strble.w	r3, [r6, #-1]
 8008ca0:	f106 36ff 	addle.w	r6, r6, #4294967295
 8008ca4:	1b92      	subs	r2, r2, r6
 8008ca6:	6122      	str	r2, [r4, #16]
 8008ca8:	f8cd a000 	str.w	sl, [sp]
 8008cac:	464b      	mov	r3, r9
 8008cae:	aa03      	add	r2, sp, #12
 8008cb0:	4621      	mov	r1, r4
 8008cb2:	4640      	mov	r0, r8
 8008cb4:	f7ff fee2 	bl	8008a7c <_printf_common>
 8008cb8:	3001      	adds	r0, #1
 8008cba:	d14c      	bne.n	8008d56 <_printf_i+0x1fe>
 8008cbc:	f04f 30ff 	mov.w	r0, #4294967295
 8008cc0:	b004      	add	sp, #16
 8008cc2:	e8bd 87f0 	ldmia.w	sp!, {r4, r5, r6, r7, r8, r9, sl, pc}
 8008cc6:	4835      	ldr	r0, [pc, #212]	; (8008d9c <_printf_i+0x244>)
 8008cc8:	f884 7045 	strb.w	r7, [r4, #69]	; 0x45
 8008ccc:	6823      	ldr	r3, [r4, #0]
 8008cce:	680e      	ldr	r6, [r1, #0]
 8008cd0:	061f      	lsls	r7, r3, #24
 8008cd2:	f856 5b04 	ldr.w	r5, [r6], #4
 8008cd6:	600e      	str	r6, [r1, #0]
 8008cd8:	d514      	bpl.n	8008d04 <_printf_i+0x1ac>
 8008cda:	07d9      	lsls	r1, r3, #31
 8008cdc:	bf44      	itt	mi
 8008cde:	f043 0320 	orrmi.w	r3, r3, #32
 8008ce2:	6023      	strmi	r3, [r4, #0]
 8008ce4:	b91d      	cbnz	r5, 8008cee <_printf_i+0x196>
 8008ce6:	6823      	ldr	r3, [r4, #0]
 8008ce8:	f023 0320 	bic.w	r3, r3, #32
 8008cec:	6023      	str	r3, [r4, #0]
 8008cee:	2310      	movs	r3, #16
 8008cf0:	e7b0      	b.n	8008c54 <_printf_i+0xfc>
 8008cf2:	6823      	ldr	r3, [r4, #0]
 8008cf4:	f043 0320 	orr.w	r3, r3, #32
 8008cf8:	6023      	str	r3, [r4, #0]
 8008cfa:	2378      	movs	r3, #120	; 0x78
 8008cfc:	4828      	ldr	r0, [pc, #160]	; (8008da0 <_printf_i+0x248>)
 8008cfe:	f884 3045 	strb.w	r3, [r4, #69]	; 0x45
 8008d02:	e7e3      	b.n	8008ccc <_printf_i+0x174>
 8008d04:	065e      	lsls	r6, r3, #25
 8008d06:	bf48      	it	mi
 8008d08:	b2ad      	uxthmi	r5, r5
 8008d0a:	e7e6      	b.n	8008cda <_printf_i+0x182>
 8008d0c:	4616      	mov	r6, r2
 8008d0e:	e7bb      	b.n	8008c88 <_printf_i+0x130>
 8008d10:	680b      	ldr	r3, [r1, #0]
 8008d12:	6826      	ldr	r6, [r4, #0]
 8008d14:	6960      	ldr	r0, [r4, #20]
 8008d16:	1d1d      	adds	r5, r3, #4
 8008d18:	600d      	str	r5, [r1, #0]
 8008d1a:	0635      	lsls	r5, r6, #24
 8008d1c:	681b      	ldr	r3, [r3, #0]
 8008d1e:	d501      	bpl.n	8008d24 <_printf_i+0x1cc>
 8008d20:	6018      	str	r0, [r3, #0]
 8008d22:	e002      	b.n	8008d2a <_printf_i+0x1d2>
 8008d24:	0671      	lsls	r1, r6, #25
 8008d26:	d5fb      	bpl.n	8008d20 <_printf_i+0x1c8>
 8008d28:	8018      	strh	r0, [r3, #0]
 8008d2a:	2300      	movs	r3, #0
 8008d2c:	6123      	str	r3, [r4, #16]
 8008d2e:	4616      	mov	r6, r2
 8008d30:	e7ba      	b.n	8008ca8 <_printf_i+0x150>
 8008d32:	680b      	ldr	r3, [r1, #0]
 8008d34:	1d1a      	adds	r2, r3, #4
 8008d36:	600a      	str	r2, [r1, #0]
 8008d38:	681e      	ldr	r6, [r3, #0]
 8008d3a:	6862      	ldr	r2, [r4, #4]
 8008d3c:	2100      	movs	r1, #0
 8008d3e:	4630      	mov	r0, r6
 8008d40:	f7f7 fa4e 	bl	80001e0 <memchr>
 8008d44:	b108      	cbz	r0, 8008d4a <_printf_i+0x1f2>
 8008d46:	1b80      	subs	r0, r0, r6
 8008d48:	6060      	str	r0, [r4, #4]
 8008d4a:	6863      	ldr	r3, [r4, #4]
 8008d4c:	6123      	str	r3, [r4, #16]
 8008d4e:	2300      	movs	r3, #0
 8008d50:	f884 3043 	strb.w	r3, [r4, #67]	; 0x43
 8008d54:	e7a8      	b.n	8008ca8 <_printf_i+0x150>
 8008d56:	6923      	ldr	r3, [r4, #16]
 8008d58:	4632      	mov	r2, r6
 8008d5a:	4649      	mov	r1, r9
 8008d5c:	4640      	mov	r0, r8
 8008d5e:	47d0      	blx	sl
 8008d60:	3001      	adds	r0, #1
 8008d62:	d0ab      	beq.n	8008cbc <_printf_i+0x164>
 8008d64:	6823      	ldr	r3, [r4, #0]
 8008d66:	079b      	lsls	r3, r3, #30
 8008d68:	d413      	bmi.n	8008d92 <_printf_i+0x23a>
 8008d6a:	68e0      	ldr	r0, [r4, #12]
 8008d6c:	9b03      	ldr	r3, [sp, #12]
 8008d6e:	4298      	cmp	r0, r3
 8008d70:	bfb8      	it	lt
 8008d72:	4618      	movlt	r0, r3
 8008d74:	e7a4      	b.n	8008cc0 <_printf_i+0x168>
 8008d76:	2301      	movs	r3, #1
 8008d78:	4632      	mov	r2, r6
 8008d7a:	4649      	mov	r1, r9
 8008d7c:	4640      	mov	r0, r8
 8008d7e:	47d0      	blx	sl
 8008d80:	3001      	adds	r0, #1
 8008d82:	d09b      	beq.n	8008cbc <_printf_i+0x164>
 8008d84:	3501      	adds	r5, #1
 8008d86:	68e3      	ldr	r3, [r4, #12]
 8008d88:	9903      	ldr	r1, [sp, #12]
 8008d8a:	1a5b      	subs	r3, r3, r1
 8008d8c:	42ab      	cmp	r3, r5
 8008d8e:	dcf2      	bgt.n	8008d76 <_printf_i+0x21e>
 8008d90:	e7eb      	b.n	8008d6a <_printf_i+0x212>
 8008d92:	2500      	movs	r5, #0
 8008d94:	f104 0619 	add.w	r6, r4, #25
 8008d98:	e7f5      	b.n	8008d86 <_printf_i+0x22e>
 8008d9a:	bf00      	nop
 8008d9c:	08009a31 	.word	0x08009a31
 8008da0:	08009a42 	.word	0x08009a42

08008da4 <_sbrk_r>:
 8008da4:	b538      	push	{r3, r4, r5, lr}
 8008da6:	4d06      	ldr	r5, [pc, #24]	; (8008dc0 <_sbrk_r+0x1c>)
 8008da8:	2300      	movs	r3, #0
 8008daa:	4604      	mov	r4, r0
 8008dac:	4608      	mov	r0, r1
 8008dae:	602b      	str	r3, [r5, #0]
 8008db0:	f7f8 fd42 	bl	8001838 <_sbrk>
 8008db4:	1c43      	adds	r3, r0, #1
 8008db6:	d102      	bne.n	8008dbe <_sbrk_r+0x1a>
 8008db8:	682b      	ldr	r3, [r5, #0]
 8008dba:	b103      	cbz	r3, 8008dbe <_sbrk_r+0x1a>
 8008dbc:	6023      	str	r3, [r4, #0]
 8008dbe:	bd38      	pop	{r3, r4, r5, pc}
 8008dc0:	20009bb8 	.word	0x20009bb8

08008dc4 <__sread>:
 8008dc4:	b510      	push	{r4, lr}
 8008dc6:	460c      	mov	r4, r1
 8008dc8:	f9b1 100e 	ldrsh.w	r1, [r1, #14]
 8008dcc:	f000 fab4 	bl	8009338 <_read_r>
 8008dd0:	2800      	cmp	r0, #0
 8008dd2:	bfab      	itete	ge
 8008dd4:	6d63      	ldrge	r3, [r4, #84]	; 0x54
 8008dd6:	89a3      	ldrhlt	r3, [r4, #12]
 8008dd8:	181b      	addge	r3, r3, r0
 8008dda:	f423 5380 	biclt.w	r3, r3, #4096	; 0x1000
 8008dde:	bfac      	ite	ge
 8008de0:	6563      	strge	r3, [r4, #84]	; 0x54
 8008de2:	81a3      	strhlt	r3, [r4, #12]
 8008de4:	bd10      	pop	{r4, pc}

08008de6 <__swrite>:
 8008de6:	e92d 41f0 	stmdb	sp!, {r4, r5, r6, r7, r8, lr}
 8008dea:	461f      	mov	r7, r3
 8008dec:	898b      	ldrh	r3, [r1, #12]
 8008dee:	05db      	lsls	r3, r3, #23
 8008df0:	4605      	mov	r5, r0
 8008df2:	460c      	mov	r4, r1
 8008df4:	4616      	mov	r6, r2
 8008df6:	d505      	bpl.n	8008e04 <__swrite+0x1e>
 8008df8:	f9b1 100e 	ldrsh.w	r1, [r1, #14]
 8008dfc:	2302      	movs	r3, #2
 8008dfe:	2200      	movs	r2, #0
 8008e00:	f000 f9c8 	bl	8009194 <_lseek_r>
 8008e04:	89a3      	ldrh	r3, [r4, #12]
 8008e06:	f9b4 100e 	ldrsh.w	r1, [r4, #14]
 8008e0a:	f423 5380 	bic.w	r3, r3, #4096	; 0x1000
 8008e0e:	81a3      	strh	r3, [r4, #12]
 8008e10:	4632      	mov	r2, r6
 8008e12:	463b      	mov	r3, r7
 8008e14:	4628      	mov	r0, r5
 8008e16:	e8bd 41f0 	ldmia.w	sp!, {r4, r5, r6, r7, r8, lr}
 8008e1a:	f000 b869 	b.w	8008ef0 <_write_r>

08008e1e <__sseek>:
 8008e1e:	b510      	push	{r4, lr}
 8008e20:	460c      	mov	r4, r1
 8008e22:	f9b1 100e 	ldrsh.w	r1, [r1, #14]
 8008e26:	f000 f9b5 	bl	8009194 <_lseek_r>
 8008e2a:	1c43      	adds	r3, r0, #1
 8008e2c:	89a3      	ldrh	r3, [r4, #12]
 8008e2e:	bf15      	itete	ne
 8008e30:	6560      	strne	r0, [r4, #84]	; 0x54
 8008e32:	f423 5380 	biceq.w	r3, r3, #4096	; 0x1000
 8008e36:	f443 5380 	orrne.w	r3, r3, #4096	; 0x1000
 8008e3a:	81a3      	strheq	r3, [r4, #12]
 8008e3c:	bf18      	it	ne
 8008e3e:	81a3      	strhne	r3, [r4, #12]
 8008e40:	bd10      	pop	{r4, pc}

08008e42 <__sclose>:
 8008e42:	f9b1 100e 	ldrsh.w	r1, [r1, #14]
 8008e46:	f000 b8d3 	b.w	8008ff0 <_close_r>
	...

08008e4c <__swbuf_r>:
 8008e4c:	b5f8      	push	{r3, r4, r5, r6, r7, lr}
 8008e4e:	460e      	mov	r6, r1
 8008e50:	4614      	mov	r4, r2
 8008e52:	4605      	mov	r5, r0
 8008e54:	b118      	cbz	r0, 8008e5e <__swbuf_r+0x12>
 8008e56:	6983      	ldr	r3, [r0, #24]
 8008e58:	b90b      	cbnz	r3, 8008e5e <__swbuf_r+0x12>
 8008e5a:	f7ff fbbb 	bl	80085d4 <__sinit>
 8008e5e:	4b21      	ldr	r3, [pc, #132]	; (8008ee4 <__swbuf_r+0x98>)
 8008e60:	429c      	cmp	r4, r3
 8008e62:	d12b      	bne.n	8008ebc <__swbuf_r+0x70>
 8008e64:	686c      	ldr	r4, [r5, #4]
 8008e66:	69a3      	ldr	r3, [r4, #24]
 8008e68:	60a3      	str	r3, [r4, #8]
 8008e6a:	89a3      	ldrh	r3, [r4, #12]
 8008e6c:	071a      	lsls	r2, r3, #28
 8008e6e:	d52f      	bpl.n	8008ed0 <__swbuf_r+0x84>
 8008e70:	6923      	ldr	r3, [r4, #16]
 8008e72:	b36b      	cbz	r3, 8008ed0 <__swbuf_r+0x84>
 8008e74:	6923      	ldr	r3, [r4, #16]
 8008e76:	6820      	ldr	r0, [r4, #0]
 8008e78:	1ac0      	subs	r0, r0, r3
 8008e7a:	6963      	ldr	r3, [r4, #20]
 8008e7c:	b2f6      	uxtb	r6, r6
 8008e7e:	4283      	cmp	r3, r0
 8008e80:	4637      	mov	r7, r6
 8008e82:	dc04      	bgt.n	8008e8e <__swbuf_r+0x42>
 8008e84:	4621      	mov	r1, r4
 8008e86:	4628      	mov	r0, r5
 8008e88:	f000 f948 	bl	800911c <_fflush_r>
 8008e8c:	bb30      	cbnz	r0, 8008edc <__swbuf_r+0x90>
 8008e8e:	68a3      	ldr	r3, [r4, #8]
 8008e90:	3b01      	subs	r3, #1
 8008e92:	60a3      	str	r3, [r4, #8]
 8008e94:	6823      	ldr	r3, [r4, #0]
 8008e96:	1c5a      	adds	r2, r3, #1
 8008e98:	6022      	str	r2, [r4, #0]
 8008e9a:	701e      	strb	r6, [r3, #0]
 8008e9c:	6963      	ldr	r3, [r4, #20]
 8008e9e:	3001      	adds	r0, #1
 8008ea0:	4283      	cmp	r3, r0
 8008ea2:	d004      	beq.n	8008eae <__swbuf_r+0x62>
 8008ea4:	89a3      	ldrh	r3, [r4, #12]
 8008ea6:	07db      	lsls	r3, r3, #31
 8008ea8:	d506      	bpl.n	8008eb8 <__swbuf_r+0x6c>
 8008eaa:	2e0a      	cmp	r6, #10
 8008eac:	d104      	bne.n	8008eb8 <__swbuf_r+0x6c>
 8008eae:	4621      	mov	r1, r4
 8008eb0:	4628      	mov	r0, r5
 8008eb2:	f000 f933 	bl	800911c <_fflush_r>
 8008eb6:	b988      	cbnz	r0, 8008edc <__swbuf_r+0x90>
 8008eb8:	4638      	mov	r0, r7
 8008eba:	bdf8      	pop	{r3, r4, r5, r6, r7, pc}
 8008ebc:	4b0a      	ldr	r3, [pc, #40]	; (8008ee8 <__swbuf_r+0x9c>)
 8008ebe:	429c      	cmp	r4, r3
 8008ec0:	d101      	bne.n	8008ec6 <__swbuf_r+0x7a>
 8008ec2:	68ac      	ldr	r4, [r5, #8]
 8008ec4:	e7cf      	b.n	8008e66 <__swbuf_r+0x1a>
 8008ec6:	4b09      	ldr	r3, [pc, #36]	; (8008eec <__swbuf_r+0xa0>)
 8008ec8:	429c      	cmp	r4, r3
 8008eca:	bf08      	it	eq
 8008ecc:	68ec      	ldreq	r4, [r5, #12]
 8008ece:	e7ca      	b.n	8008e66 <__swbuf_r+0x1a>
 8008ed0:	4621      	mov	r1, r4
 8008ed2:	4628      	mov	r0, r5
 8008ed4:	f000 f81e 	bl	8008f14 <__swsetup_r>
 8008ed8:	2800      	cmp	r0, #0
 8008eda:	d0cb      	beq.n	8008e74 <__swbuf_r+0x28>
 8008edc:	f04f 37ff 	mov.w	r7, #4294967295
 8008ee0:	e7ea      	b.n	8008eb8 <__swbuf_r+0x6c>
 8008ee2:	bf00      	nop
 8008ee4:	080099e0 	.word	0x080099e0
 8008ee8:	08009a00 	.word	0x08009a00
 8008eec:	080099c0 	.word	0x080099c0

08008ef0 <_write_r>:
 8008ef0:	b538      	push	{r3, r4, r5, lr}
 8008ef2:	4d07      	ldr	r5, [pc, #28]	; (8008f10 <_write_r+0x20>)
 8008ef4:	4604      	mov	r4, r0
 8008ef6:	4608      	mov	r0, r1
 8008ef8:	4611      	mov	r1, r2
 8008efa:	2200      	movs	r2, #0
 8008efc:	602a      	str	r2, [r5, #0]
 8008efe:	461a      	mov	r2, r3
 8008f00:	f7f8 fc7e 	bl	8001800 <_write>
 8008f04:	1c43      	adds	r3, r0, #1
 8008f06:	d102      	bne.n	8008f0e <_write_r+0x1e>
 8008f08:	682b      	ldr	r3, [r5, #0]
 8008f0a:	b103      	cbz	r3, 8008f0e <_write_r+0x1e>
 8008f0c:	6023      	str	r3, [r4, #0]
 8008f0e:	bd38      	pop	{r3, r4, r5, pc}
 8008f10:	20009bb8 	.word	0x20009bb8

08008f14 <__swsetup_r>:
 8008f14:	4b32      	ldr	r3, [pc, #200]	; (8008fe0 <__swsetup_r+0xcc>)
 8008f16:	b570      	push	{r4, r5, r6, lr}
 8008f18:	681d      	ldr	r5, [r3, #0]
 8008f1a:	4606      	mov	r6, r0
 8008f1c:	460c      	mov	r4, r1
 8008f1e:	b125      	cbz	r5, 8008f2a <__swsetup_r+0x16>
 8008f20:	69ab      	ldr	r3, [r5, #24]
 8008f22:	b913      	cbnz	r3, 8008f2a <__swsetup_r+0x16>
 8008f24:	4628      	mov	r0, r5
 8008f26:	f7ff fb55 	bl	80085d4 <__sinit>
 8008f2a:	4b2e      	ldr	r3, [pc, #184]	; (8008fe4 <__swsetup_r+0xd0>)
 8008f2c:	429c      	cmp	r4, r3
 8008f2e:	d10f      	bne.n	8008f50 <__swsetup_r+0x3c>
 8008f30:	686c      	ldr	r4, [r5, #4]
 8008f32:	89a3      	ldrh	r3, [r4, #12]
 8008f34:	f9b4 200c 	ldrsh.w	r2, [r4, #12]
 8008f38:	0719      	lsls	r1, r3, #28
 8008f3a:	d42c      	bmi.n	8008f96 <__swsetup_r+0x82>
 8008f3c:	06dd      	lsls	r5, r3, #27
 8008f3e:	d411      	bmi.n	8008f64 <__swsetup_r+0x50>
 8008f40:	2309      	movs	r3, #9
 8008f42:	6033      	str	r3, [r6, #0]
 8008f44:	f042 0340 	orr.w	r3, r2, #64	; 0x40
 8008f48:	81a3      	strh	r3, [r4, #12]
 8008f4a:	f04f 30ff 	mov.w	r0, #4294967295
 8008f4e:	e03e      	b.n	8008fce <__swsetup_r+0xba>
 8008f50:	4b25      	ldr	r3, [pc, #148]	; (8008fe8 <__swsetup_r+0xd4>)
 8008f52:	429c      	cmp	r4, r3
 8008f54:	d101      	bne.n	8008f5a <__swsetup_r+0x46>
 8008f56:	68ac      	ldr	r4, [r5, #8]
 8008f58:	e7eb      	b.n	8008f32 <__swsetup_r+0x1e>
 8008f5a:	4b24      	ldr	r3, [pc, #144]	; (8008fec <__swsetup_r+0xd8>)
 8008f5c:	429c      	cmp	r4, r3
 8008f5e:	bf08      	it	eq
 8008f60:	68ec      	ldreq	r4, [r5, #12]
 8008f62:	e7e6      	b.n	8008f32 <__swsetup_r+0x1e>
 8008f64:	0758      	lsls	r0, r3, #29
 8008f66:	d512      	bpl.n	8008f8e <__swsetup_r+0x7a>
 8008f68:	6b61      	ldr	r1, [r4, #52]	; 0x34
 8008f6a:	b141      	cbz	r1, 8008f7e <__swsetup_r+0x6a>
 8008f6c:	f104 0344 	add.w	r3, r4, #68	; 0x44
 8008f70:	4299      	cmp	r1, r3
 8008f72:	d002      	beq.n	8008f7a <__swsetup_r+0x66>
 8008f74:	4630      	mov	r0, r6
 8008f76:	f000 f98f 	bl	8009298 <_free_r>
 8008f7a:	2300      	movs	r3, #0
 8008f7c:	6363      	str	r3, [r4, #52]	; 0x34
 8008f7e:	89a3      	ldrh	r3, [r4, #12]
 8008f80:	f023 0324 	bic.w	r3, r3, #36	; 0x24
 8008f84:	81a3      	strh	r3, [r4, #12]
 8008f86:	2300      	movs	r3, #0
 8008f88:	6063      	str	r3, [r4, #4]
 8008f8a:	6923      	ldr	r3, [r4, #16]
 8008f8c:	6023      	str	r3, [r4, #0]
 8008f8e:	89a3      	ldrh	r3, [r4, #12]
 8008f90:	f043 0308 	orr.w	r3, r3, #8
 8008f94:	81a3      	strh	r3, [r4, #12]
 8008f96:	6923      	ldr	r3, [r4, #16]
 8008f98:	b94b      	cbnz	r3, 8008fae <__swsetup_r+0x9a>
 8008f9a:	89a3      	ldrh	r3, [r4, #12]
 8008f9c:	f403 7320 	and.w	r3, r3, #640	; 0x280
 8008fa0:	f5b3 7f00 	cmp.w	r3, #512	; 0x200
 8008fa4:	d003      	beq.n	8008fae <__swsetup_r+0x9a>
 8008fa6:	4621      	mov	r1, r4
 8008fa8:	4630      	mov	r0, r6
 8008faa:	f000 f929 	bl	8009200 <__smakebuf_r>
 8008fae:	89a0      	ldrh	r0, [r4, #12]
 8008fb0:	f9b4 200c 	ldrsh.w	r2, [r4, #12]
 8008fb4:	f010 0301 	ands.w	r3, r0, #1
 8008fb8:	d00a      	beq.n	8008fd0 <__swsetup_r+0xbc>
 8008fba:	2300      	movs	r3, #0
 8008fbc:	60a3      	str	r3, [r4, #8]
 8008fbe:	6963      	ldr	r3, [r4, #20]
 8008fc0:	425b      	negs	r3, r3
 8008fc2:	61a3      	str	r3, [r4, #24]
 8008fc4:	6923      	ldr	r3, [r4, #16]
 8008fc6:	b943      	cbnz	r3, 8008fda <__swsetup_r+0xc6>
 8008fc8:	f010 0080 	ands.w	r0, r0, #128	; 0x80
 8008fcc:	d1ba      	bne.n	8008f44 <__swsetup_r+0x30>
 8008fce:	bd70      	pop	{r4, r5, r6, pc}
 8008fd0:	0781      	lsls	r1, r0, #30
 8008fd2:	bf58      	it	pl
 8008fd4:	6963      	ldrpl	r3, [r4, #20]
 8008fd6:	60a3      	str	r3, [r4, #8]
 8008fd8:	e7f4      	b.n	8008fc4 <__swsetup_r+0xb0>
 8008fda:	2000      	movs	r0, #0
 8008fdc:	e7f7      	b.n	8008fce <__swsetup_r+0xba>
 8008fde:	bf00      	nop
 8008fe0:	2000000c 	.word	0x2000000c
 8008fe4:	080099e0 	.word	0x080099e0
 8008fe8:	08009a00 	.word	0x08009a00
 8008fec:	080099c0 	.word	0x080099c0

08008ff0 <_close_r>:
 8008ff0:	b538      	push	{r3, r4, r5, lr}
 8008ff2:	4d06      	ldr	r5, [pc, #24]	; (800900c <_close_r+0x1c>)
 8008ff4:	2300      	movs	r3, #0
 8008ff6:	4604      	mov	r4, r0
 8008ff8:	4608      	mov	r0, r1
 8008ffa:	602b      	str	r3, [r5, #0]
 8008ffc:	f7f8 fc0e 	bl	800181c <_close>
 8009000:	1c43      	adds	r3, r0, #1
 8009002:	d102      	bne.n	800900a <_close_r+0x1a>
 8009004:	682b      	ldr	r3, [r5, #0]
 8009006:	b103      	cbz	r3, 800900a <_close_r+0x1a>
 8009008:	6023      	str	r3, [r4, #0]
 800900a:	bd38      	pop	{r3, r4, r5, pc}
 800900c:	20009bb8 	.word	0x20009bb8

08009010 <__sflush_r>:
 8009010:	898a      	ldrh	r2, [r1, #12]
 8009012:	e92d 41f0 	stmdb	sp!, {r4, r5, r6, r7, r8, lr}
 8009016:	4605      	mov	r5, r0
 8009018:	0710      	lsls	r0, r2, #28
 800901a:	460c      	mov	r4, r1
 800901c:	d458      	bmi.n	80090d0 <__sflush_r+0xc0>
 800901e:	684b      	ldr	r3, [r1, #4]
 8009020:	2b00      	cmp	r3, #0
 8009022:	dc05      	bgt.n	8009030 <__sflush_r+0x20>
 8009024:	6c0b      	ldr	r3, [r1, #64]	; 0x40
 8009026:	2b00      	cmp	r3, #0
 8009028:	dc02      	bgt.n	8009030 <__sflush_r+0x20>
 800902a:	2000      	movs	r0, #0
 800902c:	e8bd 81f0 	ldmia.w	sp!, {r4, r5, r6, r7, r8, pc}
 8009030:	6ae6      	ldr	r6, [r4, #44]	; 0x2c
 8009032:	2e00      	cmp	r6, #0
 8009034:	d0f9      	beq.n	800902a <__sflush_r+0x1a>
 8009036:	2300      	movs	r3, #0
 8009038:	f412 5280 	ands.w	r2, r2, #4096	; 0x1000
 800903c:	682f      	ldr	r7, [r5, #0]
 800903e:	602b      	str	r3, [r5, #0]
 8009040:	d032      	beq.n	80090a8 <__sflush_r+0x98>
 8009042:	6d60      	ldr	r0, [r4, #84]	; 0x54
 8009044:	89a3      	ldrh	r3, [r4, #12]
 8009046:	075a      	lsls	r2, r3, #29
 8009048:	d505      	bpl.n	8009056 <__sflush_r+0x46>
 800904a:	6863      	ldr	r3, [r4, #4]
 800904c:	1ac0      	subs	r0, r0, r3
 800904e:	6b63      	ldr	r3, [r4, #52]	; 0x34
 8009050:	b10b      	cbz	r3, 8009056 <__sflush_r+0x46>
 8009052:	6c23      	ldr	r3, [r4, #64]	; 0x40
 8009054:	1ac0      	subs	r0, r0, r3
 8009056:	2300      	movs	r3, #0
 8009058:	4602      	mov	r2, r0
 800905a:	6ae6      	ldr	r6, [r4, #44]	; 0x2c
 800905c:	6a21      	ldr	r1, [r4, #32]
 800905e:	4628      	mov	r0, r5
 8009060:	47b0      	blx	r6
 8009062:	1c43      	adds	r3, r0, #1
 8009064:	89a3      	ldrh	r3, [r4, #12]
 8009066:	d106      	bne.n	8009076 <__sflush_r+0x66>
 8009068:	6829      	ldr	r1, [r5, #0]
 800906a:	291d      	cmp	r1, #29
 800906c:	d82c      	bhi.n	80090c8 <__sflush_r+0xb8>
 800906e:	4a2a      	ldr	r2, [pc, #168]	; (8009118 <__sflush_r+0x108>)
 8009070:	40ca      	lsrs	r2, r1
 8009072:	07d6      	lsls	r6, r2, #31
 8009074:	d528      	bpl.n	80090c8 <__sflush_r+0xb8>
 8009076:	2200      	movs	r2, #0
 8009078:	6062      	str	r2, [r4, #4]
 800907a:	04d9      	lsls	r1, r3, #19
 800907c:	6922      	ldr	r2, [r4, #16]
 800907e:	6022      	str	r2, [r4, #0]
 8009080:	d504      	bpl.n	800908c <__sflush_r+0x7c>
 8009082:	1c42      	adds	r2, r0, #1
 8009084:	d101      	bne.n	800908a <__sflush_r+0x7a>
 8009086:	682b      	ldr	r3, [r5, #0]
 8009088:	b903      	cbnz	r3, 800908c <__sflush_r+0x7c>
 800908a:	6560      	str	r0, [r4, #84]	; 0x54
 800908c:	6b61      	ldr	r1, [r4, #52]	; 0x34
 800908e:	602f      	str	r7, [r5, #0]
 8009090:	2900      	cmp	r1, #0
 8009092:	d0ca      	beq.n	800902a <__sflush_r+0x1a>
 8009094:	f104 0344 	add.w	r3, r4, #68	; 0x44
 8009098:	4299      	cmp	r1, r3
 800909a:	d002      	beq.n	80090a2 <__sflush_r+0x92>
 800909c:	4628      	mov	r0, r5
 800909e:	f000 f8fb 	bl	8009298 <_free_r>
 80090a2:	2000      	movs	r0, #0
 80090a4:	6360      	str	r0, [r4, #52]	; 0x34
 80090a6:	e7c1      	b.n	800902c <__sflush_r+0x1c>
 80090a8:	6a21      	ldr	r1, [r4, #32]
 80090aa:	2301      	movs	r3, #1
 80090ac:	4628      	mov	r0, r5
 80090ae:	47b0      	blx	r6
 80090b0:	1c41      	adds	r1, r0, #1
 80090b2:	d1c7      	bne.n	8009044 <__sflush_r+0x34>
 80090b4:	682b      	ldr	r3, [r5, #0]
 80090b6:	2b00      	cmp	r3, #0
 80090b8:	d0c4      	beq.n	8009044 <__sflush_r+0x34>
 80090ba:	2b1d      	cmp	r3, #29
 80090bc:	d001      	beq.n	80090c2 <__sflush_r+0xb2>
 80090be:	2b16      	cmp	r3, #22
 80090c0:	d101      	bne.n	80090c6 <__sflush_r+0xb6>
 80090c2:	602f      	str	r7, [r5, #0]
 80090c4:	e7b1      	b.n	800902a <__sflush_r+0x1a>
 80090c6:	89a3      	ldrh	r3, [r4, #12]
 80090c8:	f043 0340 	orr.w	r3, r3, #64	; 0x40
 80090cc:	81a3      	strh	r3, [r4, #12]
 80090ce:	e7ad      	b.n	800902c <__sflush_r+0x1c>
 80090d0:	690f      	ldr	r7, [r1, #16]
 80090d2:	2f00      	cmp	r7, #0
 80090d4:	d0a9      	beq.n	800902a <__sflush_r+0x1a>
 80090d6:	0793      	lsls	r3, r2, #30
 80090d8:	680e      	ldr	r6, [r1, #0]
 80090da:	bf08      	it	eq
 80090dc:	694b      	ldreq	r3, [r1, #20]
 80090de:	600f      	str	r7, [r1, #0]
 80090e0:	bf18      	it	ne
 80090e2:	2300      	movne	r3, #0
 80090e4:	eba6 0807 	sub.w	r8, r6, r7
 80090e8:	608b      	str	r3, [r1, #8]
 80090ea:	f1b8 0f00 	cmp.w	r8, #0
 80090ee:	dd9c      	ble.n	800902a <__sflush_r+0x1a>
 80090f0:	6a21      	ldr	r1, [r4, #32]
 80090f2:	6aa6      	ldr	r6, [r4, #40]	; 0x28
 80090f4:	4643      	mov	r3, r8
 80090f6:	463a      	mov	r2, r7
 80090f8:	4628      	mov	r0, r5
 80090fa:	47b0      	blx	r6
 80090fc:	2800      	cmp	r0, #0
 80090fe:	dc06      	bgt.n	800910e <__sflush_r+0xfe>
 8009100:	89a3      	ldrh	r3, [r4, #12]
 8009102:	f043 0340 	orr.w	r3, r3, #64	; 0x40
 8009106:	81a3      	strh	r3, [r4, #12]
 8009108:	f04f 30ff 	mov.w	r0, #4294967295
 800910c:	e78e      	b.n	800902c <__sflush_r+0x1c>
 800910e:	4407      	add	r7, r0
 8009110:	eba8 0800 	sub.w	r8, r8, r0
 8009114:	e7e9      	b.n	80090ea <__sflush_r+0xda>
 8009116:	bf00      	nop
 8009118:	20400001 	.word	0x20400001

0800911c <_fflush_r>:
 800911c:	b538      	push	{r3, r4, r5, lr}
 800911e:	690b      	ldr	r3, [r1, #16]
 8009120:	4605      	mov	r5, r0
 8009122:	460c      	mov	r4, r1
 8009124:	b913      	cbnz	r3, 800912c <_fflush_r+0x10>
 8009126:	2500      	movs	r5, #0
 8009128:	4628      	mov	r0, r5
 800912a:	bd38      	pop	{r3, r4, r5, pc}
 800912c:	b118      	cbz	r0, 8009136 <_fflush_r+0x1a>
 800912e:	6983      	ldr	r3, [r0, #24]
 8009130:	b90b      	cbnz	r3, 8009136 <_fflush_r+0x1a>
 8009132:	f7ff fa4f 	bl	80085d4 <__sinit>
 8009136:	4b14      	ldr	r3, [pc, #80]	; (8009188 <_fflush_r+0x6c>)
 8009138:	429c      	cmp	r4, r3
 800913a:	d11b      	bne.n	8009174 <_fflush_r+0x58>
 800913c:	686c      	ldr	r4, [r5, #4]
 800913e:	f9b4 300c 	ldrsh.w	r3, [r4, #12]
 8009142:	2b00      	cmp	r3, #0
 8009144:	d0ef      	beq.n	8009126 <_fflush_r+0xa>
 8009146:	6e62      	ldr	r2, [r4, #100]	; 0x64
 8009148:	07d0      	lsls	r0, r2, #31
 800914a:	d404      	bmi.n	8009156 <_fflush_r+0x3a>
 800914c:	0599      	lsls	r1, r3, #22
 800914e:	d402      	bmi.n	8009156 <_fflush_r+0x3a>
 8009150:	6da0      	ldr	r0, [r4, #88]	; 0x58
 8009152:	f7ff fadd 	bl	8008710 <__retarget_lock_acquire_recursive>
 8009156:	4628      	mov	r0, r5
 8009158:	4621      	mov	r1, r4
 800915a:	f7ff ff59 	bl	8009010 <__sflush_r>
 800915e:	6e63      	ldr	r3, [r4, #100]	; 0x64
 8009160:	07da      	lsls	r2, r3, #31
 8009162:	4605      	mov	r5, r0
 8009164:	d4e0      	bmi.n	8009128 <_fflush_r+0xc>
 8009166:	89a3      	ldrh	r3, [r4, #12]
 8009168:	059b      	lsls	r3, r3, #22
 800916a:	d4dd      	bmi.n	8009128 <_fflush_r+0xc>
 800916c:	6da0      	ldr	r0, [r4, #88]	; 0x58
 800916e:	f7ff fad0 	bl	8008712 <__retarget_lock_release_recursive>
 8009172:	e7d9      	b.n	8009128 <_fflush_r+0xc>
 8009174:	4b05      	ldr	r3, [pc, #20]	; (800918c <_fflush_r+0x70>)
 8009176:	429c      	cmp	r4, r3
 8009178:	d101      	bne.n	800917e <_fflush_r+0x62>
 800917a:	68ac      	ldr	r4, [r5, #8]
 800917c:	e7df      	b.n	800913e <_fflush_r+0x22>
 800917e:	4b04      	ldr	r3, [pc, #16]	; (8009190 <_fflush_r+0x74>)
 8009180:	429c      	cmp	r4, r3
 8009182:	bf08      	it	eq
 8009184:	68ec      	ldreq	r4, [r5, #12]
 8009186:	e7da      	b.n	800913e <_fflush_r+0x22>
 8009188:	080099e0 	.word	0x080099e0
 800918c:	08009a00 	.word	0x08009a00
 8009190:	080099c0 	.word	0x080099c0

08009194 <_lseek_r>:
 8009194:	b538      	push	{r3, r4, r5, lr}
 8009196:	4d07      	ldr	r5, [pc, #28]	; (80091b4 <_lseek_r+0x20>)
 8009198:	4604      	mov	r4, r0
 800919a:	4608      	mov	r0, r1
 800919c:	4611      	mov	r1, r2
 800919e:	2200      	movs	r2, #0
 80091a0:	602a      	str	r2, [r5, #0]
 80091a2:	461a      	mov	r2, r3
 80091a4:	f7f8 fb46 	bl	8001834 <_lseek>
 80091a8:	1c43      	adds	r3, r0, #1
 80091aa:	d102      	bne.n	80091b2 <_lseek_r+0x1e>
 80091ac:	682b      	ldr	r3, [r5, #0]
 80091ae:	b103      	cbz	r3, 80091b2 <_lseek_r+0x1e>
 80091b0:	6023      	str	r3, [r4, #0]
 80091b2:	bd38      	pop	{r3, r4, r5, pc}
 80091b4:	20009bb8 	.word	0x20009bb8

080091b8 <__swhatbuf_r>:
 80091b8:	b570      	push	{r4, r5, r6, lr}
 80091ba:	460e      	mov	r6, r1
 80091bc:	f9b1 100e 	ldrsh.w	r1, [r1, #14]
 80091c0:	2900      	cmp	r1, #0
 80091c2:	b096      	sub	sp, #88	; 0x58
 80091c4:	4614      	mov	r4, r2
 80091c6:	461d      	mov	r5, r3
 80091c8:	da07      	bge.n	80091da <__swhatbuf_r+0x22>
 80091ca:	2300      	movs	r3, #0
 80091cc:	602b      	str	r3, [r5, #0]
 80091ce:	89b3      	ldrh	r3, [r6, #12]
 80091d0:	061a      	lsls	r2, r3, #24
 80091d2:	d410      	bmi.n	80091f6 <__swhatbuf_r+0x3e>
 80091d4:	f44f 6380 	mov.w	r3, #1024	; 0x400
 80091d8:	e00e      	b.n	80091f8 <__swhatbuf_r+0x40>
 80091da:	466a      	mov	r2, sp
 80091dc:	f000 f8be 	bl	800935c <_fstat_r>
 80091e0:	2800      	cmp	r0, #0
 80091e2:	dbf2      	blt.n	80091ca <__swhatbuf_r+0x12>
 80091e4:	9a01      	ldr	r2, [sp, #4]
 80091e6:	f402 4270 	and.w	r2, r2, #61440	; 0xf000
 80091ea:	f5a2 5300 	sub.w	r3, r2, #8192	; 0x2000
 80091ee:	425a      	negs	r2, r3
 80091f0:	415a      	adcs	r2, r3
 80091f2:	602a      	str	r2, [r5, #0]
 80091f4:	e7ee      	b.n	80091d4 <__swhatbuf_r+0x1c>
 80091f6:	2340      	movs	r3, #64	; 0x40
 80091f8:	2000      	movs	r0, #0
 80091fa:	6023      	str	r3, [r4, #0]
 80091fc:	b016      	add	sp, #88	; 0x58
 80091fe:	bd70      	pop	{r4, r5, r6, pc}

08009200 <__smakebuf_r>:
 8009200:	898b      	ldrh	r3, [r1, #12]
 8009202:	b573      	push	{r0, r1, r4, r5, r6, lr}
 8009204:	079d      	lsls	r5, r3, #30
 8009206:	4606      	mov	r6, r0
 8009208:	460c      	mov	r4, r1
 800920a:	d507      	bpl.n	800921c <__smakebuf_r+0x1c>
 800920c:	f104 0347 	add.w	r3, r4, #71	; 0x47
 8009210:	6023      	str	r3, [r4, #0]
 8009212:	6123      	str	r3, [r4, #16]
 8009214:	2301      	movs	r3, #1
 8009216:	6163      	str	r3, [r4, #20]
 8009218:	b002      	add	sp, #8
 800921a:	bd70      	pop	{r4, r5, r6, pc}
 800921c:	ab01      	add	r3, sp, #4
 800921e:	466a      	mov	r2, sp
 8009220:	f7ff ffca 	bl	80091b8 <__swhatbuf_r>
 8009224:	9900      	ldr	r1, [sp, #0]
 8009226:	4605      	mov	r5, r0
 8009228:	4630      	mov	r0, r6
 800922a:	f7ff fa73 	bl	8008714 <_malloc_r>
 800922e:	b948      	cbnz	r0, 8009244 <__smakebuf_r+0x44>
 8009230:	f9b4 300c 	ldrsh.w	r3, [r4, #12]
 8009234:	059a      	lsls	r2, r3, #22
 8009236:	d4ef      	bmi.n	8009218 <__smakebuf_r+0x18>
 8009238:	f023 0303 	bic.w	r3, r3, #3
 800923c:	f043 0302 	orr.w	r3, r3, #2
 8009240:	81a3      	strh	r3, [r4, #12]
 8009242:	e7e3      	b.n	800920c <__smakebuf_r+0xc>
 8009244:	4b0d      	ldr	r3, [pc, #52]	; (800927c <__smakebuf_r+0x7c>)
 8009246:	62b3      	str	r3, [r6, #40]	; 0x28
 8009248:	89a3      	ldrh	r3, [r4, #12]
 800924a:	6020      	str	r0, [r4, #0]
 800924c:	f043 0380 	orr.w	r3, r3, #128	; 0x80
 8009250:	81a3      	strh	r3, [r4, #12]
 8009252:	9b00      	ldr	r3, [sp, #0]
 8009254:	6163      	str	r3, [r4, #20]
 8009256:	9b01      	ldr	r3, [sp, #4]
 8009258:	6120      	str	r0, [r4, #16]
 800925a:	b15b      	cbz	r3, 8009274 <__smakebuf_r+0x74>
 800925c:	f9b4 100e 	ldrsh.w	r1, [r4, #14]
 8009260:	4630      	mov	r0, r6
 8009262:	f000 f88d 	bl	8009380 <_isatty_r>
 8009266:	b128      	cbz	r0, 8009274 <__smakebuf_r+0x74>
 8009268:	89a3      	ldrh	r3, [r4, #12]
 800926a:	f023 0303 	bic.w	r3, r3, #3
 800926e:	f043 0301 	orr.w	r3, r3, #1
 8009272:	81a3      	strh	r3, [r4, #12]
 8009274:	89a0      	ldrh	r0, [r4, #12]
 8009276:	4305      	orrs	r5, r0
 8009278:	81a5      	strh	r5, [r4, #12]
 800927a:	e7cd      	b.n	8009218 <__smakebuf_r+0x18>
 800927c:	0800856d 	.word	0x0800856d

08009280 <__malloc_lock>:
 8009280:	4801      	ldr	r0, [pc, #4]	; (8009288 <__malloc_lock+0x8>)
 8009282:	f7ff ba45 	b.w	8008710 <__retarget_lock_acquire_recursive>
 8009286:	bf00      	nop
 8009288:	20009bb0 	.word	0x20009bb0

0800928c <__malloc_unlock>:
 800928c:	4801      	ldr	r0, [pc, #4]	; (8009294 <__malloc_unlock+0x8>)
 800928e:	f7ff ba40 	b.w	8008712 <__retarget_lock_release_recursive>
 8009292:	bf00      	nop
 8009294:	20009bb0 	.word	0x20009bb0

08009298 <_free_r>:
 8009298:	b537      	push	{r0, r1, r2, r4, r5, lr}
 800929a:	2900      	cmp	r1, #0
 800929c:	d048      	beq.n	8009330 <_free_r+0x98>
 800929e:	f851 3c04 	ldr.w	r3, [r1, #-4]
 80092a2:	9001      	str	r0, [sp, #4]
 80092a4:	2b00      	cmp	r3, #0
 80092a6:	f1a1 0404 	sub.w	r4, r1, #4
 80092aa:	bfb8      	it	lt
 80092ac:	18e4      	addlt	r4, r4, r3
 80092ae:	f7ff ffe7 	bl	8009280 <__malloc_lock>
 80092b2:	4a20      	ldr	r2, [pc, #128]	; (8009334 <_free_r+0x9c>)
 80092b4:	9801      	ldr	r0, [sp, #4]
 80092b6:	6813      	ldr	r3, [r2, #0]
 80092b8:	4615      	mov	r5, r2
 80092ba:	b933      	cbnz	r3, 80092ca <_free_r+0x32>
 80092bc:	6063      	str	r3, [r4, #4]
 80092be:	6014      	str	r4, [r2, #0]
 80092c0:	b003      	add	sp, #12
 80092c2:	e8bd 4030 	ldmia.w	sp!, {r4, r5, lr}
 80092c6:	f7ff bfe1 	b.w	800928c <__malloc_unlock>
 80092ca:	42a3      	cmp	r3, r4
 80092cc:	d90b      	bls.n	80092e6 <_free_r+0x4e>
 80092ce:	6821      	ldr	r1, [r4, #0]
 80092d0:	1862      	adds	r2, r4, r1
 80092d2:	4293      	cmp	r3, r2
 80092d4:	bf04      	itt	eq
 80092d6:	681a      	ldreq	r2, [r3, #0]
 80092d8:	685b      	ldreq	r3, [r3, #4]
 80092da:	6063      	str	r3, [r4, #4]
 80092dc:	bf04      	itt	eq
 80092de:	1852      	addeq	r2, r2, r1
 80092e0:	6022      	streq	r2, [r4, #0]
 80092e2:	602c      	str	r4, [r5, #0]
 80092e4:	e7ec      	b.n	80092c0 <_free_r+0x28>
 80092e6:	461a      	mov	r2, r3
 80092e8:	685b      	ldr	r3, [r3, #4]
 80092ea:	b10b      	cbz	r3, 80092f0 <_free_r+0x58>
 80092ec:	42a3      	cmp	r3, r4
 80092ee:	d9fa      	bls.n	80092e6 <_free_r+0x4e>
 80092f0:	6811      	ldr	r1, [r2, #0]
 80092f2:	1855      	adds	r5, r2, r1
 80092f4:	42a5      	cmp	r5, r4
 80092f6:	d10b      	bne.n	8009310 <_free_r+0x78>
 80092f8:	6824      	ldr	r4, [r4, #0]
 80092fa:	4421      	add	r1, r4
 80092fc:	1854      	adds	r4, r2, r1
 80092fe:	42a3      	cmp	r3, r4
 8009300:	6011      	str	r1, [r2, #0]
 8009302:	d1dd      	bne.n	80092c0 <_free_r+0x28>
 8009304:	681c      	ldr	r4, [r3, #0]
 8009306:	685b      	ldr	r3, [r3, #4]
 8009308:	6053      	str	r3, [r2, #4]
 800930a:	4421      	add	r1, r4
 800930c:	6011      	str	r1, [r2, #0]
 800930e:	e7d7      	b.n	80092c0 <_free_r+0x28>
 8009310:	d902      	bls.n	8009318 <_free_r+0x80>
 8009312:	230c      	movs	r3, #12
 8009314:	6003      	str	r3, [r0, #0]
 8009316:	e7d3      	b.n	80092c0 <_free_r+0x28>
 8009318:	6825      	ldr	r5, [r4, #0]
 800931a:	1961      	adds	r1, r4, r5
 800931c:	428b      	cmp	r3, r1
 800931e:	bf04      	itt	eq
 8009320:	6819      	ldreq	r1, [r3, #0]
 8009322:	685b      	ldreq	r3, [r3, #4]
 8009324:	6063      	str	r3, [r4, #4]
 8009326:	bf04      	itt	eq
 8009328:	1949      	addeq	r1, r1, r5
 800932a:	6021      	streq	r1, [r4, #0]
 800932c:	6054      	str	r4, [r2, #4]
 800932e:	e7c7      	b.n	80092c0 <_free_r+0x28>
 8009330:	b003      	add	sp, #12
 8009332:	bd30      	pop	{r4, r5, pc}
 8009334:	20009884 	.word	0x20009884

08009338 <_read_r>:
 8009338:	b538      	push	{r3, r4, r5, lr}
 800933a:	4d07      	ldr	r5, [pc, #28]	; (8009358 <_read_r+0x20>)
 800933c:	4604      	mov	r4, r0
 800933e:	4608      	mov	r0, r1
 8009340:	4611      	mov	r1, r2
 8009342:	2200      	movs	r2, #0
 8009344:	602a      	str	r2, [r5, #0]
 8009346:	461a      	mov	r2, r3
 8009348:	f7f8 fa4c 	bl	80017e4 <_read>
 800934c:	1c43      	adds	r3, r0, #1
 800934e:	d102      	bne.n	8009356 <_read_r+0x1e>
 8009350:	682b      	ldr	r3, [r5, #0]
 8009352:	b103      	cbz	r3, 8009356 <_read_r+0x1e>
 8009354:	6023      	str	r3, [r4, #0]
 8009356:	bd38      	pop	{r3, r4, r5, pc}
 8009358:	20009bb8 	.word	0x20009bb8

0800935c <_fstat_r>:
 800935c:	b538      	push	{r3, r4, r5, lr}
 800935e:	4d07      	ldr	r5, [pc, #28]	; (800937c <_fstat_r+0x20>)
 8009360:	2300      	movs	r3, #0
 8009362:	4604      	mov	r4, r0
 8009364:	4608      	mov	r0, r1
 8009366:	4611      	mov	r1, r2
 8009368:	602b      	str	r3, [r5, #0]
 800936a:	f7f8 fa5b 	bl	8001824 <_fstat>
 800936e:	1c43      	adds	r3, r0, #1
 8009370:	d102      	bne.n	8009378 <_fstat_r+0x1c>
 8009372:	682b      	ldr	r3, [r5, #0]
 8009374:	b103      	cbz	r3, 8009378 <_fstat_r+0x1c>
 8009376:	6023      	str	r3, [r4, #0]
 8009378:	bd38      	pop	{r3, r4, r5, pc}
 800937a:	bf00      	nop
 800937c:	20009bb8 	.word	0x20009bb8

08009380 <_isatty_r>:
 8009380:	b538      	push	{r3, r4, r5, lr}
 8009382:	4d06      	ldr	r5, [pc, #24]	; (800939c <_isatty_r+0x1c>)
 8009384:	2300      	movs	r3, #0
 8009386:	4604      	mov	r4, r0
 8009388:	4608      	mov	r0, r1
 800938a:	602b      	str	r3, [r5, #0]
 800938c:	f7f8 fa50 	bl	8001830 <_isatty>
 8009390:	1c43      	adds	r3, r0, #1
 8009392:	d102      	bne.n	800939a <_isatty_r+0x1a>
 8009394:	682b      	ldr	r3, [r5, #0]
 8009396:	b103      	cbz	r3, 800939a <_isatty_r+0x1a>
 8009398:	6023      	str	r3, [r4, #0]
 800939a:	bd38      	pop	{r3, r4, r5, pc}
 800939c:	20009bb8 	.word	0x20009bb8

080093a0 <_init>:
 80093a0:	b5f8      	push	{r3, r4, r5, r6, r7, lr}
 80093a2:	bf00      	nop
 80093a4:	bcf8      	pop	{r3, r4, r5, r6, r7}
 80093a6:	bc08      	pop	{r3}
 80093a8:	469e      	mov	lr, r3
 80093aa:	4770      	bx	lr

080093ac <_fini>:
 80093ac:	b5f8      	push	{r3, r4, r5, r6, r7, lr}
 80093ae:	bf00      	nop
 80093b0:	bcf8      	pop	{r3, r4, r5, r6, r7}
 80093b2:	bc08      	pop	{r3}
 80093b4:	469e      	mov	lr, r3
 80093b6:	4770      	bx	lr
